(dp1
S'dim'
p2
I50
sS'word_dict'
p3
ccopy_reg
_reconstructor
p4
(csnorkel.learning.disc_models.rnn.utils
SymbolTable
p5
c__builtin__
object
p6
NtRp7
(dp8
S'unknown'
p9
I1
sS's'
I2977
sS'd'
g4
(cfuture.types.newdict
newdict
p10
c__builtin__
dict
p11
(dp12
V
I69
sVlimited
p13
I2379
sVoxygenation
p14
I1744
sVlocalizes
p15
I2482
sVmagnetic
p16
I1538
sVdynamic
p17
I1319
sVexternally
p18
I2445
sVcynomolgus
p19
I2941
sVobstruction
p20
I647
sVil-32
p21
I1267
sVlocalized
p22
I829
sVputamen
p23
I2520
sVrelationships
p24
I524
sVendoglin
p25
I1412
sV1.15
p26
I2882
sV1.13
p27
I1583
sVphysiological
p28
I1278
sVventral
p29
I1126
sV1.18
p30
I2777
sVrvvi
p31
I1484
sVpolyubiquitin
p32
I1864
sVcertain
p33
I270
sVunder
p34
I627
sVimmature
p35
I2063
sVald
p36
I2798
sVleukocytes
p37
I2112
sVdivergent
p38
I1279
sVhormone
p39
I172
sVshielding
p40
I1348
sVrescue
p41
I456
sVhex)2(hexnac)4
p42
I2034
sVactivation
p43
I435
sVregional
p44
I479
sVtrojan
p45
I1712
sVvitreous
p46
I2325
sVevery
p47
I1728
sVovercomes
p48
I2406
sVaffect
p49
I2237
sVmonkeys
p50
I2942
sVanemia
p51
I2633
sVinternally
p52
I2444
sVprogression
p53
I1311
sVbmsc
p54
I1829
sVinduction
p55
I1975
sVupa
p56
I231
sVvector
p57
I1570
sVcholesterol
p58
I876
sVtnf-
p59
I167
sVupt
p60
I1492
sVlysosomal
p61
I642
sVconsistent
p62
I1189
sVestimates
p63
I1533
sVdirect
p64
I2082
sVhorn
p65
I1120
sVfeasibility
p66
I2602
sVlikely
p67
I960
sVlaparoscopic
p68
I2919
sVinfiltration
p69
I1619
sVbronchoalveolar
p70
I126
sVestimated
p71
I1147
sVcovalent
p72
I2188
sVestablished
p73
I345
sVfiltration
p74
I1389
sV+
I978
sVselected
p75
I884
sVcontributed
p76
I1960
sVparapneumonic
p77
I1449
sVcytokines
p78
I842
sVnew
p79
I303
sVnet
p80
I954
sVincreasing
p81
I2767
sVp=0.001
p82
I2890
sVnever
p83
I2343
sVauc
p84
I2726
sVhere
p85
I2
sV10%
p86
I1503
sVreported
p87
I2056
sVprotection
p88
I105
sVrepresented
p89
I860
sV103
p90
I1665
sV100
p91
I206
sV105
p92
I1421
sVobtained
p93
I979
sVtransudate
p94
I1450
sVglm
p95
I1965
sVstudy
p96
I210
sVakt
p97
I454
sVaki
p98
I145
sVj774
p99
I753
sVsmoke
p100
I2748
sVsymmetrical
p101
I132
sVchanges
p102
I1078
sVvp1
p103
I920
sVmodulates
p104
I670
sVclassification
p105
I2868
sVexplained
p106
I1963
sVhighly
p107
I980
sVmodulated
p108
I2032
sVdmfs
p109
I2964
sVcounts
p110
I1913
sVtotal
p111
I398
sVbrb
p112
I502
sVlinearly
p113
I964
sVdna
p114
I20
sVrapidly
p115
I1545
sVwould
p116
I2488
sVhospital
p117
I2829
sVdni
p118
I611
sVnegative
p119
I363
sVinsult
p120
I2252
sVtherefore
p121
I1271
sVip
p122
I1436
sVtype
p123
I254
sVfractions
p124
I943
sVfemales
p125
I969
sVstandardized
p126
I2973
sVlungs
p127
I2142
sVpopulations
p128
I1779
sVinflammatory
p129
I598
sV43
p130
I394
sVinfusion
p131
I1193
sVdisruption
p132
I799
sV0.388
p133
I2643
sV52.3%-fold
p134
I1201
sV91
p135
I1445
sV93
p136
I1666
sVsupplemental
p137
I2336
sVabundance
p138
I1337
sVmd
p139
I60
sVmg
p140
I1642
sVmb
p141
I2297
sVmm
p142
I1949
sVml
p143
I2886
sVwork
p144
I1086
sVphosphorylated
p145
I2753
sVtc
p146
I2090
sVmammalian
p147
I1632
sVoxide
p148
I2104
sVtnf
p149
I1972
sVnorm
p150
I2683
sVms
p151
I2819
sVtnm
p152
I2438
sVcytochrome
p153
I2179
sVroute
p154
I1437
sV100.0%
p155
I82
sVtelomerase
p156
I1998
sVindicated
p157
I1521
sVhemoglobin
p158
I1019
sVorganized
p159
I1880
sVvascularized
p160
I1535
sVascites
p161
I534
sV12q24.11
p162
I318
sVurea
p163
I2768
sV8-ohdg
p164
I1291
sVvalidated
p165
I244
sVrisk
p166
I569
sVt2d.
p167
I2083
sVaging
p168
I1986
sVend
p169
I1073
sVpredictors
p170
I2738
sVniemann
p171
I255
sVcolonic
p172
I1615
sVdamage
p173
I1284
sViggs
p174
I887
sVhow
p175
I798
sVmethodology
p176
I2148
sVtoxin
p177
I1259
sVsignificance
p178
I2950
sVsflt-1
p179
I1411
sVrise
p180
I1242
sVdescription
p181
I2041
sVundergoing
p182
I146
sVtransforming
p183
I2970
sVafter
p184
I221
sVcontaining
p185
I786
sVcox-2
p186
I1306
sVpolymerase
p187
I2533
sVmodest
p188
I1627
sVova
p189
I1568
sVphotoluminescence
p190
I2028
sVtypes
p191
I672
sVt2dm
p192
I1381
sVeffective
p193
I39
sVguanosine
p194
I1290
sVcorrelation
p195
I913
sVorder
p196
I1313
sVhedgehog
p197
I447
sVrestriction
p198
I2376
sVp<0.01
p199
I2355
sVover
p200
I310
sVmyd88/akt
p201
I1687
sVmicroglia
p202
I693
sVromo1
p203
I1068
sVth1
p204
I517
sVstaining
p205
I1823
sVactivating
p206
I899
sVbefore
p207
I1335
sVcll
p208
I384
sVcli
p209
I2593
sVauditory
p210
I807
sVimm
p211
I1176
sV,
I3
sVwriting
p212
I2576
sVbetter
p213
I929
sVproduction
p214
I840
sVweeks
p215
I988
sVversus
p216
I819
sVfoxp3
p217
I514
sVthem
p218
I1349
sVaffected
p219
I130
sVdiseases
p220
I93
sVremission
p221
I2799
sVfragment
p222
I1898
sVenrich
p223
I17
sVband
p224
I2190
sVhypoxia
p225
I2821
sVtherapy
p226
I1094
sVeffects
p227
I108
sVthey
p228
I990
sVone
p229
I317
sVsmoking
p230
I2670
sVstructural
p231
I1478
sVtransduce
p232
I583
sVoxygen
p233
I1992
sV1.06
p234
I2782
sVthymi
p235
I2931
sVclassified
p236
I1161
sVl
I2957
sVnonsmall
p237
I1038
sVcomposition
p238
I1691
sVlosartan
p239
I997
sVmrna
p240
I421
sVeach
p241
I1970
sVsham
p242
I2814
sVbone
p243
I187
sVmean
p244
I765
sVsnu-484
p245
I1874
sVafforded
p246
I928
sVnave
p247
I1837
sVapolipoprotein
p248
I2262
sVknockout
p249
I784
sVbortezomib
p250
I1954
sVgsdmb
p251
I613
sVspecificity
p252
I86
sVmultipotency
p253
I1783
sVmethodological
p254
I1352
sVameliorate
p255
I2086
sVmyocardial
p256
I911
sVrt
p257
I1824
sVnetwork
p258
I267
sVrs
p259
I1743
sVrestricted
p260
I851
sVcrucial
p261
I2069
sVforty
p262
I1485
sVvessels
p263
I2551
sVcontent
p264
I2275
sVadhesion
p265
I1107
sVcpgs
p266
I1649
sVra
p267
I1274
sVwgs
p268
I42
sVnewly
p269
I1184
sVsize
p270
I2435
sVdsc
p271
I1752
sVntx
p272
I1928
sVlinear
p273
I919
sVbarrier
p274
I501
sVassociate
p275
I2478
sV299
p276
I1733
sVfree
p277
I151
sVstandard
p278
I723
sVpalmitoleic
p279
I1088
sVformation
p280
I749
sVenhance
p281
I720
sVmononuclear
p282
I1089
sVimunoreactivity
p283
I1470
sVcnvs
p284
I1797
sVsaha
p285
I1784
sVpmsn
p286
I702
sVatl
p287
I80
sVdiabetic
p288
I490
sVdays
p289
I590
sVfilter
p290
I400
sVatp
p291
I668
sVsignature
p292
I1764
sVonto
p293
I2024
sVgli-1
p294
I2273
sVbreed
p295
I2572
sVtrka
p296
I2477
sVgrade
p297
I478
sVnhl
p298
I1186
sVcoding
p299
I1323
sVprimary
p300
I1074
sVvascularization
p301
I1171
sVchannels
p302
I666
sVwash
p303
I2447
sV179
p304
I393
sVimplicated
p305
I431
sVthick
p306
I2530
sV170
p307
I888
sVmercury
p308
I2741
sVtonometry
p309
I1723
sVsimilarly
p310
I1219
sV0.02
p311
I946
sV0.03
p312
I2784
sVtop
p313
I2575
sV0.04
p314
I571
sV0.05
p315
I70
sVneeded
p316
I2718
sVrates
p317
I2616
sVviral
p318
I931
sVpercentage
p319
I1135
sVdogs
p320
I572
sVosmolality
p321
I1727
sVcav-1
p322
I2006
sVintestine
p323
I541
sVpredictably
p324
I1262
sVtool
p325
I2580
sVbrushes
p326
I2577
sVserve
p327
I1403
sVhypertriglyceridemia
p328
I967
sVwestern
p329
I1827
sVdissociated
p330
I1212
sVwhite
p331
I357
sVpositively
p332
I874
sVp53
p333
I109
sVpyramidal
p334
I1850
sVroles
p335
I213
sVolder
p336
I2878
sVsecond
p337
I2129
sVtreg
p338
I510
sVfinal
p339
I2432
sVpreparation
p340
I1474
sVmatter
p341
I2517
sVplasmid
p342
I1571
sViron
p343
I1028
sVbiochemical
p344
I55
sVethanolamine
p345
I2874
sVhbv)-related
p346
I2792
sVmembranes
p347
I251
sVran
p348
I2463
sVspent
p349
I2638
sVrat
p350
I1685
sVras
p351
I901
sVbdnf
p352
I2513
sVcompartments
p353
I122
sVrelatively
p354
I704
sVforced
p355
I290
sVrelapse
p356
I619
sVpleural
p357
I1067
sVthoroughly
p358
I2344
sV-
I38
sVisolated
p359
I252
sVsubjects
p360
I1638
sVisolates
p361
I2487
sVeffectiveness
p362
I2604
sV\u000a 
p363
I18
sVifnar
p364
I2066
sVcomplexed
p365
I1244
sVneo
p366
I389
sVglands
p367
I1300
sVhpbmcs
p368
I1055
sVreticulum
p369
I1344
sVnorepinephrine
p370
I1198
sVinvolving
p371
I2835
sVcarcinoma
p372
I1582
sVphase
p373
I2639
sVassessed
p374
I298
sVpapillomavirus
p375
I2290
sVdmem
p376
I1629
sVnh3-n
p377
I2012
sV1-month
p378
I2366
sVobservation
p379
I2094
sVflow
p380
I1620
sVhepatocellular
p381
I2501
sVleaflet
p382
I1595
sVimmunoreactivity
p383
I1215
sVdystonin
p384
I1873
sVckip-1
p385
I2751
sVfitted
p386
I2026
sV93.9%
p387
I87
sVhunger
p388
I2002
sVlewis
p389
I1563
sVrandom
p390
I991
sVncrnas
p391
I2327
sVsoluble
p392
I942
sVlethal
p393
I594
sVbiphenyls
p394
I2848
sVd1
p395
I1707
sVexplain
p396
I2200
sVscreening
p397
I1869
sVrich
p398
I1399
sVupec
p399
I1623
sVrica
p400
I2529
sVdo
p401
I2075
sVdl
p402
I2771
sVfluid
p403
I128
sVdegradation
p404
I1351
sValtogether
p405
I95
sVreport
p406
I769
sVldl
p407
I2091
sVdr
p408
I492
sVdp
p409
I1676
sVbeads
p410
I2296
sVrectal
p411
I2700
sVemt
p412
I434
sVinactive
p413
I2715
sVarchitecture
p414
I1618
sVrelease
p415
I2178
sVrespond
p416
I1041
sVperipheral
p417
I134
sVtesting
p418
I1908
sValterations
p419
I639
sVobserved
p420
I637
sVovalbumin
p421
I1567
sVcloning
p422
I683
sVcattle
p423
I846
sVapoa1
p424
I2263
sVincorporating
p425
I1966
sVtechniques
p426
I2918
sVbrazil
p427
I2498
sVswga
p428
I7
sVcapacity
p429
I292
sVartificial
p430
I996
sVptgds
p431
I2267
sVcaveolin-1
p432
I2005
sVapproach
p433
I245
sVdiscovery
p434
I2615
sVpreserve
p435
I1163
sVwe
p436
I4
sVmen
p437
I2515
sVterms
p438
I618
sVnature
p439
I1047
sVoxidation
p440
I1293
sVlymphocyte
p441
I1911
sVrestricting
p442
I1015
sVhowever
p443
I489
sV2,532
p444
I2347
sV384
p445
I1648
sVmek
p446
I1005
sVdysfunctions
p447
I507
sVmodeling
p448
I757
sVabolished
p449
I1812
sVimprove
p450
I2123
sVreceived
p451
I1640
sVprotect
p452
I1172
sVcox
p453
I2362
sVconclusions
p454
I2816
sVagainst
p455
I106
sVlayered
p456
I1058
sVplanned
p457
I2300
sVreceiver
p458
I2958
sVvariance
p459
I2659
sVzo-1
p460
I1821
sVpre
p461
I2553
sVappeared
p462
I2723
sVmutations
p463
I1333
sVactive
p464
I830
sVhai-1
p465
I2613
sVlowly
p466
I2752
sVpregnancy
p467
I2934
sVloaded
p468
I701
sV256
p469
I1653
sVthree
p470
I121
sVlactic
p471
I795
sV.
I43
sVdetrimental
p472
I107
sVhnk-1
p473
I2714
sVprogenitor
p474
I805
sVobese
p475
I2373
sVmcl
p476
I2227
sVclcqds
p477
I2022
sVhospitalization
p478
I2341
sVhospitalized
p479
I2367
sV39
p480
I2802
sV-induced
p481
I546
sVbladder
p482
I486
sV0.10
p483
I2903
sVmcv
p484
I2211
sVplacental
p485
I1406
sVapplied
p486
I1854
sVinoculum
p487
I2419
sVpersulfides
p488
I2315
sVn
I280
sVaim
p489
I112
sVcalcium
p490
I1341
sVnear
p491
I365
sVaih
p492
I2801
sVaid
p493
I2403
sVendpoints
p494
I1982
sVanchor
p495
I1637
sVassociations
p496
I760
sVreproducibility
p497
I1509
sVis
p498
I8
sVir
p499
I432
sVit
p500
I543
sVsting
p501
I2434
sViv
p502
I1429
sVii
p503
I999
sVcharacterize
p504
I230
sVtissue
p505
I235
sVin
p506
I51
sVcomparative
p507
I1833
sVic
p508
I2288
sVupregulated
p509
I1233
sVmouse
p510
I469
sVgrown
p511
I2473
sVconfirmed
p512
I722
sVdescent
p513
I2044
sVsuggest
p514
I1527
sVmake
p515
I1917
sVplated
p516
I1056
sVcomplex
p517
I1597
sVphenotype
p518
I470
sVseveral
p519
I346
sVrna
p520
I1076
sVeuropean
p521
I1664
sVindependent
p522
I268
sVangiopoietin
p523
I1400
sVselectin
p524
I2109
sVdiffering
p525
I354
sVkit
p526
I1757
sVpharmacological
p527
I1150
sVcharacters
p528
I2719
sVimmunohistochemical
p529
I2073
sVcatheter
p530
I2396
sVnormalization
p531
I1395
sVwhereby
p532
I1714
sVpi3k
p533
I453
sV80%
p534
I2657
sVnatriuretic
p535
I1899
sVcrosslinks
p536
I327
sVsquamous
p537
I1442
sVhydration
p538
I1724
sVmother
p539
I2863
sVthg
p540
I1962
sVquantitative
p541
I1896
sVthe
p542
I52
sVpossesses
p543
I703
sVleft
p544
I2519
sVbcl-2
p545
I2204
sVpbmc
p546
I1090
sVproposed
p547
I1710
sVassigned
p548
I992
sVidentify
p549
I593
sVsalivary
p550
I2725
sVhuman
p551
I28
sVdopamine
p552
I1280
sVtransmembrane
p553
I2480
sVbrachial
p554
I2157
sVprevious
p555
I2689
sVcervix
p556
I2390
sVcandidate
p557
I1458
sVstent
p558
I2557
sVhad
p559
I779
sV5p
p560
I2907
sVpercutaneous
p561
I2457
sVneoplasm
p562
I2621
sVaffinity
p563
I1281
sVtechnological
p564
I1679
sVallele
p565
I2151
sVhas
p566
I579
sVplasma
p567
I250
sVelevation
p568
I2454
sVubiquinone
p569
I2898
sVsurvival
p570
I143
sVprogressed
p571
I2378
sVpossible
p572
I1794
sVpossibly
p573
I263
sVfusion
p574
I1602
sVopg
p575
I1063
sVbirth
p576
I2126
sVgangrene
p577
I2598
sVunique
p578
I653
sVplasmacytoid
p579
I865
sVadvanced
p580
I1292
sVnude
p581
I1725
sV56
p582
I1486
sVremnant
p583
I2562
sVallohsct
p584
I1330
sVspecific
p585
I2100
sVmonolayer
p586
I1816
sV155%
p587
I2772
sVmosquito
p588
I2409
sVhepatic
p589
I419
sVmyeloproliferative
p590
I2620
sVfluoride
p591
I1831
sVeffusion
p592
I1084
sVright
p593
I1561
sVold
p594
I2108
sVsuccessfully
p595
I2420
sVelderly
p596
I2080
sV50
p597
I2800
sV53
p598
I1439
sVpain
p599
I2247
sVindirect
p600
I2348
sVsilkworms
p601
I2295
sVcocaine
p602
I951
sVhumor
p603
I2323
sVcns
p604
I584
sVfor
p605
I36
sVreflexively
p606
I2929
sVnervosa
p607
I2372
sV/
I452
sVtertiary
p608
I2827
sVyields
p609
I1769
sVcortical
p610
I685
sVicv
p611
I995
sVcord
p612
I1118
sVcore
p613
I2734
sVplt
p614
I2212
sVbold
p615
I1745
sVelucidate
p616
I1277
sVdental
p617
I2709
sVpredicting
p618
I2790
sVhaptoglobin
p619
I1020
sVconfer
p620
I104
sV0.931.38
p621
I1584
sVmetastatic
p622
I2967
sVpost
p623
I1157
sVsuper
p624
I468
sVproperties
p625
I2789
sVlentiviral
p626
I1569
sVheparin
p627
I1519
sV0.412
p628
I2642
sVmonths
p629
I733
sVadipose
p630
I2239
sVlmca
p631
I1549
sVo
I1770
sVpedunculopontine
p632
I902
sVastrocyte
p633
I274
sVlogistical
p634
I2407
sVislands
p635
I1522
sV-integrin
p636
I831
sVslightly
p637
I2113
sVobjectives
p638
I2820
sVnerve
p639
I2250
sVleptin
p640
I2132
sVpresence
p641
I1767
sV0.418
p642
I2647
sVosteocalcin
p643
I1934
sVatipamezole
p644
I1813
sVppn
p645
I261
sVcoincided
p646
I2731
sVdown
p647
I1138
sVattrition
p648
I1996
sVanorexia
p649
I2371
sVexisted
p650
I2690
sVcomparing
p651
I246
sVvaccination
p652
I724
sVpresepsin
p653
I2948
sVsupport
p654
I2076
sVinitial
p655
I2461
sVavailable
p656
I2338
sVerythrocyte
p657
I604
sVclinical
p658
I1080
sVresulted
p659
I1430
sVwas
p660
I113
sVmetabolism
p661
I2508
sVhead
p662
I689
sVmedium
p663
I1222
sVform
p664
I694
sVh004
p665
I1177
sVforming
p666
I272
sVdifferences
p667
I50
sVfailure
p668
I563
sVheat
p669
I1905
sVprofile
p670
I655
sVdead
p671
I2806
sVencoded
p672
I1865
sVchannelrhodopsin-2
p673
I1843
sV0.004
p674
I2281
sVreproductive
p675
I2851
sVarrays
p676
I973
sVassessment
p677
I1983
sVinside
p678
I1718
sVspleen
p679
I533
sVmtt
p680
I1822
sVphosphate
p681
I1937
sVcomplications
p682
I2558
sVstages
p683
I2415
sVpassenger
p684
I1717
sVifn-
p685
I518
sV155
p686
I1457
sVaorta
p687
I1708
sVclassic
p688
I862
sV159
p689
I2416
sVmelas
p690
I2335
sV0.63
p691
I2728
sVcytoskeleton
p692
I1882
sVpostmitotic
p693
I96
sVphysical
p694
I1511
sVeffusions
p695
I1444
sVmelanoma
p696
I1308
sVno
p697
I48
sVna
p698
I1870
sVwhereas
p699
I2550
sVnd
p700
I1660
sVegfrcrea
p701
I1149
sVoxygenated
p702
I2825
sVng
p703
I1499
sV/ter119
p704
I2223
sVpax5-positive
p705
I2062
sVfarnesylthiosalicylic
p706
I1002
sVrole
p707
I558
sVpolymyositis
p708
I1091
sVdigital
p709
I2337
sVheterozygous
p710
I1332
sVnt
p711
I1901
sVcortex
p712
I1473
sVnode
p713
I481
sVp75
p714
I1234
sVil-8
p715
I1941
sVmrsa
p716
I2226
sVmodels
p717
I2199
sVil-6
p718
I170
sVil-7
p719
I1558
sVil-1
p720
I168
sVdiet
p721
I1684
sVscale
p722
I2039
sVmmp7
p723
I2059
sV0.449
p724
I2648
sVhippocampal
p725
I812
sVinterval
p726
I2260
sVtogether
p727
I319
sVgalectin-3
p728
I692
sVtime
p729
I1737
sVangiogenesis
p730
I918
sVmobilized
p731
I1515
sVadult
p732
I1462
sVurinary
p733
I388
sVlymphatic
p734
I2391
sVremarkable
p735
I1217
sVrs2908289
p736
I2668
sVglobal
p737
I1451
sVactivated
p738
I442
sVleads
p739
I2189
sVmild
p740
I1418
sVsupplement
p741
I719
sVskin
p742
I2115
sVmorphology
p743
I1605
sVremarkably
p744
I1191
sVros
p745
I428
sVmilk
p746
I1677
sVamplification
p747
I368
sVpassage
p748
I1016
sVrecurrence
p749
I1978
sVfinally
p750
I2330
sVpromoting
p751
I2426
sVmonocytes
p752
I1054
sVprotective
p753
I1050
sVadenocarcinomas
p754
I1441
sVhepatocytes
p755
I2176
sVblast
p756
I2813
sVresponders
p757
I1075
sVicp
p758
I761
sVlevel
p759
I728
sVdid
p760
I2673
sVp
I285
sVloads
p761
I1111
sVdependently
p762
I2722
sV1128
p763
I2043
sV3-month
p764
I2107
sVoscillation
p765
I814
sVpms
p766
I413
sVmir-27b-3p
p767
I2333
sVmeasurable
p768
I1124
sVcost
p769
I37
sVdried
p770
I34
sVbacterial
p771
I1106
sVtargets
p772
I1093
sVmhcii
p773
I855
sVmir-139
p774
I2906
sVscaffold
p775
I715
sVt2d
p776
I2078
sVcurrent
p777
I1340
sV300
p778
I2759
sVphosphatase
p779
I743
sV529
p780
I395
sVsupporting
p781
I101
sVefficacious
p782
I467
sValkaline
p783
I742
sVgenes
p784
I748
sVp2ry12
p785
I1122
sVunderstanding
p786
I1775
sVcvb3-specific
p787
I924
sVgroups
p788
I66
sVrplnd
p789
I2915
sV[
I600
sVstem
p790
I709
sVchange
p791
I1984
sVhealthy
p792
I89
sVshift
p793
I1738
sVstudied
p794
I797
sVdublin
p795
I2833
sVsomatic
p796
I1795
sVboi
p797
I2650
sVthroughput
p798
I2586
sVdiagnosed
p799
I1185
sVjaw
p800
I738
sVusually
p801
I1633
sVresonance
p802
I1539
sVhbv
p803
I2368
sVstudies
p804
I1160
sVfbs
p805
I2707
sVmimicked
p806
I1852
sVuseful
p807
I153
sVoligodendrocytes
p808
I872
sVextra
p809
I2764
sVinducing
p810
I1788
sVregeneration
p811
I721
sVmarked
p812
I1463
sVcontrols
p813
I284
sVmarker
p814
I747
sV2/3
p815
I2717
sVpositive
p816
I623
sVca1
p817
I1844
sVtnbs
p818
I1613
sVretinopathy
p819
I491
sVlive
p820
I754
sVmemory
p821
I1360
sVenriched
p822
I828
sVischemia
p823
I2592
sVischemic
p824
I565
sVvalidity
p825
I344
sVantigens
p826
I2202
sVvisual
p827
I1472
sVtandem
p828
I2859
sVmicrotubules
p829
I330
sVcases
p830
I1658
sVcar
p831
I2098
sVibd
p832
I1377
sVmodified
p833
I411
sV0.429
p834
I2644
sVvalues
p835
I1032
sVcan
p836
I13
sVfollowing
p837
I1255
sVtrans
p838
I1817
sVcaf
p839
I821
sVstimulating
p840
I1180
sVphosphor
p841
I1892
sVheart
p842
I362
sVpredict
p843
I142
sVfenofibrate
p844
I416
sVendonuclease
p845
I1690
sVagent
p846
I1548
sVsample
p847
I587
sVstroke
p848
I570
sVperformed
p849
I976
sVlysosomes
p850
I249
sVadherens
p851
I1600
sVcounting
p852
I2808
sVserum
p853
I163
sVlitre
p854
I2838
sVlipoproteins
p855
I2563
sVorganizes
p856
I1593
sVrequirements
p857
I1227
sVseptic
p858
I144
sVchondrogenic
p859
I746
sVrange
p860
I1497
sVfibrillary
p861
I1466
sVimmune
p862
I116
sVvital
p863
I291
sVcardinal
p864
I1985
sVabsolute
p865
I1910
sVpathway
p866
I216
sVetched
p867
I1701
sVcerebrovasculature
p868
I1173
sVproduct
p869
I1294
sVmay
p870
I141
sVsp2
p871
I2446
sVsnm
p872
I2536
sVclonally
p873
I386
sVxcl1
p874
I848
sV0.70
p875
I2877
sVsnr
p876
I1461
sVvalue
p877
I1736
sVsnp
p878
I1370
sVimproving
p879
I154
sVsuch
p880
I1469
sVrevealed
p881
I566
sVmao
p882
I1709
sVtimes
p883
I2467
sVstress
p884
I219
sVwaist
p885
I2672
sVcorrelate
p886
I1283
sVdevd
p887
I1008
sVsclerosis
p888
I984
sVtriglyceride
p889
I426
sVst
p890
I2452
sVafrican
p891
I1654
sVhematopoietic
p892
I1758
sVibsm
p893
I2401
sVcutoff
p894
I2758
sVttr
p895
I2269
sVmainly
p896
I850
sVyears
p897
I396
sVstability
p898
I1508
sVbrain
p899
I581
sVexperiments
p900
I1591
sVnitrogen
p901
I2769
sVcold
p902
I2505
sVstill
p903
I2502
sVobservational
p904
I2826
sVsupplemented
p905
I1223
sVrecombinant
p906
I574
sVgroup
p907
I415
sVaplastic
p908
I2632
sVsafety
p909
I2603
sVfluorodeoxyglucose
p910
I2924
sVvicinity
p911
I1596
sVdecreases
p912
I1061
sVplatform
p913
I2862
sVoffers
p914
I1092
sVdecreased
p915
I424
sVsnu-81
p916
I1878
sVuptake
p917
I1036
sVrelapsed
p918
I1948
sVnon
p919
I1322
sVlow-
p920
I2812
sVthereby
p921
I2068
sVgray
p922
I2516
sVfetoprotein
p923
I2560
sViba-1
p924
I1125
sVwarranted
p925
I1392
sVchemokines
p926
I1129
sVrhogap1
p927
I677
sVnot
p928
I103
sVmetabolite
p929
I2895
sVkilled
p930
I756
sVmaintaining
p931
I1208
sVmatched
p932
I1799
sVlineage
p933
I858
sVsusceptibility
p934
I1097
sVcd133
p935
I1574
sVccl4
p936
I1131
sVcognition
p937
I57
sVproteins
p938
I640
sVpurinoceptor
p939
I2235
sVcadm1
p940
I853
sV4-hne
p941
I1285
sVweighted
p942
I1751
sVsignificantly
p943
I417
sVcitraconic
p944
I2873
sVdirecting
p945
I335
sVerythrocytes
p946
I2194
sVbovine
p947
I2706
sVchallenges
p948
I2408
sVprognosis
p949
I2356
sVghrelin
p950
I1282
sVyear
p951
I2879
sVmethotrexate
p952
I2377
sVexogenously
p953
I1853
sVer
p954
I1345
sVshown
p955
I1220
sVhct
p956
I591
sVfactors
p957
I437
sVpoct
p958
I1909
sVincrease
p959
I539
sVhcc
p960
I1356
sVcontained
p961
I314
sVinvestigation
p962
I2385
sVp<0.005
p963
I970
sVsuggesting
p964
I461
sVpurine
p965
I2876
sV1.928
p966
I2381
sVsimes
p967
I2443
sVoxidized
p968
I2317
sVneuromodulatory
p969
I276
sVarthritis
p970
I202
sVvariant
p971
I1266
sVmechanisms
p972
I277
sVdiagnostic
p973
I1404
sVibai
p974
I2061
sVadvantages
p975
I2584
sVe8
p976
I774
sV360-fold
p977
I1100
sVgoldengate
p978
I1669
sVnf-b
p979
I1688
sVcare
p980
I1907
sVtraining
p981
I1890
sVmethylation
p982
I148
sV5/6nx
p983
I1192
sV0.836
p984
I2360
sVturn
p985
I1771
sV119.86
p986
I2889
sVmassive
p987
I2173
sVfirst
p988
I376
sVorigin
p989
I1796
sV620
p990
I1889
sVsurviving
p991
I2522
sVdistal
p992
I549
sVvariables
p993
I2201
sVnutritional
p994
I2120
sVcomprised
p995
I2206
sVhpscs
p996
I770
sVp1np
p997
I1378
sVamericans
p998
I1655
sVspecifically
p999
I750
sVyb-1
p1000
I182
sVimpossible
p1001
I2491
sVarray
p1002
I1670
sVopen
p1003
I2599
sV1.94pg
p1004
I2885
sVfmri
p1005
I1742
sVlittle
p1006
I1044
sVgenotype
p1007
I2053
sVtrisodium
p1008
I1556
sVbite
p1009
I2410
sVfibrinogen
p1010
I2951
sVfmr
p1011
I2976
sVfms
p1012
I1408
sVstimulation
p1013
I794
sV2
I65
sVfmk
p1014
I1009
sVadenocarcinoma
p1015
I1581
sVnsclc
p1016
I1040
sV3.6-fold
p1017
I1433
sVapoptotic
p1018
I2174
sVthat
p1019
I6
sVvav2
p1020
I2152
sVreleased
p1021
I159
sVbaja
p1022
I2743
sVcopy
p1023
I1144
sVthan
p1024
I283
sVpopulation
p1025
I2114
sV11
p1026
I2908
sV10
p1027
I2096
sV12
p1028
I1798
sV15
p1029
I1672
sVendoplasmic
p1030
I1343
sV18
p1031
I282
sVr
I1524
sV1%
p1032
I207
sVwere
p1033
I47
sVoutcome
p1034
I488
sVdiastolic
p1035
I768
sVand
p1036
I33
sVremained
p1037
I634
sVcorrection
p1038
I459
sVastrocytes
p1039
I220
sVprp
p1040
I1631
sVinhibiting
p1041
I1787
sVptpl1
p1042
I676
sVany
p1043
I713
sVconversion
p1044
I1249
sVdate
p1045
I2038
sVtranscription
p1046
I436
sVrrmm
p1047
I1840
sVzol
p1048
I734
sVhpv-18
p1049
I2292
sVpotential
p1050
I783
sVobjective
p1051
I2935
sVperformance
p1052
I349
sVclbalf
p1053
I131
sVimpairment
p1054
I2169
sVchannel
p1055
I2697
sV200
p1056
I197
sVmultiple
p1057
I983
sV4-pba
p1058
I2677
sVtrace
p1059
I2760
sVnormal
p1060
I817
sVdecreasing
p1061
I2705
sVinkt
p1062
I1644
sVtelomere
p1063
I1995
sVimportantly
p1064
I1365
sV]
I602
sV0,019
p1065
I2649
sVputatively
p1066
I1162
sVinterleukin-6-dependent
p1067
I835
sVespecially
p1068
I1943
sVaverage
p1069
I944
sVinfections
p1070
I1042
sVgdna
p1071
I23
sVtrafficking
p1072
I324
sVsubsequent
p1073
I503
sVsalt
p1074
I552
sVdrastically
p1075
I1024
sVshot
p1076
I326
sVshow
p1077
I377
sVsynchronous
p1078
I1452
sVfifty
p1079
I2524
sVdiscovered
p1080
I1366
sVmri
p1081
I1542
sVsustained
p1082
I729
sVline
p1083
I752
sVfifth
p1084
I227
sVdeci
p1085
I2369
sVoverexpressed
p1086
I2256
sVotic
p1087
I804
sVulcers
p1088
I2597
sVratio
p1089
I530
sVca199
p1090
I1611
sV3
I200
sV/cd117
p1091
I789
sVonly
p1092
I204
sVactin
p1093
I329
sVlipids
p1094
I1394
sVtransfusions
p1095
I2665
sVextracellular
p1096
I1547
sVhtg
p1097
I968
sVquartiles
p1098
I963
sVperitoneal
p1099
I1453
sVsciatic
p1100
I2249
sVdelivery
p1101
I2133
sVprimates
p1102
I2525
sVssc
p1103
I1781
sVsecondary
p1104
I161
sVreveal
p1105
I1303
sVglutathione
p1106
I2318
sVsettings
p1107
I630
sVfetuses=0.919
p1108
I2872
sVmedian
p1109
I1103
sVsummary
p1110
I956
sVsubtype
p1111
I2234
sVpredicted
p1112
I295
sVhr=19.96
p1113
I2887
sVwhere
p1114
I325
sVvision
p1115
I504
sVburst
p1116
I792
sV5.49
p1117
I2778
sVrelative
p1118
I1358
sVnamely
p1119
I2261
sVactively
p1120
I948
sVjapan
p1121
I2846
sVsurgery
p1122
I2259
sVcortisol
p1123
I299
sVpermeates
p1124
I1772
sVdetect
p1125
I114
sVinhibitory
p1126
I908
sVcompounds
p1127
I2102
sVrepertoires
p1128
I1302
sVcirculating
p1129
I1033
sVlabel
p1130
I2600
sVvaccines
p1131
I2405
sV0.020
p1132
I1385
sVmetabolites
p1133
I1856
sV0.022
p1134
I1612
sVtelopeptides
p1135
I1930
sVbetween
p1136
I64
sVcancers
p1137
I1039
sVpsoriatic
p1138
I208
sVmosmol.kg
p1139
I1734
sVoxidizing
p1140
I934
sV5.96e-10
p1141
I1372
sV0.154
p1142
I2359
sVanalyzer
p1143
I1940
sVkilling
p1144
I1099
sVcaveolae
p1145
I2008
sVconcentrate
p1146
I2607
sVanalyzed
p1147
I1855
sVarticle
p1148
I893
sVanalyzes
p1149
I2805
sVsuppressed
p1150
I1786
sV21
p1151
I1969
sVreaction
p1152
I2535
sVgwg
p1153
I2127
sVresides
p1154
I1528
sVmany
p1155
I780
sVregion
p1156
I2811
sVinvariable
p1157
I636
sVs
I1668
sVberghofer
p1158
I2422
sVarginine
p1159
I2462
sVdka
p1160
I302
sVexpression
p1161
I423
sVtmao
p1162
I2105
sVhta
p1163
I974
sVamong
p1164
I849
sVafterwards
p1165
I989
sVcancer
p1166
I120
sVcharacterization
p1167
I2486
sVwithin
p1168
I2310
sVcolony
p1169
I1179
sVperiod
p1170
I312
sVbiofilm
p1171
I2451
sV60
p1172
I1434
sVanti
p1173
I1971
sVlearning
p1174
I2036
sVmoreover
p1175
I612
sVamino
p1176
I2897
sVconsidering
p1177
I88
sVtumour
p1178
I1979
sVakr1b10
p1179
I2559
sVlncrna
p1180
I2494
sVbevacizumab
p1181
I1243
sV50%
p1182
I2763
sVabsence
p1183
I366
sVpicomolar
p1184
I2939
sVdefined
p1185
I2757
sVcombined
p1186
I833
sV1.323.14
p1187
I1577
sV509
p1188
I2309
sV500
p1189
I72
sVenable
p1190
I2412
sVisomerase
p1191
I2266
sVbmi
p1192
I764
sVstemi
p1193
I2456
sVdramatic
p1194
I1974
sVexternal
p1195
I2448
sVthose
p1196
I444
sVpilot
p1197
I2844
sVcase
p1198
I2308
sVshaft
p1199
I2449
sVdeveloping
p1200
I98
sVthese
p1201
I710
sVprofiles
p1202
I1269
sVrefractory
p1203
I1947
sVsplenomegaly
p1204
I2625
sVunreported
p1205
I2054
sVprofiled
p1206
I1647
sVhilic
p1207
I2861
sVhdl
p1208
I875
sVive
p1209
I1603
sVendothelial
p1210
I1818
sVfetuses
p1211
I2905
sVprevalence
p1212
I966
sVsox10
p1213
I1235
sVcharacteristics
p1214
I54
sVzucker
p1215
I2374
sVmiddle
p1216
I2079
sVhex)3(hexnac)5(fuc)1(neu5ac)1
p1217
I2033
sVsamr1
p1218
I2035
sVprotein
p1219
I422
sVtechnology
p1220
I177
sVcreatinine
p1221
I1148
sVupregulation
p1222
I110
sVdifferent
p1223
I664
sVimmunocytochemical
p1224
I1826
sVchromatography
p1225
I2858
sVmedia
p1226
I776
sVsame
p1227
I136
sVfdr<5%
p1228
I1373
sVmicroarray
p1229
I2135
sVvs.a
p1230
I2653
sVpad
p1231
I1839
sVgadofosveset
p1232
I1555
sVpah
p1233
I699
sVconstriction
p1234
I2248
sVgfap
p1235
I1211
sVevents
p1236
I895
sVweek
p1237
I1988
sVinvestigated
p1238
I1030
sVsingapore
p1239
I2311
sVfoam
p1240
I2431
sVsb203580
p1241
I1006
sVdiscriminate
p1242
I1070
sVcosta
p1243
I2528
sVantibodies
p1244
I192
sVd1r
p1245
I1214
sVlargely
p1246
I635
sVlavage
p1247
I127
sVzeb1
p1248
I440
sVquinone
p1249
I2900
sVuht
p1250
I1681
sVccl
p1251
I545
sVsevere
p1252
I561
sVwithout
p1253
I538
sVcci
p1254
I687
sVcomponents
p1255
I955
sVmodel
p1256
I688
sVlaboratories
p1257
I1353
sVgwas
p1258
I1375
sVbeing
p1259
I287
sVwhen
p1260
I1114
sVadjusted
p1261
I2774
sVactions
p1262
I241
sV219
p1263
I79
sVunclear
p1264
I2287
sVwomen=0.812
p1265
I2871
sVproximal
p1266
I341
sVdifferentiation
p1267
I868
sVunivariate
p1268
I758
sVhomeostasis
p1269
I1209
sVsubsequently
p1270
I1838
sVoverlapped
p1271
I2064
sVblot
p1272
I1828
sVbpca
p1273
I1554
sVangiotensin
p1274
I998
sVadulterated
p1275
I950
sVfvc
p1276
I293
sVexcept
p1277
I2499
sVcaecum
p1278
I547
sVtreatment
p1279
I222
sVsamples
p1280
I32
sVimmunosorbent
p1281
I1438
sVextensive
p1282
I1944
sVca
p1283
I1544
sVo157:h7
p1284
I881
sV75
p1285
I1416
sVaround
p1286
I331
sVkills
p1287
I2938
sVpolymorphonuclear
p1288
I2946
sVpsa
p1289
I2702
sVearly
p1290
I155
sVtest
p1291
I2579
sVinhibition
p1292
I2675
sVcuprizone
p1293
I2724
sVprovided
p1294
I2742
sVaccepted
p1295
I1374
sVcalculate
p1296
I2975
sV-glycan
p1297
I1487
sVhistopathology
p1298
I2093
sVacute
p1299
I1491
sVaqueous
p1300
I2322
sVreduces
p1301
I809
sVeither
p1302
I1216
sVpropria
p1303
I521
sValways
p1304
I1922
sVcolon
p1305
I550
sVdifferentially
p1306
I669
sVepitope
p1307
I195
sValbuminuria
p1308
I2581
sVexposed
p1309
I1052
sVhydrophilic
p1310
I2857
sVtranswells
p1311
I1057
sVibuprofen
p1312
I2663
sVduration
p1313
I2349
sVsubtypes
p1314
I662
sVinterleukin
p1315
I2182
sV379
p1316
I1426
sVcavity
p1317
I1454
sVtongji
p1318
I2304
sVfluids
p1319
I2016
sVpathogenesis
p1320
I2070
sVregenerative
p1321
I2788
sVil-4
p1322
I169
sVcritical
p1323
I1883
sVhydroxybenzoate
p1324
I2875
sVexpressing
p1325
I1842
sVfasudil
p1326
I1167
sVcd11b
p1327
I856
sVmeasuring
p1328
I157
sVnmr
p1329
I1858
sVpower
p1330
I810
sVuterine
p1331
I2389
sVk562
p1332
I2276
sVtdb
p1333
I2937
sVdissection
p1334
I2914
sVsedimentation
p1335
I605
sVmetabotrophic
p1336
I2511
sVsixty
p1337
I1246
sVcholestatic
p1338
I2143
sVontology
p1339
I2564
sVearlier
p1340
I2865
sVon
p1341
I44
sVcentral
p1342
I1013
sVenzymatic
p1343
I2721
sVof
p1344
I61
sVcodependence
p1345
I1661
sVtumor
p1346
I158
sVacr
p1347
I2583
sVacp
p1348
I700
sV0.034
p1349
I2960
sVchow
p1350
I1683
sVconcentrations
p1351
I427
sVantibody
p1352
I727
sVor
p1353
I233
sVhypoperfusion
p1354
I1748
sVpurported
p1355
I1705
sVbmscs
p1356
I737
sV\u000a
I67
sVspinal
p1357
I1117
sVinvolvement
p1358
I482
sVdetermine
p1359
I212
sVharrell
p1360
I2891
sVgarp
p1361
I2968
sVintervention
p1362
I2458
sVvdbp
p1363
I2258
sVarea
p1364
I1845
sVassumed
p1365
I497
sVthere
p1366
I46
sVcultured
p1367
I771
sVgeneration
p1368
I1456
sVmdm2/p53
p1369
I800
sVlow
p1370
I705
sVsecretion
p1371
I559
sVoligodendrocyte
p1372
I457
sVcultures
p1373
I2472
sVtyrosine
p1374
I1409
sVplatelets
p1375
I2664
sVcomplete
p1376
I621
sVsecreted
p1377
I2785
sVdelayed
p1378
I1153
sVposterior
p1379
I2652
sVlymph
p1380
I480
sVelimination
p1381
I1029
sVmethodologies
p1382
I2750
sVmice
p1383
I922
sVplgf
p1384
I1407
sVwith
p1385
I83
sVregimen
p1386
I1674
sVcirculation
p1387
I2195
sVschs
p1388
I2313
sVattenuate
p1389
I2674
sVdoxorubicin
p1390
I1955
sVcalgranulin
p1391
I1867
sV18.9-
p1392
I1196
sVpolymorphisms
p1393
I1476
sVqimr
p1394
I2421
sV5-year
p1395
I311
sVautoimmune
p1396
I2797
sVad
p1397
I1659
sVtransporters
p1398
I2172
sVdoses
p1399
I725
sVmetastasis
p1400
I626
sVacetate
p1401
I2681
sVgeneral
p1402
I53
sVimmunoprecipitation
p1403
I1588
sVas
p1404
I198
sVhypertension
p1405
I1387
sVat
p1406
I308
sVlaboratory
p1407
I2691
sVrepsox
p1408
I1230
sVintra
p1409
I332
sV4.5
p1410
I1155
sV8-isoprostanes
p1411
I1287
sVbilirubin
p1412
I962
sVhybrid
p1413
I1621
sVigg
p1414
I191
sVige
p1415
I1256
sV5
I1646
sVstorages
p1416
I1505
sVpoor
p1417
I615
sVgermline
p1418
I1143
sVformed
p1419
I1625
sVnoncoding
p1420
I2493
sVseparate
p1421
I2687
sVeaec
p1422
I1622
sVincludes
p1423
I826
sVretrospectively
p1424
I179
sVimportant
p1425
I557
sVnucleus
p1426
I897
sVelastase
p1427
I2947
sVincluded
p1428
I1989
sVproteomic
p1429
I1834
sVpool
p1430
I1553
sVcytotoxicity
p1431
I706
sVgastric
p1432
I1314
sVclinically
p1433
I2117
sVcasts
p1434
I2679
sVodds
p1435
I2380
sVacids
p1436
I560
sVcurve
p1437
I2332
sVexcretion
p1438
I2433
sVinhibited
p1439
I937
sVmass
p1440
I1726
sVquantify
p1441
I2149
sVcallosum
p1442
I63
sVsignalling
p1443
I215
sVrepresent
p1444
I264
sVall
p1445
I78
sVinfluenza
p1446
I2140
sVchinese
p1447
I1863
sVpth
p1448
I173
sVcaused
p1449
I1079
sVatheroprotection
p1450
I2425
sVlack
p1451
I837
sVpreparations
p1452
I2074
sVculturing
p1453
I778
sVadeno
p1454
I575
sVviability
p1455
I2271
sVptx
p1456
I1116
sVfollow
p1457
I2966
sValt
p1458
I1789
sVchildren
p1459
I301
sValp
p1460
I744
sVosteoporosis
p1461
I1929
sVnested
p1462
I2307
sV 
I2796
sVchain
p1463
I2534
sVpretreatment
p1464
I1698
sVremoval
p1465
I2193
sVto
p1466
I16
sVti
p1467
I1694
sVtg
p1468
I2089
sVnodes
p1469
I1142
sVcrest
p1470
I1225
sVaxonal
p1471
I333
sVcdna
p1472
I682
sVmpe
p1473
I1425
sVreturned
p1474
I1187
sVvery
p1475
I1951
sVapoptosis
p1476
I217
sVfap
p1477
I2141
sVg6pd
p1478
I409
sVfat
p1479
I358
sVresistance
p1480
I2003
sVvera
p1481
I2623
sVfak
p1482
I1814
sVmyeloperoxidase
p1483
I938
sVtranscriptome
p1484
I972
sVfall
p1485
I2779
sVln
p1486
I2547
sVdifference
p1487
I1530
sVvero
p1488
I1110
sVsandblasted
p1489
I1700
sVneurological
p1490
I1925
sVdeficient
p1491
I259
sVtroponin
p1492
I2837
sVri
p1493
I1811
sVlarge
p1494
I691
sVhet0016
p1495
I1432
sVpbc
p1496
I2803
sVsmall
p1497
I540
sVbiological
p1498
I2842
sVepidemiological
p1499
I2685
sVpathologic
p1500
I620
sVemploying
p1501
I834
sVrats
p1502
I537
sVten
p1503
I987
sVnbs
p1504
I1272
sVtea
p1505
I2661
sV197
p1506
I1490
sV196
p1507
I1663
sV190
p1508
I196
sVrate
p1509
I606
sVdesign
p1510
I1405
sVpremature
p1511
I1350
sVfurther
p1512
I1221
sVcanonical
p1513
I2695
sVsub
p1514
I1608
sVtrisulfide
p1515
I2319
sVlocalization
p1516
I1884
sVpic1
p1517
I936
sVcd91
p1518
I1023
sVsuv
p1519
I2974
sVexcitatory
p1520
I894
sVsur
p1521
I2745
sVfractional
p1522
I1532
sVcotransporter
p1523
I1872
sVmethod
p1524
I12
sVcontrast
p1525
I1536
sVcohorts
p1526
I947
sVcd71
p1527
I2222
sVmalaria
p1528
I2400
sVcomponent
p1529
I2007
sVdipstick
p1530
I2578
sVhours
p1531
I1156
sVselective
p1532
I1841
sVoperating
p1533
I2959
sVnovember
p1534
I403
sVnedd9
p1535
I472
sVsearch
p1536
I2225
sVstriatum
p1537
I1213
sVdesmin
p1538
I2025
sVlosses
p1539
I1729
sVprion
p1540
I1630
sV~~[[1
p1541
I22
sVprior
p1542
I2450
sVbreakdown
p1543
I499
sVpick
p1544
I256
sVaction
p1545
I2241
sVvs.as
p1546
I2658
sVintratumoral
p1547
I2397
sVpathological
p1548
I1759
sVcystic
p1549
I939
sVgranulocyte
p1550
I1178
sVvia
p1551
I390
sVfamily
p1552
I845
sVnasopharyngeal
p1553
I2952
sVegfr
p1554
I451
sVaimed
p1555
I1945
sVsmad
p1556
I2716
sVinorganic
p1557
I1936
sVestablish
p1558
I237
sVdetecting
p1559
I1747
sVconventional
p1560
I597
sVtakes
p1561
I2510
sVdistinct
p1562
I659
sVcd163
p1563
I1021
sVcoupled
p1564
I663
sVtwo
p1565
I313
sV85%
p1566
I889
sV6
I1973
sVtaken
p1567
I588
sVastrocytic
p1568
I2236
sVinjury
p1569
I690
sV0.003
p1570
I2278
sV0.002
p1571
I2589
sV0.001
p1572
I1578
sVmore
p1573
I731
sVproliferative
p1574
I841
sVfucosylated
p1575
I2735
sVtested
p1576
I2001
sVlipoprotein
p1577
I915
sVvarying
p1578
I1830
sVh19
p1579
I568
sVanticoagulated
p1580
I1520
sVdeh
p1581
I1735
sVindicating
p1582
I2904
sVerythropoiesis
p1583
I2628
sVillumina
p1584
I1667
sVspontaneous
p1585
I2220
sVhistory
p1586
I2671
sVspearman
p1587
I2214
sVcompare
p1588
I1510
sVprotects
p1589
I1012
sVnumbers
p1590
I1793
sVmolecularly
p1591
I658
sVspecies
p1592
I1993
sV5.5
p1593
I1384
sVrather
p1594
I2556
sVmapk
p1595
I455
sVcsf
p1596
I450
sValpha-1-macroglobulin
p1597
I2257
sVnoninvasive
p1598
I2334
sVgoat
p1599
I2571
sVpbdl
p1600
I2146
sVmesenchymal
p1601
I708
sVanxa5
p1602
I1592
sVprognostic
p1603
I483
sVhemangiogenesis
p1604
I2387
sVderived
p1605
I667
sVtreatments
p1606
I1697
sVfungus
p1607
I1715
sVfa
p1608
I59
sVfe
p1609
I2210
sVinvasion
p1610
I1108
sVccl11
p1611
I1130
sVphosl
p1612
I2737
sVresponse
p1613
I117
sVa
I9
sVhaematocrit
p1614
I2221
sVbiomarker
p1615
I585
sV)
I25
sVfundamental
p1616
I1206
sVextramedullary
p1617
I2627
sVhfd
p1618
I414
sVgit2ko
p1619
I2930
sVturnover
p1620
I649
sVdeveloped
p1621
I1894
sVfingolimod
p1622
I1763
sVurine
p1623
I139
sVmucosa
p1624
I1616
sVpaper
p1625
I401
sVthrough
p1626
I660
sVameliorated
p1627
I2229
sVsigns
p1628
I1926
sVlevamisole
p1629
I949
sVits
p1630
I239
sVcardiovascular
p1631
I2285
sV24
p1632
I696
sV20
p1633
I2466
sVif1
p1634
I873
sV22
p1635
I2762
sVpcr
p1636
I1825
sVpcs
p1637
I494
sVlateral
p1638
I1893
sVcholestasis
p1639
I562
sV28
p1640
I300
sV29
p1641
I1440
sVpct
p1642
I2944
sV2%
p1643
I2710
sVdetected
p1644
I77
sVpci
p1645
I2840
sVinterleukin-4
p1646
I1136
sVbryostatin
p1647
I1169
sVinterleukin-6
p1648
I838
sVpcb
p1649
I2843
sVmight
p1650
I1861
sVosteogenic
p1651
I745
sVgood
p1652
I1507
sVlumbar
p1653
I1919
sVentire
p1654
I2965
sVfood
p1655
I2375
sVpropose
p1656
I322
sVimmunolabeling
p1657
I1460
sVwalls
p1658
I496
sVcompound
p1659
I1331
sVretroperitoneal
p1660
I2913
sVintranasal
p1661
I2138
sVcrohn
p1662
I2046
sVassociation
p1663
I181
sVsubunit
p1664
I1876
sVifp
p1665
I2394
sVpregnant
p1666
I1414
sVfully
p1667
I1276
sVsb431542
p1668
I1832
sVrhcygb
p1669
I2084
sVbasophils
p1670
I1250
sVfound
p1671
I526
sVcharacterized
p1672
I1754
sVreactions
p1673
I2162
sVweight
p1674
I532
sVgfr
p1675
I1146
sVfish
p1676
I1958
sVnktt120
p1677
I1261
sVoncogenic
p1678
I2289
sVmeasurement
p1679
I149
sVbeyond
p1680
I1154
sValcohol
p1681
I2087
sVhomeostatic
p1682
I1123
sVinducer
p1683
I1228
sV8-oh2dg
p1684
I1991
sVresearch
p1685
I2364
sVparticipants
p1686
I2346
sV8-hydroxy-2-deoxyguanosine
p1687
I1990
sVhealth
p1688
I2312
sVsyb-1
p1689
I2761
sV7
I589
sVinduced
p1690
I433
sVevaluation
p1691
I1671
sVoccurs
p1692
I2823
sVsbp
p1693
I2340
sVast
p1694
I1790
sV3.03
p1695
I2783
sVupon
p1696
I2137
sVconfidence
p1697
I2382
sVcaspase
p1698
I2180
sVlamina
p1699
I520
sVcandesartan
p1700
I1168
sVimaging
p1701
I1540
sVsla
p1702
I1702
sVmmd
p1703
I2496
sVbeginning
p1704
I2128
sVdexamethasone
p1705
I1956
sVbenefits
p1706
I2920
sVxenograft
p1707
I832
sVcircumference
p1708
I2660
sVperceptible
p1709
I1628
sVbut
p1710
I890
sV2059
p1711
I399
sVconducted
p1712
I211
sVelective
p1713
I2839
sVparg1
p1714
I678
sVexhibited
p1715
I1866
sVadduct
p1716
I1286
sVmajor
p1717
I1773
sVxmap
p1718
I176
sVencoding
p1719
I1572
sVtgf-
p1720
I445
sVnumber
p1721
I1145
sVcd68
p1722
I2165
sVdone
p1723
I1923
sVdfs
p1724
I2280
sVina-6
p1725
I836
sVse)=0.085
p1726
I2894
sVoverlap
p1727
I2270
sVprohibitively
p1728
I2489
sVconditioning
p1729
I1804
sVhorse
p1730
I1713
sVjev
p1731
I1048
sVgpi
p1732
I1636
sVmulticenter
p1733
I1886
sVleading
p1734
I2245
sVst.
p1735
I2830
sVthreatening
p1736
I505
sVleast
p1737
I730
sVregulation
p1738
I118
sVhundred
p1739
I2523
sVrelationship
p1740
I2027
sVpump
p1741
I554
sVbowel
p1742
I2042
sVretinal
p1743
I2158
sVprediction
p1744
I2124
sVsera
p1745
I73
sVdifferentiate
p1746
I1946
sVauthors
p1747
I2503
sVtranslation
p1748
I2243
sVbelieve
p1749
I2240
sVpostulate
p1750
I1765
sVneuropathic
p1751
I2246
sVmolecular
p1752
I374
sV18f
p1753
I2923
sVchmi
p1754
I2411
sVdouble
p1755
I1459
sVgadoterate
p1756
I1550
sV1.623.52
p1757
I1580
sVexcitability
p1758
I671
sVaims
p1759
I508
sV0.018
p1760
I2590
sV0.019
p1761
I2384
sVdetermined
p1762
I174
sVcysteine
p1763
I2314
sVaas
p1764
I1656
sVlectin
p1765
I1482
sVtoward
p1766
I340
sVtreated
p1767
I735
sVtie-2
p1768
I1401
sVprocedural
p1769
I2554
sVglobulin
p1770
I529
sVlncrnas
p1771
I1325
sVdendritic
p1772
I863
sVconcentration
p1773
I906
sVaged
p1774
I1862
sVorgans
p1775
I2926
sVimmunoassay
p1776
I392
sVcfu
p1777
I882
sVbuilt
p1778
I2916
sVq1
p1779
I2869
sVunprocessed
p1780
I27
sVlin
p1781
I859
sVonset
p1782
I304
sVextracted
p1783
I1085
sVgeneralized
p1784
I2198
sVdonor
p1785
I1801
sVproline
p1786
I2464
sVnlr
p1787
I1914
sVplay
p1788
I2566
sVcaliber
p1789
I2160
sVcck
p1790
I1847
sVmeasures
p1791
I2037
sVgio
p1792
I2756
sV77
p1793
I1835
sVmost
p1794
I1903
sVsmbl
p1795
I1483
sV72
p1796
I2219
sVsignificant
p1797
I49
sVyangtze
p1798
I2568
sValpha
p1799
I166
sVmeasured
p1800
I183
sVlrba
p1801
I1328
sVcause
p1802
I498
sVkg
p1803
I1643
sVtpa
p1804
I1158
sVcorpus
p1805
I62
sVko
p1806
I2110
sVmannose
p1807
I1480
sVfossa
p1808
I2651
sVnotch
p1809
I448
sVraav
p1810
I578
sVsignaling
p1811
I1226
sVdepurinized
p1812
I1675
sVhyper
p1813
I1809
sVparticularly
p1814
I1316
sVblended
p1815
I712
sVperfused
p1816
I1534
sVrelation
p1817
I1031
sVmalignant
p1818
I1083
sVdongfeng
p1819
I2303
sVfind
p1820
I2253
sVcadherin
p1821
I1237
sVimpact
p1822
I686
sVreminiscent
p1823
I2634
sVindicator
p1824
I2119
sVaggravate
p1825
I544
sVglycine
p1826
I2469
sVparameters
p1827
I484
sVnervous
p1828
I1014
sVmicroporosities
p1829
I717
sVincidence
p1830
I2399
sVbrisbane
p1831
I2423
sVenzyme
p1832
I391
sVsymptom
p1833
I1927
sVfactor
p1834
I165
sV8
I773
sVnecrotic
p1835
I2175
sVproteasome
p1836
I1836
sVkainate
p1837
I811
sVcholera
p1838
I1258
sVexpress
p1839
I1565
sVbiopsy
p1840
I2704
sVcd4
p1841
I512
sVcd5
p1842
I383
sVb
I371
sVvaluable
p1843
I2555
sVcd3
p1844
I511
sVduring
p1845
I1248
sVcd8
p1846
I1361
sVfeeder
p1847
I777
sVcrp
p1848
I610
sVspikes
p1849
I269
sVshowed
p1850
I790
sVtumors
p1851
I1559
sVtransferrin
p1852
I2353
sVcrc
p1853
I1557
sVinvestigate
p1854
I509
sVlogistic
p1855
I2666
sVactivity
p1856
I278
sVriver
p1857
I2569
sV53.9-
p1858
I1199
sVmultiplex
p1859
I2187
sVset
p1860
I1887
sVseq
p1861
I2587
sVachieved
p1862
I1950
sVorgan
p1863
I2099
sVopposing
p1864
I1706
sVpotent
p1865
I2283
sVsex
p1866
I763
sVroc
p1867
I2331
sVculture
p1868
I816
sVpvd
p1869
I2595
sVmediators
p1870
I2786
sVgenomic
p1871
I19
sV2.0
p1872
I975
sVarm
p1873
I2601
sV2.5
p1874
I1731
sVtranscriptomic
p1875
I654
sVcurrently
p1876
I2855
sV15,575
p1877
I2345
sVplatelet
p1878
I1912
sVvarious
p1879
I474
sVvascular
p1880
I506
sVacidic
p1881
I1467
sVcilostazol
p1882
I1166
sVseeded
p1883
I1693
sVprofiling
p1884
I977
sVrecently
p1885
I2418
sVresponses
p1886
I617
sVtargeted
p1887
I1334
sVcomplement
p1888
I1098
sVulcerative
p1889
I2049
sVincident
p1890
I2077
sVdeath
p1891
I2773
sVvesicles
p1892
I339
sV3.4-fold
p1893
I945
sValters
p1894
I2242
sVboth
p1895
I1026
sVc
I608
sV0.013
p1896
I2216
sVimproved
p1897
I825
sVinterstitial
p1898
I2393
sVsputum
p1899
I941
sVpdx
p1900
I2388
sVtrimethylamine
p1901
I2103
sVk
I665
sVfluoro-2-deoxyglucose
p1902
I1034
sVwhole
p1903
I369
sVhistamine
p1904
I2017
sVexperimental
p1905
I2542
sVpd98059
p1906
I1004
sVpoint
p1907
I1906
sVsimple
p1908
I10
sVseems
p1909
I2654
sVdownregulated
p1910
I1238
sVdietary
p1911
I1673
sVagents
p1912
I1151
sVvessel
p1913
I495
sValong
p1914
I1479
sVlymphatics
p1915
I2398
sVpr
p1916
I2468
sVpt
p1917
I1699
sVintracellular
p1918
I2274
sVdue
p1919
I903
sVpb
p1920
I135
sVpc
p1921
I1297
sVreduction
p1922
I870
sVpa
p1923
I1766
sVmaintenance
p1924
I1776
sVpe
p1925
I1424
sVcollected
p1926
I402
sVpi
p1927
I1938
sVpn
p1928
I1607
sVpl
p1929
I2029
sV4
I2780
sVtg2
p1930
I2720
sVresting
p1931
I1740
sVnrm
p1932
I596
sVcovariance
p1933
I1380
sVphosphorus
p1934
I2011
sVdetermination
p1935
I1105
sVliver
p1936
I425
sVsystematic
p1937
I2040
sVra1067
p1938
I1096
sVreceive
p1939
I2301
sVstemness
p1940
I1980
sVhr]=1.07
p1941
I2880
sVbile
p1942
I551
sV3.3%
p1943
I2540
sVllcs
p1944
I1564
sVsolid
p1945
I2822
sVexpanded
p1946
I1513
sVevaluated
p1947
I307
sVprecursor
p1948
I1900
sVwhile
p1949
I632
sVadolescent
p1950
I2932
sVtnfrsf11b
p1951
I1064
sVerror
p1952
I2893
sVil-12p70
p1953
I1133
sV43%
p1954
I1964
sVsonic
p1955
I2203
sVbinding
p1956
I1481
sVducks
p1957
I1113
sVexpressions
p1958
I2588
sVneurons
p1959
I262
sV0.008
p1960
I2279
sVcornu
p1961
I2809
sVluminex
p1962
I175
sVresult
p1963
I564
sVdnase1-activity
p1964
I2794
sVcygb
p1965
I2168
sVbaseline
p1966
I1987
sVlipopolysaccharide
p1967
I2014
sVcytometry
p1968
I2460
sVelevated
p1969
I1183
sVcholinergic
p1970
I896
sVbenign
p1971
I1071
sVcolorectal
p1972
I1247
sVspe
p1973
I1427
sVresulting
p1974
I650
sVneoadjuvant
p1975
I628
sVfibrosis
p1976
I940
sVhigher
p1977
I279
sVdevelopment
p1978
I624
sVused
p1979
I15
sVfatty
p1980
I2507
sVsnail
p1981
I438
sVdomains
p1982
I2481
sVlevels
p1983
I234
sVpurpose
p1984
I178
sVcysssh
p1985
I2316
sVunrestrained
p1986
I1761
sVrobust
p1987
I11
sVcd205
p1988
I854
sVrecent
p1989
I904
sV0.59
p1990
I2727
sVlower
p1991
I527
sVsurrogate
p1992
I2656
sVsuccinylome
p1993
I1327
sVmyeloma
p1994
I1203
sVanalysis
p1995
I125
sVfeces
p1996
I883
sVsystolic
p1997
I1194
sVentry
p1998
I1711
sVprevention
p1999
I162
sVldh
p2000
I2209
sV-irradiated
p2001
I755
sV764
p2002
I1413
sVreviewed
p2003
I910
sVintervals
p2004
I2251
sVusing
p2005
I75
sVipf
p2006
I236
sValternative
p2007
I273
sVsscs
p2008
I1777
sVil-10
p2009
I2184
sVcut
p2010
I2954
sVsplenectomy
p2011
I2629
sVk2
p2012
I1518
sVadmission
p2013
I2417
sVhemopexin
p2014
I1022
sVbio
p2015
I1229
sVgvhd
p2016
I595
sVmicrorna
p2017
I1077
sVdemands
p2018
I356
sVevaluate
p2019
I180
sVrebound
p2020
I1722
sVsubmandibular
p2021
I1298
sVdeoxycorticosterone
p2022
I2680
sVemergence
p2023
I2713
sV0.995
p2024
I1525
sVknock
p2025
I2732
sVil-17a
p2026
I2884
sVd
I822
sVsemi
p2027
I2532
sVinterestingly
p2028
I1210
sVdisks
p2029
I1695
sVcomposited
p2030
I2896
sVbackground
p2031
I2910
sVfibroblasts
p2032
I242
sVimmunization
p2033
I921
sVindividuals
p2034
I90
sVth17
p2035
I515
sVbsep
p2036
I555
sVrheumatoid
p2037
I201
sVessential
p2038
I772
sVoften
p2039
I2684
sVmetabolic
p2040
I355
sVb.
p2041
I2971
sVsome
p2042
I2060
sVautophagy
p2043
I641
sVtraits
p2044
I2055
sVtrends
p2045
I2766
sVadded
p2046
I2442
sVpronounced
p2047
I638
sVmtesr
p2048
I775
sVand/or
p2049
I1170
sVpet
p2050
I2504
sVaffects
p2051
I802
sVmeasurements
p2052
I2441
sVper
p2053
I2807
sVendotoxin
p2054
I2013
sVconditionally
p2055
I1755
sVminimal
p2056
I1218
sVt
I336
sVsamp8
p2057
I1489
sVbe
p2058
I14
sVbf
p2059
I2972
sVpatient
p2060
I137
sVneuronal
p2061
I674
sVbc
p2062
I186
sVbl
p2063
I1857
sVbm
p2064
I189
sVprocessing
p2065
I2101
sVfed
p2066
I2020
sVbk
p2067
I1339
sVbt
p2068
I525
sVgsssg
p2069
I2320
sVbiomarkers
p2070
I1397
sVoutput
p2071
I140
sVbuccal
p2072
I2682
sVfrom
p2073
I26
sVcgs
p2074
I1512
sV7-fold
p2075
I1431
sVby
p2076
I124
sVoptogenetic
p2077
I2232
sVusa
p2078
I2866
sV25(oh
p2079
I1932
sVfiring
p2080
I1846
sVvirus
p2081
I577
sVintestinal
p2082
I519
sVsecretory
p2083
I224
sV8-isop
p2084
I1288
sVinhibits
p2085
I957
sVreplacement
p2086
I785
sVconsequently
p2087
I927
sVgamma
p2088
I813
sVmonofunctional
p2089
I656
sVrepair
p2090
I2150
sVparity
p2091
I2747
sVinto
p2092
I160
sVnsc
p2093
I867
sVlocus
p2094
I1376
sVbecause
p2095
I698
sVmitochondrial
p2096
I782
sVprimarily
p2097
I2612
sVproportional
p2098
I2963
sVedta
p2099
I1517
sVnext
p2100
I1455
sV0.007
p2101
I2282
sVclustering
p2102
I2192
sVhmscs
p2103
I1053
sV1.5%
p2104
I203
sVlong
p2105
I1321
sVinfected
p2106
I1112
sVppar
p2107
I420
sVmalat1
p2108
I2354
sVprobnp
p2109
I1902
sValbumin
p2110
I528
sVligation
p2111
I2145
sVretina
p2112
I500
sVxcr1
p2113
I847
sVrs3197999
p2114
I1371
sVwnt
p2115
I446
sVdelta
p2116
I2570
sVinjection
p2117
I994
sVconsiderable
p2118
I1072
sVpwi
p2119
I1753
sVmicroorganisms
p2120
I1018
sVfdg
p2121
I1035
sVrnas
p2122
I1324
sVup
p2123
I1128
sVus
p2124
I321
sVcis
p2125
I2818
sVpaired
p2126
I2804
sVun
p2127
I2018
sVexploration
p2128
I2841
sVheterogeneous
p2129
I1778
sVcarbonyls
p2130
I1296
sVz
I1007
sVsimilar
p2131
I2546
sVuc
p2132
I2051
sVmediation
p2133
I2255
sVassociated
p2134
I576
sVadults
p2135
I2081
sVprevented
p2136
I2630
sVinfluence
p2137
I1263
sVcafs
p2138
I827
sVdftj
p2139
I2305
sVquantification
p2140
I1355
sVsingle
p2141
I378
sV14.3%-fold
p2142
I1197
sVserological
p2143
I680
sVtriglycerides
p2144
I2561
sVkidney
p2145
I2067
sVnaa
p2146
I465
sV%
I294
sVamounts
p2147
I1254
sVsirtuin-1
p2148
I2514
sVmtdna
p2149
I367
sVadjuvant
p2150
I629
sVfunctionality
p2151
I2392
sVgenome
p2152
I2484
sV95%
p2153
I199
sVcystine
p2154
I2321
sVexplaining
p2155
I1961
sVelements
p2156
I115
sVgenerates
p2157
I1359
sVdevelopmental
p2158
I2852
sVendocrine
p2159
I2853
sVglomerular
p2160
I1388
sVgenerated
p2161
I1523
sVinguinal
p2162
I1141
sVstromal
p2163
I736
sVallowing
p2164
I2485
sVpuncture
p2165
I1920
sVstructure
p2166
I2009
sVindependently
p2167
I877
sVcorrelated
p2168
I289
sVe
I1236
sValgorithm
p2169
I586
sVage
p2170
I397
sVrequired
p2171
I1275
sVkinetics
p2172
I2370
sVsdf-1
p2173
I985
sVdepth
p2174
I2436
sVcarrying
p2175
I338
sVcorrelates
p2176
I824
sV2.03
p2177
I1575
sVenrichment
p2178
I2565
sVcapacities
p2179
I1109
sVpartial
p2180
I1952
sVgr
p2181
I2470
sVcanalicular
p2182
I2170
sVresults
p2183
I56
sVproduce
p2184
I1253
sVammonis
p2185
I2810
sVosteoprotegrin
p2186
I1402
sVgc
p2187
I1315
sVhepatitis
p2188
I2791
sVbvd
p2189
I2072
sVparvalbumin
p2190
I1848
sVgm
p2191
I1134
sVadjustment
p2192
I1386
sVcenters
p2193
I2527
sVgh
p2194
I1419
sVprospectively
p2195
I2298
sVcolitis
p2196
I2050
sVdepletion
p2197
I2940
sVyoung
p2198
I2299
sVintensive
p2199
I1393
sVmeglumine
p2200
I1551
sVattenuated
p2201
I1101
sVsnail1
p2202
I1239
sVconfirmation
p2203
I2537
sVassay
p2204
I986
sVlnm
p2205
I1318
sVengineered
p2206
I1562
sVpdac
p2207
I820
sVcrosses
p2208
I1716
sVcellular
p2209
I926
sVmetabolomics
p2210
I1859
sVartery
p2211
I2159
sVplr
p2212
I1915
sVsftsv
p2213
I2065
sVchr2-expressing
p2214
I808
sVtrm
p2215
I2686
sVtransmission
p2216
I2414
sVgender
p2217
I477
sVextremity
p2218
I2594
sVobesity
p2219
I2155
sVpma
p2220
I2662
sVglucose
p2221
I1999
sVantigen
p2222
I337
sVvgpr
p2223
I1953
sVprogenitors
p2224
I2928
sVrecruitment
p2225
I45
sVreplicated
p2226
I2306
sVacid
p2227
I796
sVelisa
p2228
I74
sVindex
p2229
I1968
sVplays
p2230
I556
sVtransplanted
p2231
I2693
sVbdl
p2232
I2161
sVassisted
p2233
I2912
sVexpressed
p2234
I2475
sVcell
p2235
I150
sVconsistently
p2236
I592
sV-macrophages
p2237
I2166
sVthen
p2238
I2326
sVvegf
p2239
I1241
sV;
I271
sVth22
p2240
I1182
sV3d
p2241
I815
sVbody
p2242
I531
sVmultivariate
p2243
I471
sVproliferation
p2244
I741
sVled
p2245
I2712
sVtregs
p2246
I548
sVrespectively
p2247
I631
sV90-day
p2248
I2125
sVhistologic
p2249
I1606
sVexplore
p2250
I522
sVsink
p2251
I464
sVoxidative
p2252
I218
sVgreat
p2253
I381
sV38
p2254
I2836
sVtechnical
p2255
I343
sVinvolved
p2256
I2254
sV31
p2257
I1446
sV30
p2258
I732
sVctx
p2259
I1379
sVhost
p2260
I1719
sVh2
p2261
I2265
sVsuggests
p2262
I1860
sVproducts
p2263
I225
sVinsulin
p2264
I2000
sVcalifornia
p2265
I2744
sVgene
p2266
I458
sVmaker
p2267
I1904
sVprealbumin
p2268
I2116
sV10q24.31
p2269
I316
sVduct
p2270
I2144
sVapp
p2271
I2476
sVoutcomes
p2272
I185
sVsgh
p2273
I1422
sVdecrease
p2274
I542
sVlimb
p2275
I2591
sVtools
p2276
I1780
sV1/h
p2277
I2207
sVuse
p2278
I370
sVchd
p2279
I880
sVconsumption
p2280
I1959
sVremains
p2281
I2286
sVchi
p2282
I2961
sV1]]~~
p2283
I24
sVwbc
p2284
I601
sVcoumarin
p2285
I1174
sVsurrogates
p2286
I2740
sVexamination
p2287
I2701
sVdisp3
p2288
I871
sVbcrs
p2289
I373
sVcomparison
p2290
I1494
sVmismatch
p2291
I2925
sVoccurred
p2292
I2177
sVinfection
p2293
I651
sVpfs
p2294
I1312
sV~~[[2
p2295
I29
sVvirulence
p2296
I1102
sViii
p2297
I1610
sVextravasating
p2298
I1546
sVwomen
p2299
I1415
sVmajority
p2300
I382
sVbiofilms
p2301
I1626
sVanimals
p2302
I2618
sVsmears
p2303
I2531
sVf
I328
sVthis
p2304
I209
sVchallenge
p2305
I2139
sVerythroid
p2306
I791
sVch3
p2307
I1115
sVsmear
p2308
I2541
sVmetastases
p2309
I188
sVbeta-1
p2310
I1877
sVinhibitor
p2311
I1003
sVtaa
p2312
I1566
sVcontrol
p2313
I364
sV0.8
p2314
I2215
sVe.g.
p2315
I1164
sVprocess
p2316
I1317
sVheme-
p2317
I1027
sV0.3
p2318
I1585
sVhigh
p2319
I40
sVgfap)-positive
p2320
I1468
sVtac
p2321
I1994
sVbones
p2322
I739
sVtan
p2323
I2230
sVjunctions
p2324
I1601
sVlysine
p2325
I1326
sVdefective
p2326
I648
sVafc
p2327
I2031
sVregions
p2328
I1650
sVvesicular
p2329
I645
sVinterneurons
p2330
I1849
sVanimal
p2331
I2181
sVatpase
p2332
I1875
sVinstead
p2333
I1682
sVintracerebroventricular
p2334
I993
sVestablishment
p2335
I462
sVcircular
p2336
I923
sVtuberculous
p2337
I1447
sVrelapsing
p2338
I981
sVmaternal
p2339
I2134
sVmsdk
p2340
I1051
sVcd34
p2341
I788
sVhazard
p2342
I2357
sVumbilical
p2343
I2856
sVdemonstrating
p2344
I1506
sVosteoconductive
p2345
I714
sVp=0.046
p2346
I2883
sVmarrow
p2347
I707
sVprostate
p2348
I2703
sVefficiently
p2349
I673
sVp=0.044
p2350
I2765
sVoverexpression
p2351
I2730
sVbcs
p2352
I2746
sVos
p2353
I2277
sVlines
p2354
I1704
sVabmc
p2355
I2606
sVsynthase
p2356
I907
sVsorafenib
p2357
I2793
sVp=0.036
p2358
I2361
sVb7
p2359
I2770
sVallow
p2360
I320
sVlactate
p2361
I2010
sVaddiction
p2362
I1652
sVbreast
p2363
I359
sVmicroalbuminuria
p2364
I2669
sV57.8-,63.3-
p2365
I1200
sVproduces
p2366
I2573
sVaopp
p2367
I1295
sVcrosstalk
p2368
I1320
sVpreclinical
p2369
I1159
sVproduced
p2370
I2294
sV130
p2371
I844
sVincluding
p2372
I348
sVmethods
p2373
I2585
sVhorns
p2374
I1127
sVconverting
p2375
I1891
sV139
p2376
I1662
sVrlb6h
p2377
I76
sVlf
p2378
I1493
sVchemical
p2379
I1939
sVcatabolism
p2380
I643
sVlongitudinal
p2381
I2122
sVlocated
p2382
I1560
sVexcretory
p2383
I223
sVhypothesize
p2384
I2922
sVtsa
p2385
I1739
sVcscs
p2386
I1977
sVmellitus
p2387
I306
sVlecs
p2388
I2549
sV2014
p2389
I406
sV<
I286
sV2013
p2390
I404
sVdescendants
p2391
I806
sVanchored
p2392
I1634
sVmolecule
p2393
I2544
sVbat
p2394
I2506
sVphagocytes
p2395
I1720
sVimpaired
p2396
I1614
sVhomogenates
p2397
I2185
sVday
p2398
I1885
sVcontinuum
p2399
I1305
sVhistidine
p2400
I1398
sVfcrh5/cd3
p2401
I2936
sV2]]~~
p2402
I31
sVmyocarditis
p2403
I932
sVl.
p2404
I1500
sVnfl
p2405
I2817
sVidentified
p2406
I679
sVmagnitude
p2407
I1363
sVmatriptase
p2408
I2611
sVmode
p2409
I2437
sVl1
p2410
I2293
sVpools
p2411
I1881
sVqrt
p2412
I2329
sVidentifies
p2413
I1087
sVprocalcitonin
p2414
I2943
sVbrush
p2415
I2567
sVsubset
p2416
I861
sVmets
p2417
I965
sVosteoblastogenesis
p2418
I1060
sVpleurisy
p2419
I1448
sVhurdles
p2420
I1774
sVrelated
p2421
I387
sVdeficiency
p2422
I410
sVfibronectin
p2423
I2733
sVfrequency
p2424
I1181
sVinterplay
p2425
I917
sVlfs
p2426
I243
sVsectional
p2427
I297
sV82
p2428
I1651
sVour
p2429
I111
sVtubular
p2430
I2678
sVpreconditioning
p2431
I912
sV84
p2432
I2045
sV'
I487
sVcerebral
p2433
I1488
sVvci
p2434
I2640
sV2.39
p2435
I1579
sVmessenger
p2436
I2495
sVsupports
p2437
I1204
sVreg
p2438
I1140
sVred
p2439
I2624
sVecm
p2440
I823
sVmaintains
p2441
I2969
sVapproaches
p2442
I347
sVnpc
p2443
I2953
sVregulatory
p2444
I1139
sVcompositions
p2445
I248
sVadditional
p2446
I1526
sVpancreatic
p2447
I818
sVinteraction
p2448
I801
sVpdl1
p2449
I2545
sVg
I449
sVdetermining
p2450
I1338
sVcould
p2451
I1069
sVinterleukin-17a
p2452
I2909
sV3.345
p2453
I2956
sV's
p2454
I2832
sVfeasible
p2455
I2136
sVerg-28
p2456
I1342
sVlength
p2457
I1997
sVohcs
p2458
I2815
sVhence
p2459
I1245
sVnonsurviving
p2460
I2521
sVarterial
p2461
I766
sVprospective
p2462
I2302
sVpcbs
p2463
I2849
sVwidely
p2464
I582
sVcollagen
p2465
I1931
sVrandomized
p2466
I1390
sVreached
p2467
I1730
sVquality
p2468
I41
sVsubacute
p2469
I1749
sVdata
p2470
I1746
sV20.8-
p2471
I1195
sVsystem
p2472
I900
sVroche
p2473
I1495
sVtheir
p2474
I523
sVdetectable
p2475
I1645
sVankle
p2476
I2156
sVchemotherapy
p2477
I1188
sVcountries
p2478
I2867
sVsensitivity
p2479
I81
sVcys
p2480
I2324
sVterpenoid
p2481
I2899
sVhpv)-16
p2482
I2291
sVonsd
p2483
I762
sVreversed
p2484
I2088
sV1,287
p2485
I1888
sVreflecting
p2486
I644
sVlymphangiogenesis
p2487
I2386
sVdetection
p2488
I156
sVcolleagues
p2489
I2231
sVinfectious
p2490
I92
sVdexmedetomidine
p2491
I1806
sVpatients
p2492
I94
sVassays
p2493
I1504
sVnegatively
p2494
I288
sVreferral
p2495
I2828
sVkinase-1
p2496
I1410
sVare
p2497
I385
sVexhibit
p2498
I740
sV1.5
p2499
I2106
sVfalse
p2500
I2614
sV8-hydroxy
p2501
I1289
sVhlh
p2502
I1918
sVrobot
p2503
I2911
sVhave
p2504
I429
sVcrrt
p2505
I147
sVlinked
p2506
I614
sVppci
p2507
I2459
sVmin
p2508
I1435
sVil-17
p2509
I516
sVstorage
p2510
I2196
sVable
p2511
I2085
sVendogenous
p2512
I2284
sVmechanism
p2513
I238
sVchiba
p2514
I2845
sVbest
p2515
I2655
sVwhich
p2516
I265
sVhs
p2517
I2945
sVperoxidase
p2518
I958
sV=
I281
sVaccuracy
p2519
I1531
sVcriteria
p2520
I476
sVimmunolocalization
p2521
I1589
sVwho
p2522
I1639
sVstat3that
p2523
I441
sVfasting
p2524
I2667
sVoverlapping
p2525
I1301
sVdevice
p2526
I2610
sVsegment
p2527
I2453
sVclass
p2528
I1609
sVdorsal
p2529
I1119
sVckd
p2530
I2582
sVconsequences
p2531
I1760
sVaffymetrix
p2532
I971
sVstronger
p2533
I1471
sVdisease
p2534
I184
sVhlbalf
p2535
I133
sVfindings
p2536
I905
sVmetaplasia
p2537
I2637
sVtext
p2538
I2339
sVcd26
p2539
I852
sVcd25
p2540
I513
sVcirrhotic
p2541
I536
sVptch-1
p2542
I2272
sVgadolinium
p2543
I1543
sVae1
p2544
I2191
sVcategories
p2545
I2617
sVbased
p2546
I463
sVq4
p2547
I2870
sVksr
p2548
I787
sV(
I21
sVreceptors
p2549
I372
sVshould
p2550
I1921
sVterminal
p2551
I1897
sVreactive
p2552
I609
sVexpensive
p2553
I2490
sVmolecules
p2554
I1017
sVlocal
p2555
I1976
sVmortality
p2556
I879
sVregularly
p2557
I2708
sVcvb3-induced
p2558
I930
sVpeptide
p2559
I194
sVdisplayed
p2560
I952
sVmgh
p2561
I1420
sVoverall
p2562
I85
sVpathophysiology
p2563
I1202
sV122
p2564
I1423
sVconsecutive
p2565
I2795
sVtiming
p2566
I1046
sVprocedures
p2567
I1680
sVantagonist
p2568
I1001
sVabcg1
p2569
I1879
sVprocesses
p2570
I1464
sVsubstrate
p2571
I935
sVlvs
p2572
I2543
sVtobacco
p2573
I1967
sVdpp
p2574
I193
sVh
I697
sVdifferential
p2575
I2233
sVmodsla
p2576
I1703
sVcomprising
p2577
I2429
sV-catenin
p2578
I1598
sVcontain
p2579
I2538
sVshh
p2580
I214
sVdpn
p2581
I1396
sVembryonic
p2582
I803
sVuromodulin
p2583
I1383
sVpredictive
p2584
I916
sVhif-1
p2585
I439
sVexists
p2586
I1304
sVacquired
p2587
I2619
sVdownregulate
p2588
I2552
sVcorrelations
p2589
I1516
sVhumans
p2590
I652
sVcanine
p2591
I2186
sVintensity
p2592
I1805
sVusefulness
p2593
I1081
sVenhanced
p2594
I1537
sVstatistically
p2595
I1529
sVapoe
p2596
I2058
sVlvd
p2597
I2071
sVpattern
p2598
I1942
sVcarcinomas
p2599
I1443
sVstate
p2600
I1741
sV:
I123
sVidentification
p2601
I681
sVmembrane
p2602
I342
sVboundary
p2603
I334
sV0.432
p2604
I2646
sVci=3.32
p2605
I2888
sVvariability
p2606
I2052
sVcomparable
p2607
I2218
sV5035,000
p2608
I1498
sVability
p2609
I580
sVsuperior
p2610
I1362
sVremitting
p2611
I982
sVvitamin
p2612
I1933
sVbiosynthesis
p2613
I2901
sVplaques
p2614
I2699
sVkey
p2615
I466
sVmacro-
p2616
I716
sVstrains
p2617
I1624
sVtransplantation
p2618
I1336
sVotherwise
p2619
I857
sVck
p2620
I2208
sVci
p2621
I1576
sVrelevant
p2622
I2118
sVco
p2623
I1587
sVcm
p2624
I2787
sVcl
p2625
I1871
sVprostaglandin
p2626
I2264
sVantioxidant
p2627
I961
sVcf
p2628
I959
sVcd
p2629
I2047
sVdependent
p2630
I275
sVpulmonary
p2631
I1807
sVelecsys
p2632
I1496
sVcv
p2633
I878
sVcu
p2634
I1768
sVct
p2635
I1260
sVi.e.
p2636
I2057
sVlw
p2637
I2030
sVaddition
p2638
I1095
sVdf-1
p2639
I351
sVbbb
p2640
I1011
sVgenetic
p2641
I1265
sVslowly
p2642
I1552
sVmcp-1/ccl2
p2643
I2228
sVosteoclastogenesis
p2644
I1062
sVutilizing
p2645
I2609
sVfdr
p2646
I2902
sVinterleukins
p2647
I2949
sVmonoclonal
p2648
I350
sV>
I68
sVdeterminant
p2649
I1382
sVcontribute
p2650
I1981
sVcontrolled
p2651
I684
sVc.
p2652
I2092
sVpatented
p2653
I1678
sVil)-2
p2654
I2183
sVsufficient
p2655
I460
sVphospho
p2656
I1819
sVefflux
p2657
I2430
sVlung
p2658
I119
sVmillar
p2659
I2395
sVgross
p2660
I1604
sVc1
p2661
I257
sVan
p2662
I84
sVpresent
p2663
I892
sVreverse
p2664
I2427
sVnovel
p2665
I323
sV6-week
p2666
I2352
sVsurvey
p2667
I2749
sVunlike
p2668
I2509
sVat1r
p2669
I1000
sVcvs
p2670
I1501
sVpromoter
p2671
I1475
sVpromotes
p2672
I1346
sVwill
p2673
I2402
sVapoeko
p2674
I2692
sVwild
p2675
I253
sVphenotypic
p2676
I408
sVcvd
p2677
I1270
sVlayer
p2678
I2474
sVmutant
p2679
I1802
sVve
p2680
I1820
sVhelper
p2681
I1762
sVresident
p2682
I2548
sVblood
p2683
I30
sVneuron
p2684
I2471
sVthus
p2685
I657
sVsurface
p2686
I1696
sVdraining
p2687
I1364
sVexamined
p2688
I2097
sVc=0.817
p2689
I2892
sVregression
p2690
I2363
sVautoantibodies
p2691
I953
sVcohort
p2692
I1273
sVwst-8/1-methoxy
p2693
I412
sVparotid
p2694
I1299
sVcerebrospinal
p2695
I695
sV4-phenylbutyric
p2696
I2676
sVadministration
p2697
I1428
sVcross
p2698
I296
sVcoronary
p2699
I909
sVadverse
p2700
I2850
sVinfarction
p2701
I2455
sVunits
p2702
I793
sVoxa
p2703
I1121
sVinjured
p2704
I1617
sVmach
p2705
I2864
sVcaspase-1
p2706
I1689
sVelicits
p2707
I266
sVbalf
p2708
I129
sVeqtls
p2709
I2238
sVeffect
p2710
I1477
sViop
p2711
I1721
sVcaspase-3
p2712
I1010
sVproteome
p2713
I633
sVrobotic
p2714
I2921
sVminocycline
p2715
I1165
sVdiabetes
p2716
I305
sVpolymorphism
p2717
I2154
sVtnfsf11
p2718
I1066
sVoff
p2719
I2955
sVcenter
p2720
I309
sVneural
p2721
I1224
sVi
I1037
sVil-22
p2722
I1190
sVwell
p2723
I622
sVlesions
p2724
I2197
sVchemokine
p2725
I2167
sV1
I205
sVnpc1
p2726
I258
sVautocrine
p2727
I839
sVcomparisons
p2728
I352
sVmuscle
p2729
I360
sVglial
p2730
I1465
sVfetal
p2731
I2131
sVrs602990
p2732
I2153
sVexcessive
p2733
I2626
sVpmvecs
p2734
I1815
sVless
p2735
I1502
sVtransient
p2736
I2694
sVproximity
p2737
I1590
sVdose
p2738
I1104
sVsources
p2739
I1354
sVdistant
p2740
I625
sVil-10-producing
p2741
I2111
sVsurpass
p2742
I2824
sVsmad1/5
p2743
I2754
sVprotecting
p2744
I1207
sVrest
p2745
I2596
sVtcc
p2746
I485
sVreduced
p2747
I1025
sVrapid
p2748
I1895
sVdensity
p2749
I914
sVderivate
p2750
I1175
sVfibrogenic
p2751
I240
sVhemaglobin
p2752
I1791
sVgolgi
p2753
I2483
sVconjugated
p2754
I2023
sVnanoparticles
p2755
I711
sVlymphocytes
p2756
I1137
sVruminal
p2757
I2015
sVgmv
p2758
I2518
sVmurine
p2759
I1692
sVbiomolecular
p2760
I247
sVtests
p2761
I1916
sVincreased
p2762
I418
sVccl3
p2763
I1132
sVferritin
p2764
I2351
sVincreases
p2765
I1059
sVci]=1.00
p2766
I2881
sVfive
p2767
I2539
sVknow
p2768
I1043
sVsequencing
p2769
I380
sVarteriolar
p2770
I2439
sVloss
p2771
I493
sV-endorphin
p2772
I2512
sVlike
p2773
I1232
sVsuccess
p2774
I2917
sVparasite
p2775
I2413
sVvenular
p2776
I2440
sVjames
p2777
I2831
sVregulated
p2778
I1369
sVneutrophils
p2779
I2164
sVregardless
p2780
I1924
sVtherapeutic
p2781
I616
sVglycoprotein
p2782
I843
sVslo-1
p2783
I1347
sVautologous
p2784
I2605
sVclassical
p2785
I2927
sVsequence
p2786
I2492
sVthymus
p2787
I1686
sVphenomena
p2788
I1851
sVlibrary
p2789
I885
sVhair
p2790
I99
sV117
p2791
I1657
sVgrowth
p2792
I1205
sVexport
p2793
I553
sVgestational
p2794
I2933
sVpolychlorinated
p2795
I2847
sVhoma
p2796
I2004
sVtransport
p2797
I646
sVdisrupting
p2798
I2854
sVreticular
p2799
I898
sVesr
p2800
I607
sVlead
p2801
I2631
sVesp
p2802
I226
sVdemonstrates
p2803
I1309
sVmarkers
p2804
I599
sVgoats
p2805
I2019
sVtmb
p2806
I933
sVdoes
p2807
I102
sVinflammation
p2808
I2121
sVcd10
p2809
I2171
sV0.2%
p2810
I1732
sVdemonstrated
p2811
I866
sVatherosclerotic
p2812
I2698
sVlipid
p2813
I1268
sVmacrophages
p2814
I751
sVdce
p2815
I1541
sVanalysed
p2816
I407
sVexpansion
p2817
I1782
sVpressure
p2818
I767
sVp38
p2819
I473
sVbioimaging
p2820
I2147
sValthough
p2821
I1957
sVaccompanied
p2822
I2755
sVinfiltrating
p2823
I2163
sVanalyses
p2824
I71
sVneutrophil
p2825
I1792
sVdcs
p2826
I864
sVvs.
p2827
I2645
sVstage
p2828
I228
sVabout
p2829
I1045
sVtrpc3
p2830
I2696
sVrecognized
p2831
I886
sVaal
p2832
I2736
sVcarrier
p2833
I1803
sVmyeloid
p2834
I2636
sV0.58
p2835
I2729
sVmg132
p2836
I1785
sVcytokine
p2837
I2224
sVpredictor
p2838
I2365
sVbmbs
p2839
I1251
sVperfusion
p2840
I1750
sVpreviously
p2841
I1599
sVfunctional
p2842
I1264
sVsplenic
p2843
I1252
sVassess
p2844
I759
sVchronic
p2845
I2205
sVsquare
p2846
I2962
sVreceptor
p2847
I661
sVbeen
p2848
I430
sVspecialized
p2849
I2574
sVbarcodes
p2850
I375
sVtransthyretin
p2851
I2268
sVlarvae
p2852
I229
sV2.55
p2853
I2776
sVwhom
p2854
I2688
sVrct
p2855
I2428
sVspots
p2856
I35
sVpolycythemic
p2857
I2635
sVpolycythemia
p2858
I2622
sV0.242
p2859
I2358
sVinner
p2860
I1594
sVdrumstick
p2861
I361
sVmacrophage
p2862
I1368
sVspecimens
p2863
I891
sVrcc
p2864
I675
sVfunction
p2865
I58
sVireland
p2866
I2834
sVtriggered
p2867
I869
sVhr
p2868
I2775
sVabnormal
p2869
I2641
sVhp
p2870
I2500
sVht
p2871
I1152
sVvolume
p2872
I535
sVrepeated
p2873
I2465
sVgain
p2874
I315
sVtrimester
p2875
I2130
sVhc
p2876
I2021
sVhighest
p2877
I1641
sVhf
p2878
I2342
sVversatile
p2879
I718
sVcount
p2880
I603
sValso
p2881
I152
sVmade
p2882
I1329
sVmicrovascular
p2883
I1808
sVwhether
p2884
I1049
sVcells
p2885
I100
sV88
p2886
I2048
sVharvested
p2887
I1514
sVbelow
p2888
I2711
sVmeta
p2889
I2095
sVprohepcidin
p2890
I2350
sVdemonstrate
p2891
I5
sVdistribution
p2892
I232
sVspectrometry
p2893
I2860
sVthirteen
p2894
I2526
sVfold
p2895
I781
sVglycophosphatidylinositol
p2896
I1635
sVtissues
p2897
I353
sVtwist
p2898
I1240
sVsibling
p2899
I1800
sVepithelial
p2900
I1231
sV83
p2901
I1417
sVpermeability
p2902
I1810
sVhumanized
p2903
I1756
sV1.79
p2904
I2781
sVworse
p2905
I2739
sVclinicopathological
p2906
I475
sVfunctions
p2907
I2424
sVcompared
p2908
I573
sVvariety
p2909
I1586
sVtrials
p2910
I1391
sV45
p2911
I1307
sVpercent
p2912
I1310
sVhpv
p2913
I726
sVsics
p2914
I260
sVdrugs
p2915
I2404
sVother
p2916
I91
sVrevascularization
p2917
I2608
sVparathyroid
p2918
I171
sVelectrochemiluminescence
p2919
I1935
sVconclusion
p2920
I138
sVjune
p2921
I405
sVultimately
p2922
I2244
sVvariation
p2923
I567
sVmst1
p2924
I1367
sVcrosslink
p2925
I1257
sVpathways
p2926
I443
sVadditionally
p2927
I1573
sVexposure
p2928
I1357
sVinfarct
p2929
I2213
sVprevalent
p2930
I2497
sVnecrosis
p2931
I164
sVspace
p2932
I1868
sV1.1313.365
p2933
I2383
sVjuxtamembrane
p2934
I2479
sVischaemic
p2935
I2217
sVstatus
p2936
I97
sVdiagnosis
p2937
I1082
sVrankl
p2938
I1065
sVvalidation
p2939
I2328
sVfurthermore
p2940
I190
sVbcr
p2941
I379
sVaugmented
p2942
I925
stRp2943
sbsS'dropout'
p2944
F0.25
sS'max_len'
p2945
I100
s.