(dp1
S'dim'
p2
I50
sS'word_dict'
p3
ccopy_reg
_reconstructor
p4
(csnorkel.learning.disc_models.rnn.utils
SymbolTable
p5
c__builtin__
object
p6
NtRp7
(dp8
S'unknown'
p9
I1
sS's'
I3319
sS'd'
g4
(cfuture.types.newdict
newdict
p10
c__builtin__
dict
p11
(dp12
V
I322
sVlimited
p13
I365
sV61,748-bp
p14
I3177
sVh9c2
p15
I1755
sVrepresent
p16
I2725
sVhypercholesterolemia
p17
I504
sVfour
p18
I1072
sVbmsc
p19
I1972
sVp=0.0012
p20
I1059
sVneoplasia
p21
I385
sVtrastuzumab
p22
I757
sVacetylserotonin
p23
I304
sVbmsi
p24
I3242
sVintegrity
p25
I804
sVlocalized
p26
I317
sVputamen
p27
I338
sVp<0.001
p28
I2102
sVauc
p29
I2464
sVtherapeutics
p30
I36
sVphysiological
p31
I742
sVventral
p32
I3014
sVpubertal
p33
I2540
sVunder
p34
I881
sV12.2%
p35
I2766
sVmagnetic
p36
I987
sVdivergent
p37
I744
sVosteoblastic
p38
I1965
sVhormone
p39
I1231
sVrisk
p40
I644
sVlactoferrin
p41
I1257
sVactivation
p42
I210
sVregional
p43
I1556
sVreplication
p44
I2287
sVnodule
p45
I24
sVsummarized
p46
I2348
sVperoxidation
p47
I362
sVanemia
p48
I1750
sVparacrine
p49
I2025
sVschool
p50
I2683
sVcml
p51
I2239
sVprogression
p52
I106
sVcause
p53
I1313
sVcme
p54
I1853
sV29%
p55
I1644
sVcholesterol
p56
I93
sVtnf-
p57
I2076
sVupt
p58
I2362
sVosmotic
p59
I683
sVfumarate
p60
I269
sVlysosomal
p61
I232
sVcooperative
p62
I2320
sVsenescence
p63
I25
sVrelapsed
p64
I2836
sVselumetinib
p65
I1785
sVlikely
p66
I19
sVinfiltration
p67
I1142
sVher2
p68
I2919
sVestimated
p69
I622
sVeven
p70
I1070
sVaim
p71
I486
sVfiltration
p72
I2100
sVorganisms
p73
I2609
sVworsen
p74
I2384
sVku55933
p75
I440
sVdr5
p76
I931
sVfingers
p77
I949
sVconsequent
p78
I1147
sVeculizumab
p79
I2230
sVcytokines
p80
I2273
sVdesigning
p81
I289
sVnew
p82
I283
sVnet
p83
I2445
sVincreasing
p84
I538
sVcathepsin
p85
I967
sVmef
p86
I1674
sVbehavior
p87
I2113
sVpresynaptic
p88
I2549
sVmechanisms
p89
I777
sVmen
p90
I329
sVgefitinib
p91
I1529
sVresidual
p92
I1041
sVhere
p93
I27
sV10%
p94
I1888
sVreported
p95
I2085
sVfeeding
p96
I2988
sVholo-
p97
I1254
sVactive
p98
I1624
sVnpc1-ko
p99
I1522
sVsubstance
p100
I792
sVgln
p101
I2205
sVc57bl/6j
p102
I2618
sVstudy
p103
I242
sVapproaches
p104
I2678
sVakt
p105
I1105
sVmpm-2
p106
I1613
sVgranulomatosis
p107
I2002
sVtgf-1-induced
p108
I916
sVtransfected
p109
I1854
sVxerostomia
p110
I1197
sVsuitable
p111
I494
sVchanges
p112
I566
sVglu
p113
I2203
sVdiameter
p114
I862
sVmodulates
p115
I1864
sVexplained
p116
I1774
sVhighly
p117
I348
sVpsychological
p118
I2478
sVprotein-1
p119
I1770
sVdmfs
p120
I3315
sVtotal
p121
I2163
sVcharasomes
p122
I2006
sVdna
p123
I508
sV0.412
p124
I2289
sVisoform
p125
I1927
sVplayed
p126
I1726
sV0.418
p127
I2293
sVnegative
p128
I228
sVprogram
p129
I1569
sVm1
p130
I1488
sVlipidomes
p131
I1528
sV95%ci
p132
I3245
sVintravital
p133
I2045
sVe2
p134
I2778
sVtype
p135
I294
sVis
p136
I113
sVtolerated
p137
I3047
sVir
p138
I346
sVchlorpromazine
p139
I1849
sVlungs
p140
I1916
sVpopulations
p141
I378
sV43
p142
I2764
sVdepressive
p143
I2547
sVinfusion
p144
I447
sVbiomechanical
p145
I1839
sVdisruption
p146
I1307
sVreversible
p147
I2816
sV0.388
p148
I2290
sV52.3%-fold
p149
I465
sVecfcs
p150
I1544
sViv
p151
I2719
sVblocking
p152
I1120
sVii
p153
I1405
sVintake
p154
I735
sVgenitalis
p155
I3262
sV1997
p156
I2265
sVmm
p157
I2837
sVml
p158
I3043
sVaav1/2-a53
p159
I1637
sVwork
p160
I2491
sVmi
p161
I3024
sVendogenous
p162
I3240
sVmammalian
p163
I48
sVoxide
p164
I1876
sVtnf
p165
I1859
sVms
p166
I405
sVinteraction
p167
I285
sVtnm
p168
I3292
sVta
p169
I3022
sVproteasomal
p170
I974
sVexample
p171
I1280
sVerk
p172
I938
sVencephalomyelitis
p173
I420
sVindicated
p174
I358
sVhemoglobin
p175
I679
sVindicates
p176
I180
sVtimes
p177
I2707
sVcurcumin
p178
I1459
sVaging
p179
I3162
sVend
p180
I668
sVhoc
p181
I85
sVregrowth
p182
I2696
sVcarriers
p183
I2176
sVprovide
p184
I282
sVmouse
p185
I1003
sVdamage
p186
I509
sVrecovers
p187
I2555
sVimplicating
p188
I2528
sVlesions
p189
I371
sVcholine
p190
I540
sValdehyde
p191
I1144
sVsignificance
p192
I2210
sVtoxic
p193
I1014
sVembase
p194
I3213
sVgrown
p195
I834
sVrise
p196
I2067
sVmodulation
p197
I223
sVafter
p198
I480
sVlaa
p199
I1339
sVcox-2
p200
I2441
sVinduce
p201
I1091
sVsubventricular
p202
I1001
sV16-positive
p203
I3151
sVparallel
p204
I1263
sVtypes
p205
I2041
sVeffective
p206
I914
sVfak
p207
I1414
sVhypotheses
p208
I1926
sVmigraine
p209
I2371
sV18th
p210
I688
sVgreen
p211
I3079
sVcorrelation
p212
I2376
sVtgf-1-enhanced
p213
I2071
sVhedgehog
p214
I2687
sVrestriction
p215
I483
sVkappab
p216
I69
sVover
p217
I105
sVvary
p218
I1316
sVsickle
p219
I2050
sV4.3%
p220
I2157
sVresponsive
p221
I1531
sVstaining
p222
I1151
sVactivating
p223
I1108
sVbefore
p224
I891
sVrnaseq
p225
I1907
sVligand
p226
I2343
sVcle
p227
I1037
sVimm
p228
I2874
sV,
I17
sVrock2
p229
I1227
sVmcm7
p230
I1761
sVlmwh
p231
I3267
sVproduction
p232
I1795
sVpotentially
p233
I156
sVweeks
p234
I1636
sVglucagon
p235
I1449
sVovercome
p236
I1128
sVrestoring
p237
I2550
sVversus
p238
I2417
sVeventually
p239
I1661
sVzucker
p240
I478
sVblots
p241
I314
sVaffected
p242
I1975
sVdiseases
p243
I1502
sVinoculated
p244
I1835
sVprevented
p245
I1669
sVdifferentiated
p246
I2980
sVhypoxia
p247
I852
sVtherapy
p248
I291
sVcelecoxib
p249
I912
sVthey
p250
I2660
sVcomprised
p251
I654
sVsilver
p252
I1150
sVcsf-1r
p253
I2495
sVstructural
p254
I1551
sVdefected
p255
I1155
sVgentamicin
p256
I1576
sVl
I2987
sVnonsmall
p257
I1660
sVfibrosis
p258
I1919
sVlosartan
p259
I2667
sVmrna
p260
I1457
sVsham
p261
I2746
sVinterfering
p262
I1122
sVside
p263
I1805
sVbone
p264
I1353
sVmean
p265
I664
sVvoxel
p266
I1552
sVdirectly
p267
I3209
sVknockout
p268
I172
sVseries
p269
I620
sVgsdmb
p270
I1387
sVplatelets
p271
I686
sVmdd
p272
I3225
sVparasites
p273
I641
sVh3k27me3
p274
I3141
sVdrinker
p275
I2606
sV87.8%
p276
I2765
sVmdr
p277
I1115
sVt1
p278
I3109
sVextract
p279
I3121
sVborne
p280
I3085
sVrt
p281
I1969
sVcharacteristic
p282
I2463
sVcrucial
p283
I3106
sVvessels
p284
I863
sVcontent
p285
I890
sVadhesion
p286
I2064
sVneuro)inflammation
p287
I3221
sVra
p288
I2992
sVrb
p289
I1762
sVrc
p290
I592
sVlinear
p291
I2308
sVbarrier
p292
I2861
sVlittle
p293
I1418
sVfree
p294
I2600
sVstandard
p295
I1658
sVphospholipid
p296
I2213
sVformation
p297
I1634
sVenhance
p298
I2868
sVbiochemically
p299
I1781
sVfret
p300
I2150
sVatg
p301
I1723
sVr6
p302
I2732
sVatc
p303
I2938
sVr3
p304
I2735
sVstarts
p305
I2684
sVatm
p306
I439
sVdays
p307
I2499
sVerfe
p308
I1800
sVmodurates
p309
I1860
sVatr
p310
I1199
sVatp
p311
I718
sVsignature
p312
I3055
sVrutaceae
p313
I1188
sVpurpose
p314
I3220
sVpreoperative
p315
I1057
sVtilapia
p316
I2794
sVtrka
p317
I2513
sVgrade
p318
I383
sVimmunohistochemical
p319
I2685
sVvitro
p320
I1633
sVvascularization
p321
I2869
sVhearing
p322
I1579
sVimplicated
p323
I1983
sVendocycle
p324
I2332
sVcalorie
p325
I734
sVmechanistically
p326
I1614
sVdysfunction
p327
I1092
sV1a
p328
I554
sViodothyronine
p329
I1616
sVsimilarly
p330
I803
sVtor
p331
I2329
sV0.03
p332
I3065
sV0.01
p333
I1433
sVneutralizing
p334
I2412
sV0.05
p335
I1648
sVperturbations
p336
I2544
sVrates
p337
I1068
sVobservations
p338
I312
sVanalgesic
p339
I1210
sVaz20
p340
I1992
sVranging
p341
I2679
sVglucose
p342
I1266
sV-0.15
p343
I3254
sV-0.14
p344
I3249
sVp=0.03
p345
I1063
sVp=0.02
p346
I1065
sVtool
p347
I3119
sVserve
p348
I3298
sV17a
p349
I3235
sVnigral
p350
I1642
sVhomovanilic
p351
I1654
sVwestern
p352
I313
sVnsclc
p353
I76
sVpositively
p354
I339
sVp53
p355
I443
sVpyramidal
p356
I2574
sVanxiety
p357
I2116
sVtarget
p358
I49
sVshowed
p359
I331
sVeqmri
p360
I1288
sVsurrogate
p361
I2302
sVsecond
p362
I1373
sVmitogen
p363
I60
sVregulator
p364
I2232
sVmatter
p365
I334
sVmodulators
p366
I229
sVplasmid
p367
I2615
sViron
p368
I697
sVhdlc
p369
I2989
sVbiochemical
p370
I1848
sVanatomically
p371
I1545
sVmodern
p372
I1880
sVraw
p373
I2847
sVrat
p374
I2353
sVshell
p375
I2908
sVmanner
p376
I1226
sVadhd
p377
I2677
sVseen
p378
I1511
sVphorbol-12-myristate-13-acetate
p379
I802
sVestrogens
p380
I2475
sVcontents
p381
I2602
sV5-untranslated
p382
I2983
sVmedline
p383
I3214
sVapoptotic
p384
I1379
sVhr=0.34
p385
I1062
sVconvenient
p386
I2894
sVlatter
p387
I1370
sVresponsible
p388
I2280
sVnanorods
p389
I755
sVisolated
p390
I1000
sVrecommended
p391
I2381
sVsubjects
p392
I1341
sV\u000a 
p393
I145
sVcomplexed
p394
I2070
sVdisruptor
p395
I801
sVbst
p396
I867
sVglands
p397
I822
sVcomplexes
p398
I2514
sVnorepinephrine
p399
I462
sVinvolving
p400
I2406
sVcarcinoma
p401
I648
sVcycloheximide
p402
I2274
sVentry
p403
I2630
sVphase
p404
I2792
sVassessed
p405
I1346
sVpapillomavirus
p406
I373
sVpseudouridine
p407
I3272
sVsub
p408
I2010
sVpotency
p409
I2220
sVoritavancin
p410
I2702
sVcamp
p411
I2146
sVlps
p412
I1154
sVinferred
p413
I1391
sVimmunoreactivity
p414
I746
sVanticancer
p415
I1628
sV+
I1870
sVsignatures
p416
I2214
sVhunger
p417
I1538
sVreductions
p418
I1650
sVcontributed
p419
I2325
sVrandom
p420
I2661
sV/pmg
p421
I2895
sVpkc
p422
I807
sVattempts
p423
I2970
sVpka
p424
I400
sVsolutions
p425
I2399
sVadenosyltransferase
p426
I553
sVanalogue
p427
I1451
sVcd91
p428
I2924
sV2cxm
p429
I1289
sVd3
p430
I1016
sVd1
p431
I1464
sVkinase
p432
I47
sVmaturation
p433
I2122
sVdnmt
p434
I2216
sValdh
p435
I1145
sVdl
p436
I543
sVcholangiocarcinoma
p437
I650
sV10
p438
I1635
sVdg
p439
I2244
sVsolution-
p440
I2126
sVumbilical
p441
I1085
sVdegradation
p442
I975
sVtgf-r1
p443
I1964
sVyfp
p444
I2141
sVreversal
p445
I2044
sVdespite
p446
I3277
sVanxiolytic
p447
I1209
sVldl
p448
I695
sVrodent
p449
I2651
sVbat
p450
I1618
sVcontributes
p451
I1570
sVbap
p452
I3239
sVemb
p453
I2751
sVheterocyclic
p454
I2486
sVvincristine
p455
I874
sVmicroscopy
p456
I1949
sVhypoxemia
p457
I1923
sVperoxide
p458
I3196
sVemt
p459
I917
sVgrp78
p460
I2451
sVrelease
p461
I575
sVepcam
p462
I1318
sVo111
p463
I124
sVreference
p464
I1340
sVperipheral
p465
I1697
sVtesting
p466
I2375
sValterations
p467
I1588
sVobserved
p468
I970
sVcattle
p469
I119
sVfail
p470
I1662
sVsporadic
p471
I1241
sVperfluorocarbon
p472
I1878
sVt790
p473
I1666
sVfrontline
p474
I2095
sVdexmedetomidine
p475
I1203
sVoncogene
p476
I1240
sVcapacity
p477
I1401
sVanalyze
p478
I1740
sVrings
p479
I2916
sVartificial
p480
I2664
sVil6
p481
I605
sVscore
p482
I2109
sVfeatures
p483
I1843
sVfinger
p484
I2206
sVglutamine
p485
I2204
sVtolerance
p486
I354
sVjaborandi
p487
I1187
sVpreserve
p488
I1686
sVwe
p489
I28
sVwd
p490
I2383
sV38%
p491
I1649
sVextend
p492
I2971
sVsera
p493
I2958
sVhowever
p494
I514
sVwt
p495
I2772
sVmek
p496
I451
sVextent
p497
I191
sVmodeling
p498
I1176
sVendothelium
p499
I3050
sVnegatively
p500
I1757
sVarthritis
p501
I2000
sVimprove
p502
I1475
sVsuggested
p503
I936
sVreceived
p504
I1078
sVphospho
p505
I1413
sVagonist
p506
I1206
sVmalarial
p507
I1959
sVresistant
p508
I707
sVderegulation
p509
I1371
sVconclusions
p510
I3297
sVagainst
p511
I154
sVparticipating
p512
I1601
sVsecretion
p513
I857
sVh46a
p514
I1506
sVreceiver
p515
I2461
sVchina
p516
I2088
sVkinase-3
p517
I2422
sVsupplementation
p518
I1908
sVand
p519
I18
sVomega-3
p520
I225
sVchd
p521
I1760
sVrheological
p522
I2394
sVhad
p523
I1334
sVmutations
p524
I1238
sVviruses
p525
I631
sVdeleterious
p526
I2755
sVapplicability
p527
I558
sVldla[sr
p528
I1410
sVarsenic
p529
I1990
sVxx/
p530
I3132
sVhypochlorite
p531
I3199
sV16s
p532
I1984
sVtargeting
p533
I764
sVbasis
p534
I1183
sVthree
p535
I955
sVbeen
p536
I407
sV.
I26
sVp=0.069
p537
I2165
sVdox)-treated
p538
I2452
sV362
p539
I2179
sVdetrimental
p540
I903
sVacuity
p541
I2758
sVobese
p542
I328
sVlife
p543
I1356
sVmcl
p544
I1725
sVlifa
p545
I203
sVdrugs
p546
I596
sVsuppress
p547
I1141
sVbladder
p548
I588
sVcarbamazepine
p549
I1309
sVautocrine
p550
I2026
sVfibroblast
p551
I249
sVrotarod
p552
I3205
sV0.13
p553
I3059
sVmcv
p554
I666
sV167
p555
I1074
sValtered
p556
I1442
sVapplied
p557
I963
sVcytotoxic
p558
I1829
sVinhibit
p559
I129
sV 
I364
sVtgns
p560
I759
sVspontaneously
p561
I3157
sVlesser
p562
I190
sVcalcium
p563
I524
sVh]-paclitaxel
p564
I1116
sV46.8%
p565
I1055
sVproperty
p566
I1324
sVleaves
p567
I2603
sV-0.06
p568
I3251
sVassociations
p569
I3222
sVcylinder
p570
I3204
sV-0.03
p571
I3255
sValkaloid
p572
I1195
sVmir-664b-5p
p573
I2932
sVbroth
p574
I2235
sVstreptococcal
p575
I2712
sVit
p576
I179
sV-0.09
p577
I3253
sVreceptor-1
p578
I2494
sVcharacterize
p579
I243
sVtissue
p580
I1903
sVexperience
p581
I2534
sVin
p582
I34
sVelevation
p583
I2256
sVic
p584
I3091
sVupregulated
p585
I968
sVinteracts
p586
I2208
sV33%
p587
I1639
sVif
p588
I488
sV0.472
p589
I2105
sVcontaining
p590
I1807
sVseverity
p591
I107
sVsuggest
p592
I222
sVrecurrent
p593
I1217
sVdha
p594
I2744
sVmcm7/p
p595
I505
sValveoli
p596
I2061
sVcomplex
p597
I2718
sVth+
p598
I1640
sVphenotype
p599
I1390
sVaccumulating
p600
I727
sVplates
p601
I1733
sVseveral
p602
I517
sVsulfoxide
p603
I2401
sVsurvival
p604
I969
sVindependent
p605
I3299
sVsatellite
p606
I569
sVselectin
p607
I2062
sVsocial
p608
I2477
sVpharmacological
p609
I562
sVgarlic
p610
I1752
sVi.
p611
I3080
sVcycle
p612
I502
sVglp-1
p613
I287
sVhr=0.21
p614
I1064
sVddavp
p615
I1830
sVhsulf-1
p616
I810
sVfemoral
p617
I2158
sV80%
p618
I2304
sVpathological
p619
I2028
sVsquamous
p620
I369
sVincapable
p621
I2783
sVquantitative
p622
I1597
sVthe
p623
I30
sV800
p624
I2709
sVplaque
p625
I3000
sVleft
p626
I337
sVneutrophils
p627
I2058
sVcisplatin
p628
I71
sVbirth
p629
I2314
sVproposed
p630
I409
sVtxn
p631
I2823
sVsequestration
p632
I1259
sVassigned
p633
I2662
sVidentify
p634
I2760
sVsalivary
p635
I821
sVhuman
p636
I65
sVdopamine
p637
I745
sVmodulate
p638
I183
sVfunctionally
p639
I1546
sVprevious
p640
I1101
sVthyroid
p641
I1234
sVadding
p642
I2933
sVmonitored
p643
I2147
sVcandidate
p644
I1466
sVregarded
p645
I2038
sVmcf-7
p646
I1219
sVmirnas
p647
I1590
sVtopical
p648
I379
sVn
I57
sVaffinity
p649
I467
sVevidenced
p650
I2373
sVallele
p651
I2995
sVhas
p652
I406
sVplasma
p653
I344
sVexhibited
p654
I2413
sVfluidity
p655
I2626
sVvasopressin
p656
I2021
sVrna
p657
I13
sVcombination
p658
I438
sVpossible
p659
I1329
sVbackground
p660
I3278
sVlymphoma
p661
I2269
sVadvanced
p662
I1216
sVcognitive
p663
I2546
sVnude
p664
I944
sVvip
p665
I1915
sVadiponectin
p666
I2593
sVspecific
p667
I1006
sVchemoresistant
p668
I2810
sVsteps
p669
I1435
sVglucosamine
p670
I3033
sVhepatic
p671
I708
sV5%
p672
I559
sVrb/h2ax
p673
I506
sVp450
p674
I3234
sVeaenp
p675
I2520
sVinterestingly
p676
I2506
sVdemonstrated
p677
I110
sVbeneficial
p678
I2073
sVold
p679
I2771
sVachievable
p680
I2727
sVsuccessfully
p681
I1033
sVelderly
p682
I1889
sVdifferentiate
p683
I2834
sVescape
p684
I2039
sVchromosomes
p685
I3143
sVcreer
p686
I2139
sVsilkworms
p687
I3096
sVcocaine
p688
I2962
sVdense
p689
I1468
sVcns
p690
I415
sVfor
p691
I159
sVgenotyped
p692
I2174
sVopposite
p693
I3280
sVnervosa
p694
I473
sV/
I59
sVmetabolisms
p695
I3127
sVcontributing
p696
I737
sVtmz)-based
p697
I1080
sVhydroxyurea
p698
I1670
sVtkis
p699
I1657
sVcortical
p700
I1702
sVicv
p701
I446
sVmcf-10a
p702
I3104
sVcord
p703
I2805
sVcore
p704
I1599
sVplt
p705
I687
sVcancerogenesis
p706
I2084
sVcodifies
p707
I2596
sVelucidate
p708
I741
sVcorn
p709
I2127
sVpredicting
p710
I2169
sVhaptoglobin
p711
I2921
sVbreeder
p712
I2536
sVmetastatic
p713
I3303
sVfilaments
p714
I2019
sVpost
p715
I84
sVproperties
p716
I1211
sVheparin
p717
I815
sVpromise
p718
I3046
sVfluoride
p719
I1950
sVmonths
p720
I2248
sVadipose
p721
I1902
sVlmca
p722
I2582
sVo
I305
sVd.p.i
p723
I2502
sVplus
p724
I2935
sVapomorphine
p725
I3201
sVnsc
p726
I2436
sVbrca1-mutated
p727
I2931
sVleptin
p728
I2526
sVmicrodilution
p729
I2236
sVsod
p730
I1269
sVfacility
p731
I2537
sVdni
p732
I2454
sVosteocalcin
p733
I1979
sVrotations
p734
I3202
sVhdacs
p735
I3026
sVdown
p736
I75
sVikarugamycin
p737
I2007
sVreducing
p738
I94
sVrounds
p739
I2335
sVanorexia
p740
I472
sVprolactin
p741
I1771
sV18-positive
p742
I3149
sVnucleotide
p743
I3180
sVsupport
p744
I3283
sVautoradiography
p745
I1744
sVmutated
p746
I2351
sVaccordingly
p747
I2043
sVclinical
p748
I88
sVtamr
p749
I510
sVtams
p750
I1875
sVmb-231
p751
I1631
sVwas
p752
I7
sVmetabolism
p753
I536
sVsynthesis
p754
I303
sVhead
p755
I2312
sVchorionic
p756
I2131
sVhcmv
p757
I2277
sVosteopenic
p758
I1359
sVh004
p759
I2875
sVattempted
p760
I2034
sVdifferences
p761
I2112
sV1.4(0.3)%
p762
I1294
sVsedative
p763
I1208
sVtaken
p764
I1364
sVestimation
p765
I3005
sV-oxidation
p766
I709
sVencoded
p767
I205
sVdocetaxel
p768
I2690
sVrenal
p769
I1046
sV5-fu
p770
I423
sVss469415590
p771
I2167
sVinjury
p772
I1699
sVreproductive
p773
I2342
sVassessment
p774
I1541
sVreceptor-2
p775
I67
sVamylopectin
p776
I2397
sVhistochemical
p777
I2571
sVphosphate
p778
I2564
sVcancers
p779
I767
sVglycosyltransferase
p780
I115
sVadenosine
p781
I1710
sVmtc
p782
I1235
sVvenules
p783
I2053
sVoriginating
p784
I2068
sV150
p785
I3042
sVhistologically
p786
I1075
sVproved
p787
I1724
sVevidence
p788
I580
sVzoledronate
p789
I1687
sVgland
p790
I1421
sVconserved
p791
I157
sV0.63
p792
I3058
sVcreatinine
p793
I1268
sVtooth
p794
I1692
sVdeadly
p795
I2940
sVgadofosveset
p796
I2589
sVconstructed
p797
I1632
sVezh2-knocking
p798
I74
sVnk
p799
I196
sVmelanoma
p800
I832
sVnm
p801
I2705
sVno
p802
I433
sVna
p803
I1996
sVwhereas
p804
I794
sVwhen
p805
I512
sVne
p806
I574
sVhct116
p807
I435
sVfarnesylthiosalicylic
p808
I2669
sVsetting
p809
I780
sVrole
p810
I603
sVacetaminophen
p811
I798
sVtest
p812
I246
sVtib
p813
I2440
sVcortex
p814
I1440
sVpulse
p815
I2106
sVmodels
p816
I475
sVil-6
p817
I1797
sV6-ohda
p818
I3207
sVil-1
p819
I2077
sVil-2
p820
I133
sVammonium
p821
I3194
sVconcurrent
p822
I1103
sValleviated
p823
I3200
sVfabry
p824
I236
sVmmp7
p825
I3166
sVsphingosine
p826
I2225
sV0.449
p827
I2294
sVpotato
p828
I2395
sVfsh
p829
I2135
sV-responsive
p830
I2425
sVdaily
p831
I838
sVmuscarinic
p832
I2490
sVtime
p833
I895
sVtransiently
p834
I2689
sVnuclei
p835
I1942
sVadjacent
p836
I3099
sVrestored
p837
I2800
sVbiotin
p838
I1937
sV6-week
p839
I2738
sVchain
p840
I1897
sVtamoxifen
p841
I513
sVvarying
p842
I1974
sVactivated
p843
I45
sVgadoterate
p844
I2583
sV-3.42
p845
I3247
sVsupplement
p846
I2092
sVskin
p847
I2097
sVremarkably
p848
I2701
sVros
p849
I360
sVretention
p850
I2271
sVzone
p851
I1002
sVpolyunsaturated
p852
I1898
sVtechnique
p853
I3008
sVrecurrence
p854
I1061
sVfinally
p855
I143
sVpromoting
p856
I1561
sVintercellular
p857
I2063
sVfolfox
p858
I1806
sVhepg2
p859
I2196
sVmethyl
p860
I533
sVfrequencies
p861
I2886
sV0.0396
p862
I3001
sVmg
p863
I842
sVu251
p864
I2392
sVhepatocytes
p865
I548
sVtki
p866
I2238
sVrespiratory
p867
I1335
sVprophylactic
p868
I2496
sVlevel
p869
I399
sVdid
p870
I865
sVwho
p871
I1077
sVp
I1430
sV0.622
p872
I2465
sVaccumulation
p873
I884
sVcaki-1
p874
I1627
sVapplication
p875
I2143
sVorchidectomized
p876
I2775
sVfindings
p877
I281
sVtrend
p878
I2162
sVphosphorylated
p879
I1742
sVprediction
p880
I2472
sVslowed
p881
I2432
sVepac
p882
I2152
sVpma
p883
I2316
sVepithelia
p884
I1946
sVprefrontal
p885
I3015
sVbacterial
p886
I1501
sVbacteria
p887
I2714
sVcremaster
p888
I2066
sVmchc
p889
I680
sVcurrent
p890
I2560
sVmyelosuppression
p891
I1125
sVarabinose
p892
I2753
sVphosphatase
p893
I1968
sVisoforms
p894
I1149
sVvasorelaxation
p895
I3051
sVpac-1
p896
I2443
sValkaline
p897
I1967
sVgenes
p898
I531
sVmultidrug
p899
I722
sVunderstanding
p900
I1476
sVstrontium
p901
I1348
sViarc
p902
I628
sVgroups
p903
I712
sValone
p904
I1200
sV[
I632
sVcolonization
p905
I118
sVappears
p906
I2947
sVchange
p907
I866
sVbox
p908
I1766
sVcranial
p909
I1278
sVhealthy
p910
I1400
sVstudied
p911
I1172
sVmir-125b
p912
I2654
sVcommonly
p913
I1719
sVtrial
p914
I387
sVe1-nr.7
p915
I3184
sVusually
p916
I1021
sVresonance
p917
I988
sVhbv
p918
I635
sVstudies
p919
I221
sVinvasiveness
p920
I1783
sVprobable
p921
I2646
sVipf
p922
I599
sVextra
p923
I2787
sVinducing
p924
I1764
sVmodifying
p925
I404
sVreceptors
p926
I1490
sVmarker
p927
I490
sVislet
p928
I2533
sVantihypertrophic
p929
I1993
sVsympathetic
p930
I571
sVterminal
p931
I58
sVhematocrit
p932
I662
sVpositive
p933
I749
sVperi
p934
I933
sVtnbs
p935
I3211
sVherpes
p936
I3261
sVretinopathy
p937
I1547
sViqrs
p938
I1284
sVeraf-1-inactivated
p939
I2773
sVmemory
p940
I2756
sVactin
p941
I2018
sVaustralian
p942
I264
sVtnbc
p943
I493
sVcooperated
p944
I2286
sVaspirin
p945
I2888
sVua
p946
I676
sVacetylated
p947
I1382
sVsirnas
p948
I2442
sVantigens
p949
I3097
sVvisual
p950
I2757
sVcases
p951
I2389
sVinsights
p952
I284
sVstates
p953
I2267
sVpolypeptide
p954
I2262
sVp=0.028
p955
I2255
sVoriginally
p956
I431
sVibd
p957
I1789
sVlabeled
p958
I1026
sVligase
p959
I2598
sVvalues
p960
I690
sVcan
p961
I1140
sVaripiprazole
p962
I2258
sVfollowing
p963
I1675
sVmaking
p964
I1776
sVtrans
p965
I1416
sVpc9ev
p966
I1535
sVstimulating
p967
I1973
sVheart
p968
I578
sVnursing
p969
I3129
sVcav1
p970
I3049
sVpredict
p971
I3301
sVfenofibrate
p972
I713
sVdistillation
p973
I2910
sVagent
p974
I277
sVtopic
p975
I386
sVstroke
p976
I2857
sVmzasmt9
p977
I316
sVperformed
p978
I1526
sVlysosomes
p979
I1521
sVcardio
p980
I1904
sVserum
p981
I696
sVmgf
p982
I1957
sVlipoproteins
p983
I1778
sVasmt
p984
I307
sVwarfarin
p985
I255
sVoffspring
p986
I2577
sV1
I629
sVimmune
p987
I2622
sVhypersensitivity
p988
I1314
sVpure
p989
I2852
sVmicronuclei
p990
I2885
sVpathway
p991
I185
sVoxaliplatin
p992
I1809
sVcerebrovasculature
p993
I2871
sVproduct
p994
I2279
sVefficacies
p995
I2093
sVmay
p996
I774
sVfed
p997
I1095
sV148
p998
I2207
sV0.1(0.2)%
p999
I1296
sV3.345
p1000
I3288
sVproduce
p1001
I1508
sVsnr
p1002
I1469
sVcardiac
p1003
I565
sVsuch
p1004
I468
sV0.79
p1005
I3064
sVrevealed
p1006
I319
sVman
p1007
I2829
sVstress
p1008
I806
sVnatural
p1009
I2178
sVneck
p1010
I2159
sVliquid
p1011
I1746
sVdevd
p1012
I2673
sVsr
p1013
I1406
sVpurify
p1014
I2898
sVtriglyceride
p1015
I97
sVsk
p1016
I1470
sVaccelerated
p1017
I1668
sVsh
p1018
I642
sVsn
p1019
I2357
sVsamd3
p1020
I1955
sVsb
p1021
I2591
sVantituberculosis
p1022
I2752
sVtccho
p1023
I3035
sVidiosyncratic
p1024
I1177
sVtypical
p1025
I1693
sVlsd
p1026
I235
sVshrna
p1027
I1483
sVvancomycin
p1028
I994
sVneferine
p1029
I2193
sV092
p1030
I2048
sVdisplayed
p1031
I1427
sV-0.22
p1032
I3250
sVyears
p1033
I263
sVstability
p1034
I684
sVcourse
p1035
I827
sVexperiments
p1036
I563
sVstill
p1037
I790
sVskeleton
p1038
I2827
sVblocked
p1039
I500
sVobservational
p1040
I3310
sVpolyangiitis
p1041
I2003
sVhepatotoxin
p1042
I1171
sVrecombinant
p1043
I187
sVgroup
p1044
I534
sVmonitor
p1045
I2833
sV0.451
p1046
I2110
sVpresence
p1047
I1837
sVmethodology
p1048
I2405
sVdecreases
p1049
I2359
sVforms
p1050
I1256
sVlipidomic
p1051
I1525
sVwindow
p1052
I836
sVdecreased
p1053
I552
sVmain
p1054
I1861
sVuptake
p1055
I1408
sVbasiliximab
p1056
I2231
sVtoxin
p1057
I2628
sVnon
p1058
I199
sVrapamycin
p1059
I50
sVttt-28
p1060
I1112
sVthereby
p1061
I1621
sVabcg1
p1062
I2013
sVfetoprotein
p1063
I3308
sVinsomnia
p1064
I2254
sVinvestigated
p1065
I760
sVezetimibe
p1066
I96
sVnot
p1067
I195
sVdiscuss
p1068
I29
sVnor
p1069
I2119
sVpossess
p1070
I150
sV31.25
p1071
I3206
sVadminister
p1072
I1127
sVterm
p1073
I1581
sVendotoxemia
p1074
I1910
sVcd133
p1075
I2717
sVldn-193189
p1076
I1780
sVpaclitaxel
p1077
I1126
sVtunel
p1078
I1940
sVproteins
p1079
I1380
sV0,019
p1080
I2295
sVuspio
p1081
I1877
sVrock
p1082
I1228
sVgabaergic
p1083
I2807
sVdomain
p1084
I2641
sVdifferential
p1085
I3133
sVsignificantly
p1086
I332
sVcystatin
p1087
I4
sVabnormal
p1088
I1602
sVbovine
p1089
I189
sVowing
p1090
I1192
sVghrelin
p1091
I2527
sVex
p1092
I1185
sVentering
p1093
I2784
sVyear
p1094
I1342
sVmethotrexate
p1095
I485
sVmapping
p1096
I3110
sVev
p1097
I1534
sV-transformed
p1098
I138
sVer
p1099
I2217
sVhcs
p1100
I267
sVshown
p1101
I1701
sVhcv
p1102
I636
sVfactors
p1103
I645
sVa)-peptide
p1104
I2508
sVfurthermore
p1105
I70
sVinterference
p1106
I160
sVmalignancies
p1107
I1826
sVincrease
p1108
I670
sVhcc
p1109
I2195
sVp<0.003
p1110
I3060
sVhcg
p1111
I2133
sVrational
p1112
I2831
sVsuggesting
p1113
I1328
sVdehydrogenase
p1114
I673
sVsensor
p1115
I2328
sVshows
p1116
I809
sVtransmigration
p1117
I2060
sVe.
p1118
I2338
sVcooperatively
p1119
I1110
sVolder
p1120
I3290
sVipscs
p1121
I2976
sV-glucosidase
p1122
I2902
sVmyofunctional
p1123
I2680
sVseventh
p1124
I678
sVciap1
p1125
I979
sVpossibility
p1126
I3146
sVdiagnostic
p1127
I3118
sVe8
p1128
I2731
sVcounteracted
p1129
I904
sVe1
p1130
I2819
sVnf-b
p1131
I937
sVcare
p1132
I1825
sVtraining
p1133
I689
sVmethylation
p1134
I1709
sVamyloid
p1135
I2507
sV5/6nx
p1136
I444
sVtransition
p1137
I1568
sVbel-7402
p1138
I2197
sVroutes
p1139
I1499
sVsubstrates
p1140
I715
sVfirst
p1141
I239
sVblind
p1142
I1344
sVhydrocarbons
p1143
I2484
sVsurviving
p1144
I864
sVreveals
p1145
I1258
sVdimethyl
p1146
I268
sVvariables
p1147
I2311
sVone
p1148
I1129
sVspecifically
p1149
I2522
sVmpnst
p1150
I1784
sVspecificity
p1151
I3081
sVhemiparkinsonian
p1152
I3208
sVopen
p1153
I2914
sVsize
p1154
I1385
sVgiven
p1155
I613
sVgenotype
p1156
I2168
sV0.0363
p1157
I3002
sVtrisodium
p1158
I2590
sVionomycin
p1159
I218
sVfibrinogen
p1160
I1497
sVuric
p1161
I675
sVsdcbp
p1162
I489
sVstimulation
p1163
I211
sVindicate
p1164
I491
sV2
I295
sVfmk
p1165
I2674
sVglyma18g12240
p1166
I6
sVstructures
p1167
I1557
sVdendrimer
p1168
I2780
sVa
I2
sVamines
p1169
I2487
sVmostly
p1170
I2974
sVthat
p1171
I111
sVcontinuous
p1172
I3053
sVadrenergic
p1173
I577
sVsiha
p1174
I3150
sVreleased
p1175
I1463
sVgerm
p1176
I3131
sVeliminated
p1177
I1098
sVthan
p1178
I355
sVpopulation
p1179
I2173
sV11
p1180
I3041
sVwide
p1181
I1244
sV13
p1182
I2624
sV12
p1183
I324
sV15
p1184
I1399
sV14
p1185
I2498
sV16
p1186
I3153
sV18
p1187
I2246
sVdimercaptosuccinic
p1188
I2457
sVa-07
p1189
I828
sVr
I879
sV1%
p1190
I2797
sVmagnesium
p1191
I3074
sVwere
p1192
I320
sVoutcome
p1193
I3268
sVphotosynthesis
p1194
I363
sVmedullary
p1195
I1233
sVpre
p1196
I2695
sVdisruptors
p1197
I3228
sVaddressing
p1198
I1500
sVphosphoinositide-3-kinase
p1199
I2955
sVremained
p1200
I2808
sVnapqi
p1201
I795
sVintratumoral
p1202
I1734
sVhif-1dependent
p1203
I2419
sV0.7(0.3)%
p1204
I1292
sV13th
p1205
I681
sVinhibiting
p1206
I983
sVsensitizes
p1207
I909
sVconversion
p1208
I786
sVheterotypic
p1209
I2052
sVform
p1210
I1242
sVefficient
p1211
I2893
sVtranscription
p1212
I924
sVrrmm
p1213
I2838
sVzol
p1214
I1688
sVhpv-18
p1215
I3094
sVethambutol
p1216
I2750
sVtake
p1217
I1977
sVobjective
p1218
I528
sVperformance
p1219
I1745
sV200
p1220
I2799
sVmultiple
p1221
I40
sVinvestigations
p1222
I2040
sVtransepithelial
p1223
I1813
sVincidence
p1224
I2438
sVcatalase
p1225
I1683
sVbeta
p1226
I3243
sVdetect
p1227
I1874
sVimportantly
p1228
I1320
sVrationale
p1229
I2763
sV]
I640
sVfcm
p1230
I3188
sVsteroidogenic
p1231
I2340
sVprobes
p1232
I1027
sVd-12
p1233
I830
sVputatively
p1234
I2860
sVchemoradiotherapy
p1235
I1890
sVespecially
p1236
I511
sVdissolution
p1237
I2407
sVconsidered
p1238
I2009
sVmrs
p1239
I2201
sVmri
p1240
I1301
sVquiescent
p1241
I2818
sVsalt
p1242
I353
sVvasculitides
p1243
I2001
sVquantity
p1244
I1698
sVobstructive
p1245
I1920
sVdrastically
p1246
I2925
sVshow
p1247
I1218
sVfifty
p1248
I2237
sVdiscovered
p1249
I3160
sVrituximab
p1250
I877
sVlymphostatin
p1251
I112
sVqol
p1252
I1357
sVdata
p1253
I259
sVline
p1254
I140
sVoverexpressed
p1255
I3287
sVratio
p1256
I1655
sVstained
p1257
I2568
sVmetabolites
p1258
I1753
sVonly
p1259
I330
sVblack
p1260
I377
sVlipids
p1261
I1518
sVtransfusions
p1262
I2318
sVextracellular
p1263
I1220
sVhistone
p1264
I972
sVtissues
p1265
I1873
sVprolonged
p1266
I2474
sVserogroup
p1267
I122
sVconjunction
p1268
I1828
sVgem
p1269
I2936
sVsecondary
p1270
I86
sVreveal
p1271
I2042
sVpd-1
p1272
I1213
sVhcas
p1273
I2488
sVmedial
p1274
I1298
sVnaked
p1275
I3072
sVsubtype
p1276
I2444
sVesophageal
p1277
I1893
sVgalactosamine
p1278
I3032
sVhela
p1279
I3122
sVwhere
p1280
I2806
sVxmap
p1281
I2080
sVbenzo[a]pyrene
p1282
I3238
sVwiskostatin
p1283
I2635
sVphysically
p1284
I2209
sVdeconvolution
p1285
I3007
sVtamrs
p1286
I1595
sVcin
p1287
I561
sVrelative
p1288
I1306
sVactively
p1289
I2960
sVmtt
p1290
I1966
sVrecalcitrant
p1291
I3259
sVp53-dependent
p1292
I1225
sVlna
p1293
I1596
sVminmg
p1294
I326
sVpuma
p1295
I82
sVinhibitory
p1296
I152
sVcd105
p1297
I427
sVcompounds
p1298
I1004
sVsubsequent
p1299
I1933
sVreview
p1300
I2345
sVopscc
p1301
I2347
sVcirculating
p1302
I773
sVinhibitors
p1303
I1375
sVendothelia
p1304
I1947
sV3
I724
sVbetween
p1305
I286
sVaffecting
p1306
I3113
sVnfat
p1307
I1914
sVtherapies
p1308
I104
sVmature
p1309
I1818
sVuseful
p1310
I3125
sVparental
p1311
I1592
sVcaag
p1312
I527
sVbimetallic
p1313
I1028
sVsuppresses
p1314
I1689
sVflow
p1315
I2186
sVcarboplatin
p1316
I2767
sVrapidly
p1317
I2580
sVinclusions
p1318
I391
sVdisinfectants
p1319
I3190
sV-synuclein
p1320
I1638
sVanalyzed
p1321
I250
sV20
p1322
I1803
sVcervical
p1323
I384
sVsuppressed
p1324
I982
sVif1
p1325
I1756
sVreaction
p1326
I3071
sVcircumference
p1327
I2313
sVstages
p1328
I2557
sVaromatase
p1329
I2850
sVefficiency
p1330
I2552
sVmany
p1331
I2891
sVregion
p1332
I1600
sVsodium
p1333
I3198
sVnile
p1334
I2793
sVtocilizumab
p1335
I604
sVs
I2283
sV2-receptors
p1336
I1207
sVexpression
p1337
I83
sVv2r
p1338
I2033
sVafterwards
p1339
I2659
sVhepatotoxicity
p1340
I1166
sVcolor
p1341
I3077
sVcolony
p1342
I2493
sVperiod
p1343
I2331
sVpoly
p1344
I2904
sVconnectivity
p1345
I3011
sVanti
p1346
I274
sVlearning
p1347
I2118
sV4pba
p1348
I2984
sVmoreover
p1349
I434
sVa549
p1350
I2036
sVconsidering
p1351
I2740
sVsymptoms
p1352
I2385
sVlncrna
p1353
I2558
sVimipenem
p1354
I995
sVbevacizumab
p1355
I770
sV50%
p1356
I1386
sVser129
p1357
I1741
sVattaching
p1358
I163
sVhypertrophic
p1359
I3260
sVcombined
p1360
I217
sVcd44
p1361
I1548
sVcardiovascular
p1362
I1452
sVliving
p1363
I1047
sVprototype
p1364
I1170
sV500
p1365
I321
sVdirection
p1366
I1132
sVbmd
p1367
I1251
sVendocycles
p1368
I2336
sVmyocardial
p1369
I3116
sVdiffered
p1370
I845
sViaps
p1371
I978
sVlonely
p1372
I3126
sVprecipitate
p1373
I3076
sVrsk
p1374
I1505
sVlldt8
p1375
I2968
sVthose
p1376
I1718
sVcase
p1377
I619
sVdeveloping
p1378
I3130
sVthese
p1379
I910
sVdemethylase
p1380
I3138
sVprofiles
p1381
I747
sVhypertrophy
p1382
I1754
sVrefractory
p1383
I2835
sVdiverse
p1384
I1711
sVunreported
p1385
I3161
sVpromising
p1386
I946
sVinvestigating
p1387
I2554
sVhdl
p1388
I693
sVpolymer
p1389
I2754
sVendothelial
p1390
I1087
sVpahs
p1391
I2485
sVthen
p1392
I896
sVsoil
p1393
I3084
sVthem
p1394
I2529
sVstrain
p1395
I1156
sVsterol
p1396
I2639
sVpresentations
p1397
I2387
sVprotein
p1398
I46
sVtechnology
p1399
I2081
sVcytoskeleton
p1400
I2631
sVubiquitin
p1401
I2597
sVbinary
p1402
I2398
sVdebilitating
p1403
I1921
sVverified
p1404
I779
sVglycolysis
p1405
I2414
sVproto
p1406
I1239
sVmedia
p1407
I2429
sV5-fluorouracil
p1408
I1319
sVsame
p1409
I1700
sVfragment
p1410
I2515
sVepoch
p1411
I878
sVpad
p1412
I2844
sVpgrmc1-related
p1413
I184
sVsubunit
p1414
I2629
sVgfap
p1415
I748
sVevents
p1416
I2973
sVweek
p1417
I669
sVextended
p1418
I1100
sVni
p1419
I2897
sVpyruvate
p1420
I2415
sVfoam
p1421
I1404
sVstructurally
p1422
I2263
sVpersons
p1423
I1962
sVacetyl
p1424
I3088
sVsb203580
p1425
I2671
sVrelapse
p1426
I1664
sVdm2
p1427
I2883
sVhydroxylase
p1428
I2360
sVantibodies
p1429
I1212
sVtracking
p1430
I2722
sVtraps
p1431
I2228
sVd1r
p1432
I1465
sVlargely
p1433
I2069
sVsevere
p1434
I2882
sVwithout
p1435
I788
sVcci
p1436
I2748
sVifn-/rbv
p1437
I2184
sValleviate
p1438
I2592
sVcoordinate
p1439
I2524
sVmodel
p1440
I928
sVetm
p1441
I1290
sVccc
p1442
I2815
sVeffects
p1443
I991
sVgwas
p1444
I1246
sVsulindac
p1445
I913
sVamong
p1446
I3317
sVbeing
p1447
I2307
sVadjustments
p1448
I2681
sVci
p1449
I2467
sVactions
p1450
I2788
sVrelevant
p1451
I2153
sVupregulation
p1452
I397
sVdifferentiation
p1453
I1951
sVhomeostasis
p1454
I1540
sVweekly
p1455
I3045
sVketamine
p1456
I900
sVblot
p1457
I1152
sVcancer
p1458
I35
sVangiotensin
p1459
I2668
sVadjuvant
p1460
I787
sVpkpn
p1461
I3183
sVdopaminergic
p1462
I1641
sVseems
p1463
I2300
sVexcept
p1464
I1956
sVconfirmed
p1465
I315
sVglucuronic
p1466
I3034
sVtreatment
p1467
I381
sVsamples
p1468
I1163
sV-0.354
p1469
I2101
sVca
p1470
I2579
sVo157:h7
p1471
I146
sVreal
p1472
I1772
sVfluoroquinolone
p1473
I3172
sVaml
p1474
I1202
sVconferring
p1475
I2655
sVearly
p1476
I209
sVinhibition
p1477
I611
sVamp
p1478
I44
sV-infected
p1479
I142
sVhnha
p1480
I2941
sVrecipient
p1481
I1461
sVtoxicities
p1482
I1895
sVacute
p1483
I651
sVrrna
p1484
I1985
sVidentifying
p1485
I2388
sVt
I131
sVneuronal
p1486
I1331
sVneurologic
p1487
I2386
sVcompletely
p1488
I499
sVcolon
p1489
I2096
sVintestinal
p1490
I117
sVverteporfin
p1491
I2822
sVpasmc
p1492
I1944
sVclassified
p1493
I2859
sVerythroferrone
p1494
I1799
sVexposed
p1495
I549
sVdesmopressin
p1496
I2029
sVaza
p1497
I2945
sVibuprofen
p1498
I2317
sVduration
p1499
I2410
sVsubtypes
p1500
I1572
sVtreatments
p1501
I839
sVintact
p1502
I3039
sVchelator
p1503
I2380
sVprovided
p1504
I717
sVrabies
p1505
I1480
sVconfirm
p1506
I298
sVddr
p1507
I2761
sVextensively
p1508
I2890
sVhepatitis
p1509
I633
sVrpl
p1510
I3269
sVdepletion
p1511
I1484
sVdeficit
p1512
I1645
sVexpressing
p1513
I1146
sVmetabolomics
p1514
I990
sVo5
p1515
I123
sVamino
p1516
I2601
sVo1
p1517
I1767
sVvoluntary
p1518
I2114
sVdgla
p1519
I2091
sVnmr
p1520
I989
sVequivalent
p1521
I2561
sVck1.
p1522
I1677
sVnotably
p1523
I2965
sVclenbuterol
p1524
I1036
sVsixty
p1525
I782
sV1.1(0.4)%
p1526
I1293
sVacc
p1527
I3019
sVon
p1528
I248
sVcentral
p1529
I412
sVacd
p1530
I1791
sVastrocytes
p1531
I750
sVof
p1532
I32
sVmethacrylate
p1533
I2907
sVtumor
p1534
I812
sVn=532
p1535
I3062
sV0.034
p1536
I3291
sVact
p1537
I208
sVconcentrations
p1538
I539
sVov
p1539
I643
sVos
p1540
I826
sVor
p1541
I99
sVlocally
p1542
I1892
sV\u000a
I137
sVcyclophosphamide
p1543
I875
sVspinal
p1544
I2804
sVfrster
p1545
I2148
sVerlotinib
p1546
I705
sVpredictive
p1547
I2455
sVdetermine
p1548
I2212
sVtransporter
p1549
I721
sVabrogate
p1550
I2322
sVhyperglycemia
p1551
I732
sVintervention
p1552
I1137
sVvalcyclovir
p1553
I3266
sVarea
p1554
I2460
sVpharmacogenotypes
p1555
I253
sVthere
p1556
I594
sVcarbapenems
p1557
I3170
sVdetectable
p1558
I1473
sVlow
p1559
I694
sVst307
p1560
I3175
sVbortezomib
p1561
I2826
sVcultures
p1562
I1834
sVfish
p1563
I2795
sVtyrosine
p1564
I1179
sVdasatinib
p1565
I495
sVmda
p1566
I1630
sVcomplete
p1567
I880
sVstressors
p1568
I2479
sVjun
p1569
I56
sVdelayed
p1570
I1577
sVcloned
p1571
I308
sVposterior
p1572
I2298
sVthapsigargin
p1573
I2427
sVpc9r
p1574
I1530
sVmolecule-1
p1575
I2065
sVimpedance
p1576
I1336
sVmice
p1577
I416
sVpromote
p1578
I21
sVwith
p1579
I212
sVrhamnose
p1580
I3031
sVbiosensor
p1581
I2151
sVregimen
p1582
I1881
sVoctober
p1583
I3216
sVapplying
p1584
I2185
sVnestin
p1585
I2138
sV/r26r
p1586
I2140
sVdoxorubicin
p1587
I876
sV18.9-
p1588
I459
sVbigelovin
p1589
I1802
sVrescued
p1590
I2334
sVstrongly
p1591
I1846
sVab
p1592
I1161
sVautoimmune
p1593
I419
sVad
p1594
I2653
sVag
p1595
I1031
sVaf
p1596
I2098
sV-chemosensitive
p1597
I2813
sVcertain
p1598
I2361
sVmetastasis
p1599
I1571
sVsmd=0.41
p1600
I3063
sVgeneral
p1601
I825
sV60%
p1602
I1652
sVsubstantially
p1603
I846
sVcbp
p1604
I2934
sVldlc
p1605
I2998
sVau
p1606
I1030
sVat
p1607
I667
sVcbz
p1608
I1310
sVmelatonin
p1609
I302
sVhospitals
p1610
I3192
sVconcanavalin
p1611
I213
sVcream
p1612
I560
sVpmol
p1613
I325
sVmir-30c
p1614
I1626
sVinactivation
p1615
I2828
sVstorage
p1616
I233
sV4.8
p1617
I1054
sVaromatic
p1618
I2483
sV5fu
p1619
I2720
sVigg
p1620
I469
sVigf
p1621
I1486
sV5
I930
sVphenol
p1622
I3197
sVspatial
p1623
I2117
sVcorrelates
p1624
I2083
sV365-kda
p1625
I206
sVimmunity
p1626
I2889
sVfruitless
p1627
I2975
sVgermline
p1628
I1237
sV5-flurouracil
p1629
I2094
sVhypertension
p1630
I1924
sVa.
p1631
I849
sVtetracycline
p1632
I2612
sVimportant
p1633
I116
sVnucleus
p1634
I2785
sVpeak
p1635
I2692
sVincluded
p1636
I1738
sVproteomic
p1637
I3163
sVpool
p1638
I2587
sVunresponsive
p1639
I2920
sVcytotoxicity
p1640
I971
sVgastric
p1641
I646
sVdeoxyuridine
p1642
I1935
sVclinically
p1643
I251
sVacids
p1644
I227
sVcurve
p1645
I3289
sVnitric
p1646
I2074
sVexcretion
p1647
I1566
sVinhibited
p1648
I219
sVmass
p1649
I342
sVbehavioral
p1650
I2374
sVhdac
p1651
I702
sVnutrient
p1652
I2327
sVsignalling
p1653
I1707
sVoral
p1654
I403
sVcitrate
p1655
I1349
sVsplicing
p1656
I1715
sVall
p1657
I853
sValk
p1658
I1374
sVchinese
p1659
I2172
sVpth
p1660
I1229
sVcaused
p1661
I1236
sVatheroprotection
p1662
I1560
sVlack
p1663
I1148
sVmonth
p1664
I2770
sVsystemic
p1665
I739
sVnitroglycerin
p1666
I2369
sVzinc
p1667
I948
sVptx
p1668
I2621
sVfollow
p1669
I3318
sVals
p1670
I793
sVcauses
p1671
I1305
sVsynthetic
p1672
I2030
sVresponsiveness
p1673
I1458
sVbolus
p1674
I3006
sVsulfate
p1675
I816
sVdiffuse
p1676
I3115
sVpembrolizumab
p1677
I1215
sVto
p1678
I20
sVbiliary
p1679
I2981
sVtj
p1680
I800
sVth
p1681
I1743
sVpresentation
p1682
I135
sVtc
p1683
I2999
sVdegeneration
p1684
I2358
sVactivities
p1685
I671
sVurea
p1686
I1267
sVvery
p1687
I1467
sVapoptosis
p1688
I73
sVg6pd
p1689
I1963
sVplausibility
p1690
I616
sVfat
p1691
I476
sVresistance
p1692
I723
sVblockade
p1693
I1097
sVnovel
p1694
I701
sVdifference
p1695
I889
sVenter
p1696
I2698
sVtreating
p1697
I293
sVdisp3/ptchd2
p1698
I2638
sVdiet
p1699
I477
sVskeletal
p1700
I2595
sVt4
p1701
I1623
sVt3
p1702
I1625
sVphosphorylation
p1703
I401
sVprogesterone
p1704
I174
sVtubulin
p1705
I1605
sVsensitivity
p1706
I441
sVsmall
p1707
I618
sVbiological
p1708
I615
sVanal
p1709
I368
sVbaff
p1710
I1816
sVdecidualization
p1711
I1768
sVrats
p1712
I445
sVten
p1713
I2658
sVnbs
p1714
I2990
sVtea
p1715
I2315
sVrate
p1716
I858
sVnivolumab
p1717
I1214
sVquebec
p1718
I3191
sVfurther
p1719
I297
sVfunctioning
p1720
I1446
sVototoxic
p1721
I1578
sVactivates
p1722
I939
sVcues
p1723
I2525
sVdarkness
p1724
I2005
sVoverload
p1725
I3120
sVthickness
p1726
I1703
sVmethod
p1727
I1555
sVcontrast
p1728
I1584
sVcohorts
p1729
I2959
sVfty720
p1730
I2649
sVcomponent
p1731
I1023
sVresulted
p1732
I350
sVhours
p1733
I2856
sVwild
p1734
I356
sVdocosahexanenoic
p1735
I2743
sVoperating
p1736
I2462
sVnovember
p1737
I1083
sV900
p1738
I1608
sVstriatum
p1739
I1447
sVmannosyl
p1740
I3270
sVneocortical
p1741
I2573
sV~~[[2
p1742
I3
sV~~[[1
p1743
I12
sVprior
p1744
I589
sVamount
p1745
I728
sVlc3-ii
p1746
I1587
sVstiffness
p1747
I1221
sV90%
p1748
I2402
sVaction
p1749
I1905
sVvs.as
p1750
I2305
sVtoxicity
p1751
I1011
sVoptions
p1752
I1659
sVrepressor
p1753
I952
sVgranulocyte
p1754
I2876
sVvia
p1755
I1367
sVfamily
p1756
I953
sViminodiacetic
p1757
I2913
sVly294002
p1758
I3086
sVairway
p1759
I1945
sVegfr
p1760
I1656
sVesrd
p1761
I1426
sVregimens
p1762
I2768
sVaimed
p1763
I555
sVrko
p1764
I2814
sVaberrant
p1765
I1604
sVdentate
p1766
I2123
sVconventional
p1767
I1018
sV-la
p1768
I2742
sVeye
p1769
I3073
sVdistinct
p1770
I2946
sVmpfc
p1771
I3016
sVcd163
p1772
I2922
sVcontains
p1773
I954
sVtwo
p1774
I595
sVabcb1
p1775
I1117
sVcall
p1776
I3009
sV17-year
p1777
I3305
sVmirna
p1778
I2930
sV6
I2245
sVcadherin
p1779
I920
sV0.006
p1780
I3257
sVltbi
p1781
I1162
sVmetformin
p1782
I33
sV0.002
p1783
I2108
sV0.001
p1784
I1432
sVmore
p1785
I1167
sVavp
p1786
I2022
sVfam132b
p1787
I1811
sVinitiates
p1788
I2786
sVantibiotics
p1789
I1575
sV17-estradiol
p1790
I2476
sVfilamentous
p1791
I2016
sVparticular
p1792
I1369
sVknown
p1793
I202
sVdex
p1794
I1204
sVh19
p1795
I2559
sVanticoagulated
p1796
I2367
sVcluster
p1797
I1492
sVlipoprotein
p1798
I692
sVaba
p1799
I882
sVderivate
p1800
I2873
sVendocytosis
p1801
I1852
sVabundant
p1802
I1988
sVigfbps
p1803
I1550
sVpazopanib
p1804
I1178
sVv
I1831
sVstrategies
p1805
I292
sVdecitabine
p1806
I2221
sVmale
p1807
I2617
sVspontaneous
p1808
I2170
sVtunicamycin
p1809
I2426
sVaminoglycoside
p1810
I1574
sVcompare
p1811
I3187
sVdiabetic
p1812
I3025
sVshare
p1813
I2446
sV  
p1814
I3252
sVradiotherapy
p1815
I1912
sVprotective
p1816
I1099
sVlacks
p1817
I1472
sVspecies
p1818
I1191
sVaxis
p1819
I507
sVtransduction
p1820
I1455
sVinformation
p1821
I288
sVavailable
p1822
I367
sVgoal
p1823
I2211
sVmapk
p1824
I63
sVacts
p1825
I2032
sVshipped
p1826
I2535
sVacth
p1827
I606
sVdonors
p1828
I1050
sVoccur
p1829
I2556
sViso
p1830
I3185
sVantileukemic
p1831
I1198
sVm1gas
p1832
I1507
sVmesenchymal
p1833
I922
sVorbital
p1834
I1438
sVcytokine
p1835
I192
sVprognostic
p1836
I3300
sVderived
p1837
I848
sVdifferent
p1838
I1389
sVfa
p1839
I550
sV/l
p1840
I1958
sVfd
p1841
I238
sVfe
p1842
I698
sVinvasion
p1843
I1366
sVdynasore
p1844
I1850
sVresponse
p1845
I537
sVortholog
p1846
I173
sVchimeric
p1847
I1821
sVshort
p1848
I2046
sVstriatal
p1849
I1646
sVenzymes
p1850
I1682
sVperitonitis
p1851
I1729
sVcd90
p1852
I426
sVmap2
p1853
I2572
sVdiets
p1854
I3285
sVnsaids
p1855
I2035
sVmortem
p1856
I1736
sVegf
p1857
I1158
sVturnover
p1858
I1653
sVinfant
p1859
I2575
sVhelp
p1860
I1479
sVadult
p1861
I2435
sVdeveloped
p1862
I1034
sVfingolimod
p1863
I402
sVurine
p1864
I2929
sVhyaluronic
p1865
I1549
sVpaper
p1866
I2892
sVthrough
p1867
I1394
sVartery
p1868
I1943
sVlevamisole
p1869
I2447
sVits
p1870
I38
sVprimaquine
p1871
I1960
sV24
p1872
I897
sV26
p1873
I2240
sV5585
p1874
I262
sVinterquartile
p1875
I1282
sV21
p1876
I1607
sV22
p1877
I1593
sVtermed
p1878
I1504
sVsusceptible
p1879
I1304
sVlateral
p1880
I1299
sVvs.a
p1881
I2299
sVconjugation
p1882
I2616
sVmicroenvironment
p1883
I2887
sVlate
p1884
I1519
sVresort
p1885
I2711
sVabsence
p1886
I2952
sVmicroscopic
p1887
I2004
sVbryostatin
p1888
I2867
sVinterleukin-6
p1889
I2729
sVneuroprotective
p1890
I167
sVmight
p1891
I1474
sVsuperoxide
p1892
I1684
sVfocussed
p1893
I2129
sVnlg-1
p1894
I1326
sVgood
p1895
I2841
sVlumbar
p1896
I2155
sVpd
p1897
I2967
sVfood
p1898
I482
sVpropose
p1899
I2339
sVcerebrospinal
p1900
I2665
sVmales
p1901
I1436
sVhunter
p1902
I265
sVprimary
p1903
I546
sVeraf-1
p1904
I2774
sVcompound
p1905
I394
sVdownregulation
p1906
I921
sVassociation
p1907
I1245
sVpc9
p1908
I1532
sVpregnant
p1909
I2566
sVfully
p1910
I740
sVpresented
p1911
I3306
sVsb431542
p1912
I1952
sV2a
p1913
I1493
sVfound
p1914
I91
sVifn
p1915
I609
sVintolerable
p1916
I1896
sVcharacterized
p1917
I2270
sVheavy
p1918
I1855
sVreactions
p1919
I1315
sVtransforming
p1920
I1980
sVweight
p1921
I2259
sVgeneration
p1922
I425
sVenergy
p1923
I2149
sVreduce
p1924
I2437
sVoncogenic
p1925
I3092
sVcardiotoxicity
p1926
I1124
sVdoses
p1927
I2777
sVloops
p1928
I1815
sVihvs
p1929
I1285
sVbeyond
p1930
I2854
sVpenicillin
p1931
I1585
sVccr7-expressing
p1932
I1868
sVnac
p1933
I585
sVglycidyl
p1934
I2906
sVntc
p1935
I2370
sVsince
p1936
I165
sVinduces
p1937
I772
sVinducer
p1938
I1794
sVviability
p1939
I1261
sVresearch
p1940
I600
sVfactor-.
p1941
I2056
sVparticipants
p1942
I261
sVsafety
p1943
I279
sV7
I2310
sVinduced
p1944
I72
sVremodeling
p1945
I1691
sVoccurs
p1946
I901
sVdysregulation
p1947
I3210
sVthiopurines
p1948
I256
sVlocalization
p1949
I1123
sVolaparib
p1950
I437
sVcandesartan
p1951
I2866
sVsifalimumab
p1952
I608
sValzheimer
p1953
I2652
sVimaging
p1954
I2192
sVmembers
p1955
I956
sVpalmitic
p1956
I1089
sVapproach
p1957
I2675
sVdexamethasone
p1958
I2845
sVgalactose
p1959
I3029
sVbenefits
p1960
I92
sVxenograft
p1961
I2198
sVcd83
p1962
I2281
sVconsequence
p1963
I80
sVhodgkin
p1964
I2268
sVcopper
p1965
I2379
sVmajor
p1966
I2049
sVengagement
p1967
I2489
sVencoding
p1968
I1322
sVradical
p1969
I590
sVthereafter
p1970
I2969
sVpdgfr)-positive
p1971
I1135
sVnumber
p1972
I861
sVsunitinib
p1973
I840
sVincubated
p1974
I1093
sVdefects
p1975
I2473
sVheteroprotection
p1976
I3020
sVcheckpoint
p1977
I2324
sVciprofloxacin
p1978
I993
sVperturbation
p1979
I2637
sVtemperature
p1980
I2408
sVleading
p1981
I1609
sVthreatening
p1982
I1509
sVleast
p1983
I2840
sVtgf1
p1984
I1978
sVstopped
p1985
I388
sVregulation
p1986
I1332
sVgpx
p1987
I1270
sV13-acetate
p1988
I216
sVmaster
p1989
I1793
sVmolecular
p1990
I2190
sVrecovered
p1991
I2548
sVmotility
p1992
I1782
sVpcr
p1993
I1053
sVbowel
p1994
I1788
sVantitumor
p1995
I700
sVascs
p1996
I1819
sVpart
p1997
I240
sVsignaling
p1998
I41
sVparp
p1999
I1381
sVtranslation
p2000
I1713
sVu-25
p2001
I829
sVneuropathic
p2002
I2518
sVdiffusion
p2003
I2020
sValbeit
p2004
I2510
sVb
I193
sVcyclic
p2005
I2144
sVdouble
p2006
I1343
sVcyclin
p2007
I2337
sVaims
p2008
I2553
sVneuroinflammation
p2009
I2623
sVdetermined
p2010
I1542
sVcysteine
p2011
I3089
sVtreated
p2012
I965
sVdtt
p2013
I1680
sVnormal
p2014
I2027
sVsirt1
p2015
I1368
sVages
p2016
I1361
sVdefect
p2017
I1705
sVglioblastoma
p2018
I906
sVdendritic
p2019
I2120
sVconjugate
p2020
I2781
sVhuh1
p2021
I428
sVpharmacokinetics
p2022
I1010
sVconcentration
p2023
I677
sVorgans
p2024
I2229
sVhuh7
p2025
I429
sVwilson
p2026
I2382
sVleukocyte
p2027
I658
sVstapf
p2028
I1184
sVpotentiated
p2029
I3144
sVdepending
p2030
I2699
sVtargets
p2031
I2703
sVonset
p2032
I1582
sValso
p2033
I127
sVototoxicity
p2034
I1583
sVsphingosine-1-phosphate
p2035
I1865
sVtoxb
p2036
I147
sVtgf-1
p2037
I1976
sVmedians
p2038
I1281
sVmost
p2039
I197
sV75
p2040
I1363
sVpeptide-1
p2041
I1450
sVimmediate
p2042
I2278
sVsignificant
p2043
I1180
sV70
p2044
I2704
sValpha
p2045
I2075
sVmeasured
p2046
I1672
sVapproved
p2047
I273
sVkg
p2048
I843
sVmineral
p2049
I1354
sVprolongation
p2050
I894
sVsensing
p2051
I2640
sVsometimes
p2052
I1312
sVtacrolimus
p2053
I257
sVtraditional
p2054
I3189
sVpostmenopausal
p2055
I1358
sVdissolved
p2056
I2503
sVfossa
p2057
I2297
sVindomethacin
p2058
I2749
sVfavorable
p2059
I278
sVsubpopulations
p2060
I2492
sVantibiotic
p2061
I992
sVhyper
p2062
I1445
sVparticularly
p2063
I37
sVgold
p2064
I754
sVmalignant
p2065
I3103
sVapap
p2066
I3023
sVstores
p2067
I3286
sVnetworks
p2068
I1398
sVimmortalized
p2069
I3158
sVimpact
p2070
I247
sVparameters
p2071
I1264
sVnervous
p2072
I413
sVaav1/2-driven
p2073
I2350
sVtriphosphate
p2074
I1936
sVmicroarray
p2075
I258
sVenzyme
p2076
I301
sVcassette
p2077
I720
sVfactor
p2078
I54
sV8
I2693
sV1-phosphate
p2079
I2226
sVcholinesterase
p2080
I1265
sVhip
p2081
I2164
sVthioacetamide
p2082
I3021
sVhis
p2083
I2900
sVtherefore
p2084
I2319
sVhiv
p2085
I3263
sVdependent
p2086
I1262
sVcholera
p2087
I2627
sVexpress
p2088
I201
sVcd4
p2089
I1871
sVbreast
p2090
I766
sVcombinations
p2091
I2972
sVduring
p2092
I785
sVcd8
p2093
I1869
sVuntreated
p2094
I2433
sVcrp
p2095
I2469
sVadulthood
p2096
I2543
sVroles
p2097
I743
sVcrt
p2098
I1081
sVtransgenic
p2099
I885
sVlipogenesis
p2100
I820
sVcrc
p2101
I2656
sVinvestigate
p2102
I487
sVhepcidin
p2103
I1792
sVcommon
p2104
I1594
sVlogistic
p2105
I2453
sVactivity
p2106
I153
sVpluripotent
p2107
I1175
sV53.9-
p2108
I463
sVarq
p2109
I2047
sVbarr
p2110
I638
sVestrogenic
p2111
I3232
sVseq
p2112
I16
sVachieved
p2113
I2839
sVzhx2
p2114
I958
sVzhx3
p2115
I959
sVzhx1
p2116
I957
sVsex
p2117
I3142
sVachieves
p2118
I1883
sVara
p2119
I1422
sVschizophrenia
p2120
I3219
sVindividual
p2121
I1732
sVmigration
p2122
I1365
sVchambers
p2123
I837
sVglp-1r
p2124
I398
sVduodenal
p2125
I1814
sVanalog
p2126
I2031
sVpreparation
p2127
I2404
sV#
I3304
sVvitamins
p2128
I519
sVcg200745
p2129
I703
sVbinds
p2130
I2223
sVnanocomplex
p2131
I751
sVcurrently
p2132
I593
sVpotently
p2133
I1735
sVplatelet
p2134
I847
sVvarious
p2135
I623
sVvascular
p2136
I1930
sVprobably
p2137
I2657
sVnumerous
p2138
I1247
sVcilostazol
p2139
I2864
sVmvde
p2140
I1286
sVresponses
p2141
I162
sVcreatine
p2142
I656
sVinitially
p2143
I2264
sVika
p2144
I2008
sVdeath
p2145
I911
sVselectively
p2146
I1119
sVikk
p2147
I1109
sVvesicles
p2148
I2215
sValters
p2149
I2541
sVwater
p2150
I2400
sVc
I55
sVimproved
p2151
I1052
sVreverse
p2152
I1562
sVcomponents
p2153
I2964
sVexplore
p2154
I2942
sVtrimethylamine
p2155
I1012
sVsensitive
p2156
I436
sVk
I2957
sVadulterated
p2157
I2961
sVexperimental
p2158
I418
sVbetamethasone
p2159
I2563
sVhomologue
p2160
I144
sVregulates
p2161
I817
sVethinylestradiol
p2162
I3230
sVpoint
p2163
I2682
sVdownregulated
p2164
I1111
sVabcb1-mediated
p2165
I1114
sVcommunity
p2166
I266
sVhollow
p2167
I1029
sVdimensional
p2168
I1842
sVagents
p2169
I625
sVvessel
p2170
I850
sVimprovement
p2171
I1069
sVtgn
p2172
I761
sValong
p2173
I2090
sVdescribed
p2174
I526
sVpz
p2175
I1168
sVmethylenebisacrylamide
p2176
I2905
sVautophagic
p2177
I960
sVdue
p2178
I347
sVstrategy
p2179
I158
sVpc
p2180
I1393
sVreduction
p2181
I1428
sVpa
p2182
I1090
sVsmd=0.38
p2183
I3057
sVmaintenance
p2184
I2344
sV17alpha
p2185
I3229
sVcollected
p2186
I1275
sVpk
p2187
I981
sVph
p2188
I1925
sVinvasively
p2189
I2832
sV4
I2619
sVcd52
p2190
I2224
sVpegylated
p2191
I2180
sVpenicillamine
p2192
I2378
sVliver
p2193
I1619
sVliraglutide
p2194
I1094
sVcomponent-1
p2195
I177
sVligands
p2196
I182
sVporphyrin
p2197
I756
sVhaemolytic
p2198
I1961
sVplants
p2199
I357
sVsolid
p2200
I1024
sVevaluated
p2201
I699
sVp=
p2202
I3256
sVwhile
p2203
I888
sVevaluating
p2204
I1045
sVevaluates
p2205
I1858
sVras
p2206
I450
sVsmcy
p2207
I3136
sVsmcx
p2208
I3135
sV30
p2209
I2613
sVgd1
p2210
I3241
sVgel
p2211
I607
sVbinding
p2212
I719
sVherein
p2213
I2728
sVdestabilization
p2214
I808
sVxiap
p2215
I980
sVneurons
p2216
I1643
sV35
p2217
I2803
sVtriple
p2218
I2917
sVchromosomally
p2219
I204
sVcurrents
p2220
I2745
sVchase
p2221
I2276
sVsaline
p2222
I2125
sVmediating
p2223
I1429
sVchloroplasts
p2224
I300
sVstimulates
p2225
I1706
sVglycogen
p2226
I2420
sVboi
p2227
I2296
sVlengths
p2228
I860
sVlipopolysaccharide
p2229
I2539
sVcharacterised
p2230
I2884
sVsfrp1
p2231
I1941
sVcytometry
p2232
I2187
sVelevated
p2233
I78
sVsybr
p2234
I3078
sVstimulated
p2235
I132
sVdeletion
p2236
I442
sVsubcutaneous
p2237
I926
sVmodification
p2238
I3134
sVmicroarchitecture
p2239
I1844
sVrunx2
p2240
I1953
sVneoadjuvant
p2241
I583
sVcomposition
p2242
I1840
sVhigher
p2243
I886
sV890
p2244
I3052
sVsophisticated
p2245
I1523
sVused
p2246
I984
sVfatty
p2247
I226
sVcomprehensive
p2248
I3148
sVferritin
p2249
I2737
sVil-4
p2250
I2078
sVlevels
p2251
I466
sVuses
p2252
I1022
sVgli-1
p2253
I2688
sVmonophosphate
p2254
I2145
sVher2-positive
p2255
I765
sVimmunofluorescence
p2256
I2188
sVrecent
p2257
I220
sVampk
p2258
I392
sVlower
p2259
I454
sVcystectomy
p2260
I591
sVcingulate
p2261
I3018
sVstatins
p2262
I95
sVhlcs
p2263
I1165
sVampa
p2264
I902
sVanalysis
p2265
I1515
sVakt1
p2266
I1107
sVfeces
p2267
I1567
sVsystolic
p2268
I455
sVgsh
p2269
I1272
sVclearance
p2270
I2171
sV-
I15
sVldh
p2271
I674
sVreviewed
p2272
I2853
sVaminoglycosides
p2273
I3173
sVinactive
p2274
I1622
sVusing
p2275
I136
sVregardless
p2276
I1056
sValternative
p2277
I763
sVcut
p2278
I2879
sVdissociation
p2279
I2511
sVmacrophage
p2280
I1403
sVk2
p2281
I1350
sVreactivity
p2282
I3224
sVee2
p2283
I3236
sVsignals
p2284
I2532
sVimpairs
p2285
I3069
sVrelevance
p2286
I3107
sVhemopexin
p2287
I2923
sVmorphometry
p2288
I1553
sVhomozygous
p2289
I2994
sVevaluate
p2290
I556
sVshowing
p2291
I1102
sVpolycyclic
p2292
I2482
sV13:00
p2293
I1276
sV0.0314
p2294
I2997
sVetoposide
p2295
I872
sVsuffering
p2296
I417
sVdonor
p2297
I1048
sVprelicensure
p2298
I3218
sVprecipitation
p2299
I2911
sV0.995
p2300
I2377
sVaxillary
p2301
I1060
sVd
I522
sVspine
p2302
I2156
sVsignal
p2303
I1454
sVmcf7
p2304
I1678
sVfibroblasts
p2305
I245
sVflux
p2306
I961
sVimmunization
p2307
I2501
sVindividuals
p2308
I1169
sVrearrangement
p2309
I1478
sVbsep
p2310
I2978
sVrheumatoid
p2311
I1999
sVessential
p2312
I3128
sVnijmegen
p2313
I2993
sVgrouped
p2314
I3038
sVhallmark
p2315
I1512
sVoften
p2316
I1827
sVmetabolic
p2317
I2531
sVautophagy
p2318
I819
sVtraits
p2319
I3164
sV3.5
p2320
I2791
sVhistology
p2321
I1302
sVmrsa
p2322
I1728
sVgradually
p2323
I892
sVand/or
p2324
I2391
sVnilotinib
p2325
I2241
sVpet
p2326
I2830
sVaffects
p2327
I2434
sVra1067
p2328
I1153
sV-15.18
p2329
I3246
sVderepression
p2330
I2949
sV-9.30
p2331
I3244
sVglycerophospholipids
p2332
I1517
sVser345
p2333
I1673
sVc33a
p2334
I3154
sVpeg
p2335
I2183
sVmitotic
p2336
I1612
sVaugmenting
p2337
I3061
sVeither
p2338
I2620
sVbd
p2339
I1287
sVbe
p2340
I730
sVdismutase
p2341
I1685
sVpatient
p2342
I868
sVdynamin-2
p2343
I2700
sVprocessing
p2344
I1007
sVbi
p2345
I1407
sVstem
p2346
I1136
sVcaski
p2347
I3152
sVbiomarkers
p2348
I3067
sVbecome
p2349
I1824
sVtibolone
p2350
I2439
sVfrom
p2351
I10
sVby
p2352
I120
sVvaccine
p2353
I1481
sVipsc
p2354
I2979
sVglaucoma
p2355
I1196
sVvirus
p2356
I634
sVapigenin
p2357
I3147
sVrange
p2358
I1283
sVnodulation
p2359
I22
sVinhibits
p2360
I188
sVtogether
p2361
I461
sVtesticular
p2362
I3307
sVxenografts
p2363
I833
sV-ctf
p2364
I2516
sVida
p2365
I2896
sVanterior
p2366
I3012
sVrepair
p2367
I1456
sVcomputational
p2368
I776
sVcolorectal
p2369
I783
sVinto
p2370
I1409
sVwithin
p2371
I570
sVmitochondrial
p2372
I2594
sVproportional
p2373
I3313
sVedta
p2374
I2366
sVantenatal
p2375
I2562
sVnocodazole
p2376
I2636
sVinteracted
p2377
I496
sVlong
p2378
I1580
sVhepatocyte
p2379
I1174
sVinfected
p2380
I3264
sVppar
p2381
I1801
sVconceivable
p2382
I1779
sValbumin
p2383
I2585
sVsections
p2384
I1948
sVendotoxin
p2385
I2538
sVintraperitoneal
p2386
I2368
sVchromatography
p2387
I1747
sVmechanistic
p2388
I1182
sVlink
p2389
I1330
sVdelta
p2390
I2521
sVtryptophan
p2391
I3271
sVinjection
p2392
I942
sVpain
p2393
I2519
sVribavirin
p2394
I2182
sVfda
p2395
I272
sVpregabalin
p2396
I2517
sVtpa
p2397
I2858
sVblockage
p2398
I1104
sVzhx
p2399
I951
sVrnas
p2400
I2951
sVup
p2401
I753
sVnscs
p2402
I999
sVmk7
p2403
I1351
sValemtuzumab
p2404
I1722
sVrnai
p2405
I1321
sV0.004
p2406
I3248
sVutx
p2407
I3139
sVz
I2672
sVsimilar
p2408
I899
sVcalled
p2409
I758
sVautologous
p2410
I141
sVparoxetine
p2411
I3227
sVescc
p2412
I1894
sVtranscriptional
p2413
I1303
sVestrogen
p2414
I2779
sVm
I323
sVinfluence
p2415
I1250
sVpfc
p2416
I1879
sVscavenging
p2417
I1681
sVimages
p2418
I3003
sVsingle
p2419
I943
sV14.3%-fold
p2420
I460
sVtomography
p2421
I2191
sVa53t--synuclein
p2422
I2352
sVkidney
p2423
I1042
sV\u000a\u000a 
p2424
I1786
sVactionable
p2425
I252
sV%
I1338
sVcytochromes
p2426
I3233
sVallyl
p2427
I2848
sVnigra
p2428
I2356
sVompfc)/anterior
p2429
I3017
sVpreventing
p2430
I915
sVnick
p2431
I1938
sVb12
p2432
I1748
sVgenome
p2433
I1243
sVtrabecular
p2434
I1704
sV95%
p2435
I2466
sVmock
p2436
I1836
sVpilocarpine
p2437
I1193
sVreportedly
p2438
I771
sVdevelopmental
p2439
I2333
sVendocrine
p2440
I2024
sVglomerular
p2441
I2099
sVgenerated
p2442
I2977
sVrestoration
p2443
I1863
sVsuppression
p2444
I1804
sVindependently
p2445
I824
sVcorrelated
p2446
I340
sVe
I919
sVfluorescence
p2447
I311
sVlovastatin
p2448
I908
sVestablished
p2449
I3090
sVage
p2450
I2104
sVrequired
p2451
I601
sVkinetics
p2452
I318
sVdepth
p2453
I1527
sV2006
p2454
I1082
sVenrolled
p2455
I3037
sVamyloidosis
p2456
I3117
sVgaba
p2457
I2551
sVgogat
p2458
I2599
sVedc
p2459
I2782
sVpartial
p2460
I2842
sVgr
p2461
I1271
sVgq
p2462
I567
sVgp
p2463
I2450
sVresults
p2464
I621
sVtested
p2465
I1537
sVtriciribine
p2466
I3087
sVpathogenesis
p2467
I1420
sVerythropoiesis
p2468
I1810
sVgo
p2469
I1327
sVgm
p2470
I964
sVnematodes
p2471
I1325
sVammonia
p2472
I2633
sVrigidity
p2473
I1224
sVyoung
p2474
I376
sVmeglumine
p2475
I2584
sVinclude
p2476
I1717
sVtxndc5
p2477
I2824
sVindicating
p2478
I155
sVmutation
p2479
I2982
sValternation
p2480
I1603
sVhypomethylating
p2481
I2943
sVassay
p2482
I1020
sVprovides
p2483
I2341
sVg0
p2484
I2817
sVdelta-5-desaturase
p2485
I2089
sVwardleworth
p2486
I1186
sVluminex
p2487
I2079
sVcellular
p2488
I977
sVfasudil
p2489
I2865
sVvlp
p2490
I1845
sVdrinking
p2491
I2504
sVdeiodinase
p2492
I1617
sVentire
p2493
I3316
sVmodulator
p2494
I2227
sVtransmission
p2495
I411
sVcyclosporine
p2496
I1721
sV2.2%
p2497
I2160
sVrootstock
p2498
I310
sVepstein
p2499
I637
sVobesity
p2500
I471
sVsmaller
p2501
I893
sVprotect
p2502
I2870
sVantigen
p2503
I134
sVvgpr
p2504
I2843
sVtumoral
p2505
I934
sVspectroscopy
p2506
I2200
sVreplicated
p2507
I169
sVdynamics
p2508
I1611
sVacid
p2509
I103
sVindex
p2510
I343
sVstaurosporine
p2511
I2509
sVplays
p2512
I2825
sVd2
p2513
I2252
sVimmunocytochemical
p2514
I1970
sVexpressed
p2515
I349
sVfind
p2516
I1558
sVcell
p2517
I139
sVevoked
p2518
I1909
sVexperiment
p2519
I529
sVeating
p2520
I1443
sVvegf
p2521
I768
sV;
I148
sVr-18
p2522
I831
sVexercise
p2523
I653
sVbody
p2524
I341
sVmultivariate
p2525
I3311
sVhpv16
p2526
I2082
sVproliferation
p2527
I130
sVled
p2528
I573
sVphotothermal
p2529
I762
sVleg
p2530
I1300
sVrespectively
p2531
I327
sVarborization
p2532
I2121
sVleu
p2533
I660
sVseparation
p2534
I2877
sVoxidative
p2535
I275
sVpretreated
p2536
I1847
sVreceive
p2537
I2523
sVinvolved
p2538
I1453
sVinoperable
p2539
I1913
sV36
p2540
I2247
sVvbm
p2541
I1554
sVsuggests
p2542
I945
sVresulting
p2543
I652
sVinsulin
p2544
I51
sVognnv
p2545
I2697
sVgene
p2546
I856
sVcontrol
p2547
I887
sVexaminations
p2548
I1737
sVapple
p2549
I309
sVapp
p2550
I2512
sVoutcomes
p2551
I2676
sVegress
p2552
I1866
sVdecrease
p2553
I661
sVapo
p2554
I1255
sVmotor
p2555
I2115
sV98c
p2556
I2409
sVbuildup
p2557
I1516
sV7.5%
p2558
I2881
sV1/h
p2559
I685
sVuse
p2560
I582
sVnasopharyngeal
p2561
I649
sVe.g.
p2562
I2862
sVremains
p2563
I791
sVchi
p2564
I3295
sV1]]~~
p2565
I14
sVnext
p2566
I985
sVcoumarin
p2567
I2872
sVfew
p2568
I2249
sVvehicle
p2569
I844
sVdoubling
p2570
I1833
sVstage
p2571
I3293
sVchloride
p2572
I541
sVmicrobiomes
p2573
I996
sVmicronutrients
p2574
I520
sVsrc
p2575
I497
sVstarted
p2576
I869
sVattenuates
p2577
I814
sVremission
p2578
I1884
sVinfection
p2579
I375
sVtrail
p2580
I907
sVcarrying
p2581
I3169
sVvirulence
p2582
I1491
sVhomeoboxes
p2583
I950
sViii
p2584
I1411
sVpotential
p2585
I31
sVamygdala
p2586
I3223
sVwomen
p2587
I1360
sVmajority
p2588
I1885
sVaccount
p2589
I1708
sVf
I2721
sVthis
p2590
I166
sVoil-
p2591
I2128
sVerythroid
p2592
I1798
sVch3
p2593
I1157
sVfolinic
p2594
I1808
sVmetastases
p2595
I784
sVbeta-1
p2596
I576
sVinhibitor
p2597
I393
sVneuropeptide
p2598
I2023
sVmannitol
p2599
I883
sVcorpuscular
p2600
I665
sVheme-
p2601
I2927
sV0.3
p2602
I2497
sVexports
p2603
I2014
sVtaz
p2604
I2821
sVhigh
p2605
I382
sVbones
p2606
I1838
sVtam
p2607
I2726
sVglut3
p2608
I2416
sVunited
p2609
I2266
sVheg2
p2610
I3123
sVhydrogen
p2611
I3195
sVsix
p2612
I1769
sVconjugative
p2613
I3179
sVfulvestrant
p2614
I2218
sVregions
p2615
I2759
sVlocated
p2616
I3176
sVlamp
p2617
I3070
sV1.2(1.8)%
p2618
I1295
sVanimal
p2619
I474
sVhormones
p2620
I2136
sVinterferon-
p2621
I2181
sVintracerebroventricular
p2622
I2663
sVwhose
p2623
I2642
sVtrichostatin
p2624
I3027
sVasils
p2625
I372
sVblocks
p2626
I501
sVmsdk
p2627
I1352
sVo26
p2628
I125
sVleukemia
p2629
I1424
sVnpc
p2630
I3302
sVfluid
p2631
I2666
sVloading
p2632
I2015
sVdemonstrating
p2633
I3105
sVmarrow
p2634
I1971
sVda
p2635
I2966
sVnps
p2636
I1032
sVefficiently
p2637
I2072
sV2121
p2638
I260
sVinduction
p2639
I778
sVoverexpression
p2640
I1667
sVintraepithelial
p2641
I370
sVantibody
p2642
I769
sVlines
p2643
I351
sVendosulfatase
p2644
I811
sVsynthase
p2645
I2421
sVsorafenib
p2646
I1629
sVp=0.036
p2647
I3066
sVehec
p2648
I121
sVsubsequently
p2649
I1763
sVpoor
p2650
I2086
sV57.8-,63.3-
p2651
I464
sV13%
p2652
I2796
sVinsight
p2653
I2326
sVbpca
p2654
I2588
sVpreclinical
p2655
I1376
sVproduced
p2656
I2986
sV131
p2657
I1589
sV130
p2658
I2734
sVincluding
p2659
I43
sVmethods
p2660
I2723
sVjnk
p2661
I940
sVgonadotropin
p2662
I2132
sV0.6730.789
p2663
I2471
sVlf
p2664
I2363
sVequimolar
p2665
I2776
sVlc
p2666
I1899
sVprognosis
p2667
I2087
sVchemotherapeutic
p2668
I1131
sVtsa
p2669
I3028
sVtransferase
p2670
I1934
sVdmsa
p2671
I2458
sV2014
p2672
I3217
sVdmso
p2673
I2403
sVsuppressor
p2674
I813
sV<
I1431
sV2012
p2675
I1084
sVgreater
p2676
I2424
sVstaphylococcal
p2677
I2713
sV0.731
p2678
I2470
sVanticonvulsant
p2679
I1311
sVpractice
p2680
I2137
sVmolecule
p2681
I1503
sVdat
p2682
I1647
sVh.
p2683
I1277
sVimpaired
p2684
I230
sVday
p2685
I2500
sVmicrobiome
p2686
I1015
sVhallmarks
p2687
I1695
sV2]]~~
p2688
I5
sVrab7
p2689
I966
sVmyocarditis
p2690
I3114
sVafp
p2691
I3309
sVidentified
p2692
I9
sVsufficiently
p2693
I716
sVmagnitude
p2694
I854
sV0.429
p2695
I2291
sVl1
p2696
I3095
sVqrt
p2697
I2189
sVidentifies
p2698
I729
sVtumors
p2699
I1573
sVupward
p2700
I2161
sVsubset
p2701
I1543
sVlfd
p2702
I711
sVtransferrin
p2703
I2739
sVradiographic
p2704
I1694
sVunresectable
p2705
I1891
sVrelated
p2706
I532
sVdeficiency
p2707
I516
sVnpc1
p2708
I1513
sVfrequency
p2709
I1317
sVinterplay
p2710
I818
sVhuvecs
p2711
I1088
sVhlh
p2712
I1716
sVmaternal
p2713
I3276
sVcorticosteroids
p2714
I1720
sVsexual
p2715
I2545
sVactivin
p2716
I1160
sVautoimmunity
p2717
I2448
sVglp-1-based
p2718
I290
sVcerebral
p2719
I2303
sVvci
p2720
I2288
sVmir-130b
p2721
I3098
sVtranscript
p2722
I2242
sVhypo
p2723
I1448
sVtime-
p2724
I1415
sVmediated
p2725
I396
sVmessenger
p2726
I1714
sVadaptive
p2727
I161
sVsupports
p2728
I581
sVimmunohistochemistry
p2729
I1739
sVinteractions
p2730
I1991
sVglycosphingolipids
p2731
I1510
sVecm
p2732
I1223
sVthp-1
p2733
I1402
sVregulators
p2734
I1862
sVhazard
p2735
I3314
sVx
I1620
sVadditional
p2736
I1498
sVmegaloblastic
p2737
I1749
sVpancreatic
p2738
I706
sVnfatc3
p2739
I1929
sVg
I2011
sVcould
p2740
I453
sVsynthesized
p2741
I2903
sVoxa
p2742
I2194
sVlabelling
p2743
I1939
sVlength
p2744
I2570
sVhence
p2745
I781
sVdiminishes
p2746
I2051
sVunmodified
p2747
I2809
sVprospective
p2748
I3226
sVcytochalasin
p2749
I2634
sVwidely
p2750
I1130
sVpowerful
p2751
I2710
sVrandomized
p2752
I1345
sVlagging
p2753
I390
sVtemozolomide
p2754
I1079
sVreached
p2755
I2691
sVquality
p2756
I1355
sVcephalosporins
p2757
I3171
sVtwo-
p2758
I1841
sVmonkey
p2759
I2354
sVunknown
p2760
I1181
sV20.8-
p2761
I458
sVsystem
p2762
I414
sVroche
p2763
I2364
sVtheir
p2764
I614
sVattack
p2765
I2372
sVigf-1r
p2766
I2762
sVanaemia
p2767
I1787
sVbasilar
p2768
I2569
sVdopac
p2769
I1651
sVchemotherapy
p2770
I584
sVfucose
p2771
I3030
sVfinal
p2772
I1565
sVscans
p2773
I2459
sVcys
p2774
I1044
sVicts
p2775
I1019
sVhpv)-16
p2776
I3093
sVmethyl--cyclodextrin
p2777
I2625
sVreversed
p2778
I1113
sVbrazilian
p2779
I1189
sVfactor-1(tgf-1
p2780
I1981
sVenvironmental
p2781
I2480
sVchemicals
p2782
I2481
sVphorbol
p2783
I214
sVsynergistic
p2784
I1384
sVbulb
p2785
I3124
sVepidermal
p2786
I66
sVdetection
p2787
I1035
sVcorrelate
p2788
I1932
sVculture
p2789
I2607
sVhippocampus
p2790
I2802
sVinfectious
p2791
I624
sVo157
p2792
I200
sVpatients
p2793
I422
sVassays
p2794
I1164
sVlight
p2795
I1856
sVabolished
p2796
I395
sVbet
p2797
I2565
sVare
p2798
I366
sVgssg
p2799
I1273
sVdelay
p2800
I23
sVmethicillin
p2801
I1727
sVhave
p2802
I90
sVmicroorganisms
p2803
I2605
sVfollicle
p2804
I2134
sVlinked
p2805
I2948
sVoverexpressing
p2806
I1118
sVq
I1832
sVbacterium
p2807
I630
sVstudying
p2808
I2130
sVmic
p2809
I2233
sVselective
p2810
I1205
sVable
p2811
I128
sVg2
p2812
I2323
sVmechanism
p2813
I1392
sVemerged
p2814
I2251
sVbest
p2815
I2301
sVwhich
p2816
I430
sV=
I1291
sVaccuracy
p2817
I3004
sVhormonal
p2818
I2918
sVprednisone
p2819
I873
sVco-1
p2820
I1471
sVlactate
p2821
I672
sVproinflammatory
p2822
I2272
sV-atpase
p2823
I1998
sVbut
p2824
I194
sVpreliminary
p2825
I389
sVcomparison
p2826
I3155
sVintrinsic
p2827
I1730
sVdorsal
p2828
I835
sVckd
p2829
I1039
sV-linolenic
p2830
I2741
sVpgrmc1
p2831
I178
sVspleen
p2832
I2926
sV12-myristate
p2833
I215
sVstronger
p2834
I2708
sVdisease
p2835
I237
sVmethyltransferase
p2836
I306
sVconstruction
p2837
I1482
sVdatabases
p2838
I3215
sVdendritically
p2839
I1462
sVbenzo(a)pyrene
p2840
I3231
sVcd20
p2841
I1823
sVtagged
p2842
I2901
sVcannabinoid
p2843
I3068
sVelimination
p2844
I2928
sVgadolinium
p2845
I2578
sVcalgranulins
p2846
I1906
sVcarcinogen
p2847
I3237
sVtechnologies
p2848
I1598
sVthigh
p2849
I1279
sVbased
p2850
I484
sVknowledge
p2851
I2349
sV(
I61
sVmalabsorption
p2852
I1751
sVcontrols
p2853
I1425
sVshould
p2854
I2037
sVfibrates
p2855
I98
sVreactive
p2856
I796
sVl7095
p2857
I149
sVinherited
p2858
I231
sVsulfur
p2859
I1994
sVlocal
p2860
I941
sVmortality
p2861
I1759
sVht29
p2862
I2811
sVsulfide
p2863
I2849
sVpeptide
p2864
I2985
sVclopidogrel
p2865
I254
sVgemcitabine
p2866
I704
sVclathrin
p2867
I1851
sVdiagnosing
p2868
I3111
sVoverall
p2869
I1887
sVvehicles
p2870
I2790
sV99%
p2871
I3182
sV125
p2872
I3203
sVcarotenogenic
p2873
I2643
sVriluzole
p2874
I789
sVshaping
p2875
I3036
sVantagonist
p2876
I449
sVareas
p2877
I2456
sVgray
p2878
I333
sVprocesses
p2879
I1712
sVmetabolite
p2880
I797
sVdensities
p2881
I851
sVorgan
p2882
I1005
sVbrain
p2883
I927
sVh
I898
sVgbm
p2884
I1076
sVcomprising
p2885
I1564
sVreceptor-
p2886
I1134
sVipth
p2887
I3040
sVgbs
p2888
I1253
sVquaternary
p2889
I3193
sVcontain
p2890
I432
sVcleavage
p2891
I2953
sVdpn
p2892
I108
sVcycles
p2893
I1058
sVenhancer
p2894
I962
sVenhances
p2895
I1485
sVacquired
p2896
I1663
sVpc9rev
p2897
I1536
sVexerted
p2898
I2219
sVcorrelations
p2899
I1297
sVhumans
p2900
I627
sVadriamycin
p2901
I3100
sVebv
p2902
I639
sVpyrophosphate
p2903
I3075
sVusefulness
p2904
I2166
sVenhanced
p2905
I352
sVoperated
p2906
I2747
sVrecently
p2907
I408
sVphases
p2908
I1377
sVapoe
p2909
I1096
sVrj119
p2910
I3168
sVnuclear
p2911
I68
sVsegment
p2912
I859
sVdlm
p2913
I545
sVidentification
p2914
I1987
sVtargeted
p2915
I2851
sVstate
p2916
I1539
sV:
I1008
sVmethionine
p2917
I544
sVmembrane
p2918
I176
sVneither
p2919
I2111
sV0.432
p2920
I2292
sVmainly
p2921
I1796
sValveolar
p2922
I1690
sVgestational
p2923
I3275
sVcomparable
p2924
I151
sVability
p2925
I2321
sVg2/m
p2926
I2284
sVimportance
p2927
I1487
sVstreptococci
p2928
I1494
sVsupplemented
p2929
I2798
sVvitamin
p2930
I521
sVneonatal
p2931
I547
sVlipidomics
p2932
I1514
sVkey
p2933
I1434
sVsediments
p2934
I1989
sV0.5580.687
p2935
I2468
sVbronj
p2936
I1696
sVrabv
p2937
I1477
sVdrug
p2938
I1073
sVstrains
p2939
I126
sVgpcr
p2940
I568
sVtransplantation
p2941
I1049
sVbehaviour
p2942
I2505
sVhacat
p2943
I3159
sVplacebo
p2944
I2154
sV0.238
p2945
I2107
sVgd1-free
p2946
I3258
sVpufa
p2947
I1901
sVeffacing
p2948
I164
sVck
p2949
I657
sVadjusted
p2950
I871
sVinflammatory
p2951
I276
sVco
p2952
I612
sVcm
p2953
I2428
sVconclude
p2954
I207
sVcc
p2955
I542
sVinvasive
p2956
I587
sVantioxidant
p2957
I101
sVcd
p2958
I3167
sVepigenetic
p2959
I2346
sVsequences
p2960
I1986
sV11,000
p2961
I2706
sVpulmonary
p2962
I1918
sVelecsys
p2963
I2365
sVcv
p2964
I1758
sVcu
p2965
I2390
sVapril
p2966
I1820
sVimplicate
p2967
I805
sVkca3.1
p2968
I224
sVi.e.
p2969
I3165
sVfe(ii
p2970
I1679
sVaddition
p2971
I1051
sVnontumorigenic
p2972
I3156
sVyap
p2973
I2820
sVdaunorubicin
p2974
I1882
sVai
p2975
I1337
sVgenetic
p2976
I170
sVslowly
p2977
I2586
sVmonoclonal
p2978
I1822
sVfield
p2979
I1133
sVenhancing
p2980
I1817
sVarises
p2981
I823
sVcorresponding
p2982
I2789
sVboth
p2983
I551
sVlymphoid
p2984
I1872
sV460
p2985
I2177
sVmultipotent
p2986
I2142
sVmcf-7/adr
p2987
I3102
sVefflux
p2988
I1121
sVpkc-activator
p2989
I799
sVlung
p2990
I1106
sVc3
p2991
I1928
sVlast
p2992
I515
sVan
p2993
I271
sVpresent
p2994
I241
sVassociated
p2995
I855
sVhepatocellular
p2996
I647
sVunlike
p2997
I1017
sVneed
p2998
I3282
sVat1r
p2999
I448
sVexamine
p3000
I530
sVvalue
p3001
I682
sVpromotes
p3002
I1388
sVsynergistically
p3003
I2282
sVcox
p3004
I3312
sVpromoted
p3005
I498
sVmedicinal
p3006
I1190
sVcvd
p3007
I1773
sVultra
p3008
I2202
sVsirna
p3009
I1676
sVhelper
p3010
I3054
sValmost
p3011
I2694
sVblood
p3012
I456
sVthus
p3013
I736
sVsurface
p3014
I1489
sVexamined
p3015
I2449
sVcopd
p3016
I1333
sVregression
p3017
I2309
sVautoantibodies
p3018
I2963
sVcerna
p3019
I1397
sVcohort
p3020
I2991
sValk5
p3021
I1954
sV/k
p3022
I1997
sVfabp
p3023
I1615
sVfoxo
p3024
I1323
sV)
I64
sVc57bl/6
p3025
I998
sVadministration
p3026
I935
sVantiviral
p3027
I3265
sVmember
p3028
I2012
sVadverse
p3029
I2250
sVimproves
p3030
I1067
sVfrontal
p3031
I1439
sVpregnancy
p3032
I3279
sVmrp3
p3033
I725
sVincl
p3034
I3178
sVmrp4
p3035
I726
sV4.5
p3036
I2855
sVpromoters
p3037
I2648
sVupon
p3038
I731
sVeffect
p3039
I168
sVnightly
p3040
I1347
sVrip1
p3041
I976
sVcompared
p3042
I470
sVamylose
p3043
I2396
sVascorbic
p3044
I1460
sVvariance
p3045
I2306
sVfrequently
p3046
I1790
sVminocycline
p3047
I2863
sVidentity
p3048
I3181
sVdiabetes
p3049
I296
sVofc
p3050
I1441
sVoff
p3051
I2880
sVneural
p3052
I1437
sVi
I579
sVshotgun
p3053
I1524
sVwell
p3054
I479
sVcrizotinib
p3055
I1378
sVtrials
p3056
I89
sVfirstly
p3057
I8
sVundertaken
p3058
I3186
sVmuscle
p3059
I586
sVglial
p3060
I564
sVpd98059
p3061
I2670
sVexcessive
p3062
I733
sVintegrators
p3063
I2530
sVglycine
p3064
I2644
sVless
p3065
I1071
sVincreasingly
p3066
I525
sVproximity
p3067
I2017
sV5-azacitidine
p3068
I2944
sVdose
p3069
I870
sVfibrin
p3070
I1496
sVunderlying
p3071
I925
sVdistant
p3072
I3294
sVfolic
p3073
I523
sVstreptokinase
p3074
I1495
sVpurified
p3075
I186
sVampicillin
p3076
I2611
sVreduced
p3077
I359
sVrecapitulated
p3078
I2430
sVrapid
p3079
I1586
sVadr
p3080
I3101
sVvivo
p3081
I2431
sVdensity
p3082
I691
sVmicrotubule
p3083
I1610
sVuty
p3084
I3140
sVgolgi
p3085
I2567
sVarrest
p3086
I2285
sVsig2r
p3087
I181
sVnanoparticles
p3088
I1025
sVlymphocytes
p3089
I1867
sVas
p3090
I79
sVhfd
p3091
I710
sVgmv
p3092
I336
sVmurine
p3093
I244
sVsonic
p3094
I2686
sVtests
p3095
I2608
sVincreased
p3096
I81
sVputative
p3097
I114
sVchecking
p3098
I2610
sVabatacept
p3099
I610
sVincreases
p3100
I655
sVfive
p3101
I2769
sVproton
p3102
I2199
sVburden
p3103
I1308
sVsequencing
p3104
I986
sVvariants
p3105
I1249
sVprominent
p3106
I2604
sVh3k4me3
p3107
I3137
sVloss
p3108
I1396
sVendosomes
p3109
I1520
sVlike
p3110
I52
sVlost
p3111
I1995
sVteicoplanin
p3112
I2234
sVrepresses
p3113
I1260
sVbetaine
p3114
I2645
sVp=0.015
p3115
I2257
sVepoxy
p3116
I2915
sVwrky
p3117
I2647
sVregulated
p3118
I929
sVrepressed
p3119
I1812
sVtherapeutic
p3120
I947
sVglycoprotein
p3121
I2733
sVshed
p3122
I1533
sVbecause
p3123
I1665
sVclassical
p3124
I1775
sVsequence
p3125
I1248
sVbelonged
p3126
I3174
sVchloroquine
p3127
I2632
sVepirubicin
p3128
I424
sVgrowth
p3129
I53
sVsphingolipid
p3130
I2650
sVimatinib
p3131
I1139
sVhoma
p3132
I345
sVtransport
p3133
I1563
sVdepolymerized
p3134
I1606
sVimiquimod
p3135
I380
sVencouraging
p3136
I617
sVigf1
p3137
I2261
sVlead
p3138
I1922
sVsuppressing
p3139
I2423
sVmarkers
p3140
I923
sVtma
p3141
I1013
sVdoes
p3142
I3274
sVinflammation
p3143
I738
sVestradiol
p3144
I2542
sVchains
p3145
I1857
sV5f31
p3146
I2812
sVpirfenidone
p3147
I597
sVp=0.030
p3148
I2260
sVbiology
p3149
I3108
sVlipid
p3150
I100
sVmacrophages
p3151
I1982
sVanalysed
p3152
I2393
sVpressure
p3153
I457
sVp38
p3154
I62
sVelsilimomab
p3155
I2730
sValthough
p3156
I2715
sVbehaviors
p3157
I1444
sVanalyses
p3158
I87
sVneutrophil
p3159
I2059
sVvs.
p3160
I1591
sVpanel
p3161
I3145
sVabout
p3162
I1419
sVrare
p3163
I2939
sVpacap
p3164
I905
sVinfluences
p3165
I1222
sVmobilization
p3166
I3284
sVanaplastic
p3167
I2937
sVgyrus
p3168
I2124
sVmyeloid
p3169
I1423
sVsubstantia
p3170
I2355
sVintracellular
p3171
I2846
sVactinomycin
p3172
I2275
sVpreviously
p3173
I109
sVh3
p3174
I1383
sVstratification
p3175
I3273
sVfunctional
p3176
I1777
sVh4
p3177
I973
sVassess
p3178
I602
sVchronic
p3179
I481
sVsquare
p3180
I3296
sVreceptor
p3181
I175
sVfemale
p3182
I997
sVproteolysis
p3183
I1232
sVutility
p3184
I1043
sV4045%
p3185
I1886
sVlarvae
p3186
I1274
sVadolescent
p3187
I2576
sVextraction
p3188
I2614
sVrct
p3189
I1412
sVtransfer
p3190
I535
sVchallenged
p3191
I2054
sVpolymerization
p3192
I2912
sVpdgfr
p3193
I1138
sVdevelopment
p3194
I1040
sVexocytosis
p3195
I2801
sVextravasating
p3196
I2581
sVcarcinogenic
p3197
I626
sVspecimens
p3198
I2418
sVpg
p3199
I2330
sVfunction
p3200
I299
sVdisorder
p3201
I234
sVthioctic
p3202
I102
sVn-3
p3203
I1900
sVterfenadine
p3204
I1009
sVeae
p3205
I421
sVht
p3206
I663
sVvolume
p3207
I335
sVknockdown
p3208
I171
sVlowered
p3209
I361
sVgain
p3210
I1395
sVhb
p3211
I1159
sVadhesive
p3212
I2057
sVcount
p3213
I659
sVfragmentation
p3214
I2954
sVmade
p3215
I752
sVdmf
p3216
I270
sVwhether
p3217
I492
sVcells
p3218
I77
sVsmooth
p3219
I1931
sVdmn
p3220
I3013
sVrecord
p3221
I280
sVmicrospheres
p3222
I2909
sVprohepcidin
p3223
I2736
sVglioblastomas
p3224
I2411
sVdemonstrate
p3225
I1173
sVffame
p3226
I1911
sVganglion
p3227
I572
sVnintedanib
p3228
I598
sVbearing
p3229
I932
sVmitochondria
p3230
I2716
sVpil
p3231
I1194
sVprkf
p3232
I1038
sVn=931
p3233
I3056
sVcytarabine
p3234
I1201
sVcontribute
p3235
I775
sVexogenous
p3236
I714
sVepec
p3237
I198
sVmtor
p3238
I1731
sVepithelial
p3239
I918
sVour
p3240
I11
sVequilibrium
p3241
I3010
sVpermeability
p3242
I1417
sVhumanized
p3243
I2222
sVglutamate
p3244
I410
sVimmobilize
p3245
I2899
sVfunctions
p3246
I39
sVcaspase-3
p3247
I452
sVefficacy
p3248
I557
sV49
p3249
I1362
sV46
p3250
I3082
sV0.0141
p3251
I2996
sVhpv
p3252
I374
sV40
p3253
I841
sV41
p3254
I3044
sVother
p3255
I518
sVparathyroid
p3256
I1230
sVbetter
p3257
I2724
sVsimvastatin
p3258
I503
sVout
p3259
I1559
sVconclusion
p3260
I1066
sVforkhead
p3261
I1765
sVrepeat
p3262
I2950
sVneuroblastoma
p3263
I1372
sV795
p3264
I2175
sVchk1
p3265
I1671
sV-0.269
p3266
I2103
sVaugmentation
p3267
I2253
sVpathways
p3268
I42
sVadditionally
p3269
I1143
sVidiopathic
p3270
I1917
sVconcur
p3271
I3281
sVpi3
p3272
I2956
sVvein
p3273
I1086
sVexposure
p3274
I1252
sVpharmacologic
p3275
I3048
sVnecrosis
p3276
I2055
sVhba1c
p3277
I2878
sVpathologies
p3278
I3112
sVdiagnosis
p3279
I2243
sVsearched
p3280
I3212
sVrepresentative
p3281
I3083
stRp3282
sbsS'dropout'
p3283
F0.25
sS'max_len'
p3284
I100
s.