(dp1
S'dim'
p2
I50
sS'word_dict'
p3
ccopy_reg
_reconstructor
p4
(csnorkel.learning.disc_models.rnn.utils
SymbolTable
p5
c__builtin__
object
p6
NtRp7
(dp8
S'unknown'
p9
I1
sS's'
I5635
sS'd'
g4
(cfuture.types.newdict
newdict
p10
c__builtin__
dict
p11
(dp12
V
I351
sVtransmissible
p13
I3427
sVsimilarity
p14
I4413
sVdynamic
p15
I1999
sVfour
p16
I971
sVobstruction
p17
I1535
sVneurodevelopmental
p18
I794
sVil-33
p19
I937
sVvascular
p20
I44
sVlocalized
p21
I4473
sVputamen
p22
I3466
sVwhose
p23
I3527
sVauc
p24
I590
sVcytoscape
p25
I3240
sVdisability
p26
I1550
sVci=10.1
p27
I5448
sVpresents
p28
I138
sVteaching
p29
I5192
sVimmature
p30
I2189
sVhypercholesterolemia
p31
I5055
sVhormone
p32
I2282
sVvaso
p33
I2927
sVdownstream
p34
I208
sVactivation
p35
I856
sVregional
p36
I836
sVpigment
p37
I5299
sV2,514
p38
I4328
sVangioimmunoblastic
p39
I3797
sVovercomes
p40
I4825
sVexperimentally
p41
I4480
sVpycr1
p42
I5265
sVmarkers
p43
I367
sVdisturb
p44
I3042
sVbmsc
p45
I909
sVupa
p46
I2278
sVunrelated
p47
I3975
sVs100a8
p48
I4159
sVcholesterol
p49
I1936
sVmarkov
p50
I4323
sVneoplasia
p51
I3098
sVnmdar
p52
I2729
sVdeath-1
p53
I1316
sVlysosomal
p54
I2785
sVsenescence
p55
I4052
sVtrastuzumab
p56
I5212
sVantioncogenic
p57
I3567
sVjapanese
p58
I4027
sVdermal
p59
I4347
sVsecond
p60
I221
sVsustaining
p61
I3749
sVher2
p62
I1655
sVperiodontitis
p63
I5518
sVsterile
p64
I5608
sVeven
p65
I871
sVcontributed
p66
I2068
sVasia
p67
I4789
sVzfp148
p68
I3252
sVnew
p69
I667
sVincreasing
p70
I398
sVcoefficient
p71
I580
sVmeg
p72
I634
sVmef
p73
I3852
sVpresynaptic
p74
I1012
sVmem
p75
I3739
sVmen
p76
I3214
sVhere
p77
I228
sV10%
p78
I325
sVreported
p79
I1214
sVdeposition
p80
I4664
sVfeeding
p81
I3667
sVchina
p82
I4996
sVactive
p83
I1483
sV100
p84
I1518
sVlmw
p85
I3495
sVrefractoriness
p86
I3343
sVherv
p87
I972
sVinterpret
p88
I3692
sVpancreas
p89
I1419
sVrecessive
p90
I5259
sVniemann
p91
I1564
sVsubstance
p92
I1382
sV2.855.00
p93
I4132
sVsjs
p94
I4006
sVk
I973
sVegcg
p95
I4304
sVreports
p96
I1349
sVetiology
p97
I3209
sVdbemt
p98
I3241
sVgranulomatosis
p99
I3100
sVcbio
p100
I4381
sVtransfected
p101
I2198
sVtargeting
p102
I201
sV2.0627.17
p103
I2914
sVsymmetrical
p104
I1929
sVsuitable
p105
I1627
sVcatalyzed
p106
I2436
sVcontractility
p107
I2296
sVci=8.0
p108
I5451
sVangelman
p109
I3662
sVimputation
p110
I3140
sVclassification
p111
I3228
sVpsychological
p112
I1134
sVremnant
p113
I4492
sV65.33%3.64%
p114
I4161
sVcoxsackievirus
p115
I4420
sVunit
p116
I4860
sVderivatives
p117
I4526
sVdna
p118
I1127
sVdni
p119
I1242
sVmusic
p120
I2604
sVtherefore
p121
I2353
sVsurvive
p122
I446
sVtype
p123
I275
sVcomorbid
p124
I1227
sVlungs
p125
I2526
sVpopulations
p126
I1752
sVsuccessful
p127
I3298
sVexpose
p128
I5254
sVunder
p129
I495
sVhypergastrinemia
p130
I2362
sV1.047
p131
I4207
sVexport
p132
I1689
sVadult
p133
I4676
sVprotozoan
p134
I1126
sV91
p135
I4220
sV90
p136
I811
sV5.19
p137
I3163
sVselex
p138
I5307
sV10-month
p139
I4534
sVintake
p140
I3136
sVsfrp1
p141
I1290
sVroom
p142
I3037
sV2.64
p143
I3046
sVobstacle
p144
I3921
sVpremanifest
p145
I4554
sVexample
p146
I2320
sVorganized
p147
I1952
sVinvolve
p148
I2725
sVdendrite
p149
I3084
sVcounseling
p150
I3611
sVrescue
p151
I1803
sVaging
p152
I3523
sVpredictors
p153
I4210
sVelicited
p154
I2321
sVfeature
p155
I34
sVhow
p156
I365
sVsignificance
p157
I2037
sVagglutination
p158
I1721
sVtranslocation
p159
I4757
sVgaming
p160
I4983
sVundergoing
p161
I2149
sVmodulation
p162
I3645
sVmodest
p163
I2168
sVova
p164
I2060
sVsummarize
p165
I410
sVtypes
p166
I543
sVstimulates
p167
I3484
sVt2dm
p168
I1787
sVeffective
p169
I1180
sVcommunities
p170
I4334
sVattracts
p171
I3019
sVheal
p172
I4956
sVorally
p173
I232
sVsubstrates
p174
I5143
sVrestriction
p175
I5270
sVfetus
p176
I3831
sVp<0.01
p177
I4275
sVkappab
p178
I2856
sVmicroglia
p179
I1981
sVaffect
p180
I1989
sVresponsive
p181
I4616
sVgastrointestinal
p182
I4089
sVactivating
p183
I1156
sVbefore
p184
I331
sVscoring
p185
I3687
sV10.2
p186
I5452
sV10.5
p187
I3171
sVligand
p188
I1806
sVendometrial
p189
I332
sVbetter
p190
I2667
sVdifferently
p191
I3655
sVhidden
p192
I2067
sVovercome
p193
I4831
sVzucker
p194
I5269
sVcolorectal
p195
I1106
sVcombination
p196
I371
sVdesmopressin
p197
I2632
sVweakness
p198
I2034
sVatherosclerosis
p199
I2163
sVdifferentiated
p200
I3775
sVhypoxic
p201
I448
sVhypoxia
p202
I1508
sVtherapy
p203
I987
sVeffects
p204
I140
sVmimicking
p205
I3030
sV1.013.86
p206
I2451
sVcsf-1r
p207
I3768
sVstructural
p208
I2017
sVrepresents
p209
I1451
sVs5a
p210
I3982
sVrenditions
p211
I1758
sVarrested
p212
I4073
sVnonsmall
p213
I4781
sVhek293
p214
I727
sVendotheliopathy
p215
I1022
sVhigher
p216
I75
sVside
p217
I3776
sVbone
p218
I759
sVmean
p219
I2545
sVsnu-484
p220
I1559
sVinterruption
p221
I3120
sVhippocampi
p222
I4681
sVbioassays
p223
I2304
sVknockout
p224
I4535
sVseries
p225
I5490
sVgsdmb
p226
I5211
sVmda
p227
I5215
sVtrisphosphate
p228
I1216
sVmdd
p229
I4876
sVparasites
p230
I1500
sVlactic
p231
I2368
sVawry
p232
I3114
sVsubstantially
p233
I1298
sVameliorate
p234
I1453
sVextract
p235
I5214
sVborne
p236
I2408
sVrt
p237
I4738
sVrp
p238
I2797
sVcrucial
p239
I2699
sVsmo
p240
I5305
sVre
p241
I3451
sVvector
p242
I2062
sVra
p243
I2179
sVrb
p244
I1542
sVrc
p245
I3927
sVsmc
p246
I405
sVri
p247
I1330
sVturning
p248
I3847
sVlinear
p249
I4725
sVsensory
p250
I1810
sVhematologic
p251
I1664
sVuniversally
p252
I5050
sVsaha
p253
I4847
sVatl
p254
I2840
sVatm
p255
I886
sVatr
p256
I1817
sVatp
p257
I464
sVsignature
p258
I948
sVncrna
p259
I683
sVfeatures
p260
I17
sVuncovers
p261
I737
sVgrade
p262
I955
sV17%
p263
I1973
sVvesicoureteral
p264
I1246
sVvitro
p265
I5423
sVthereof
p266
I372
sVchannels
p267
I2097
sVoncogenic
p268
I2289
sVser9
p269
I3647
sVspondylitis
p270
I3333
sVseizures
p271
I2338
sVannotated
p272
I4792
sVsimilarly
p273
I3580
sVengagement
p274
I3235
sVil17
p275
I4346
sVneeded
p276
I1702
sV2
I969
sVmaster
p277
I4476
sVglucocorticoid
p278
I4054
sVunderlie
p279
I264
sVmyelomonocytic
p280
I2047
sVdilated
p281
I4481
sVampk
p282
I3268
sVrelative
p283
I2579
sVhh)/glioma
p284
I3964
sVpalsy
p285
I5575
sVpositively
p286
I3648
sVp53
p287
I396
sVdistance
p288
I4635
sVaqp3
p289
I4156
sVshowed
p290
I391
sVsurrounding
p291
I3830
sVolder
p292
I3217
sVenabled
p293
I4406
sVlikely
p294
I3004
sVmitogen
p295
I2852
sVregulator
p296
I4352
sVpneumonia
p297
I121
sVstratified
p298
I4257
sVmicroglial
p299
I297
sVbiochemical
p300
I2967
sVadenomatous
p301
I4649
sVacquisition
p302
I2302
sVmodulating
p303
I1620
sVcubilin
p304
I5394
sVmembranes
p305
I3110
sVmyositis
p306
I4385
sVspectrum
p307
I1205
sVelevating
p308
I1472
sVmyeloma
p309
I4512
sVlymphoblastic
p310
I2880
sV70%80%
p311
I5287
sVbrd2
p312
I3674
sV\u000a\u000a
p313
I3115
sVseen
p314
I4280
sV5.00
p315
I3167
sV2.78
p316
I3157
sVimplemented
p317
I1104
sVresponsible
p318
I1661
sV2.76
p319
I3161
sVurinalysis
p320
I569
sVrecommended
p321
I1852
sVcausing
p322
I3204
sVdysregulate
p323
I4434
sVworsening
p324
I5266
sV\u000a 
p325
I218
sVigf-1
p326
I1789
sVautoantigens
p327
I4295
sV1xctses
p328
I826
sVipsc
p329
I1025
sVmouth
p330
I3087
sVchemoprotective
p331
I4610
sVimmunological
p332
I4293
sVobsessive
p333
I4985
sVepisode
p334
I1768
sVobservation
p335
I1015
sVerectile
p336
I3909
sVmedical
p337
I4856
sVlps
p338
I1987
sVpoints
p339
I3541
sVkdigo
p340
I4496
sVanticancer
p341
I2671
sVincomplete
p342
I5187
sVsignatures
p343
I2099
sVncrnas
p344
I2121
sVsoluble
p345
I3790
sVulcer
p346
I2935
sVparticipate
p347
I4694
sVlethal
p348
I1698
sVungal
p349
I4050
sVexplain
p350
I373
sVkinase
p351
I1703
sVpopulation
p352
I3777
sVsulfonic
p353
I4656
sVconduct
p354
I632
sVhematology
p355
I5022
sVpsychiatric
p356
I4769
sVpocket
p357
I3980
sV12
p358
I3145
sVexosomes
p359
I1959
sValtogether
p360
I2792
sVctla-4
p361
I4507
sVrcc
p362
I1697
sVcontributes
p363
I4796
sV17
p364
I2972
sVrectal
p365
I4339
sVnicely
p366
I3535
sVnonmutated
p367
I4917
sVintervals
p368
I2576
sVgrp78
p369
I2581
sVrelease
p370
I1220
sVbal
p371
I806
sVlymphohistiocytosis
p372
I2071
sVrespond
p373
I864
sVprecluding
p374
I1425
sVcahon
p375
I5014
sVreference
p376
I5573
sVclarified
p377
I5562
sVsensitivity
p378
I581
sVtesting
p379
I583
sVniche
p380
I3846
sVpr/8/34
p381
I3193
sVdecided
p382
I5015
sVresult
p383
I4490
sV0.0001
p384
I5089
sVfail
p385
I3070
sVbest
p386
I2501
sVclarifies
p387
I3583
sVbrazil
p388
I5398
sVoncogene
p389
I3965
sVepithelium
p390
I4061
sVigfbp
p391
I2930
sVnafld
p392
I5412
sVextraterminal
p393
I3672
sVscore
p394
I290
sVtolerance
p395
I4294
sVjaborandi
p396
I688
sVnever
p397
I661
sVextend
p398
I3502
sV2.754
p399
I5465
sVlymphocyte
p400
I5000
sVvitamin
p401
I2460
sVmek
p402
I4355
sVextent
p403
I5189
sVauroc
p404
I3599
sVarthritis
p405
I2178
sVsuggested
p406
I789
sVcreb
p407
I2574
sVagonist
p408
I2636
sVtriggers
p409
I1980
sVresistant
p410
I226
sVcountry
p411
I4942
sVuncertainty
p412
I3584
sVglycocalyx
p413
I5626
sVagainst
p414
I717
sVpolyneuropathy
p415
I5065
sVfna
p416
I4921
sVe6-e7
p417
I2200
sVcontribution
p418
I2350
sVgenus
p419
I2844
sVn0m0
p420
I2980
sVpre
p421
I3185
sV25%
p422
I4930
sVretinopathies
p423
I2319
sVinitiative
p424
I966
sVexclusively
p425
I1268
sV86%
p426
I4835
sVirhom2
p427
I263
sVmultifocal
p428
I4426
sVabdominal
p429
I3652
sV3.86
p430
I3169
sVeradication
p431
I3999
sVbasis
p432
I5504
sVregenerate
p433
I4954
sVremained
p434
I5276
sVthree
p435
I1430
sV.
I28
sVegfr-
p436
I4359
sVmuch
p437
I155
sVdetrimental
p438
I3727
sVintegrin
p439
I1714
sVprogenitor
p440
I3356
sVprivilege
p441
I3557
sVfgf(2/13)-
p442
I3339
sVidon
p443
I2801
sVproneural
p444
I3606
sVlocation
p445
I4736
sVobese
p446
I3462
sVlife
p447
I2009
sVmcl
p448
I1367
sVefficacy
p449
I3382
sVtransudate
p450
I4226
sVsuppress
p451
I1463
sVmcd
p452
I4166
sVdysrhythmia
p453
I4771
sVtc83
p454
I2907
sVrotarod
p455
I1307
sVchild
p456
I4887
sV163
p457
I3212
sVspontaneously
p458
I4979
sVcalcium
p459
I2726
sVnear
p460
I1649
sVsle
p461
I4663
sVmir)-30c
p462
I2312
sVbalance
p463
I375
sVanchor
p464
I4618
sVdemethylation
p465
I3271
sVix
p466
I1720
sVseven
p467
I389
sValkaloid
p468
I698
sVip
p469
I1217
sVis
p470
I31
sVir
p471
I2269
sVii
p472
I276
sVit
p473
I480
sVconditioned
p474
I863
sVreceptor-1
p475
I4486
sVreceptor-2
p476
I2855
sVin
p477
I59
sVapnea
p478
I3323
sV1-year
p479
I2518
sVmouse
p480
I1326
sVid
p481
I3970
sV/interferon
p482
I5295
sVif
p483
I2453
sVgrown
p484
I4544
sVabscess
p485
I3308
sVseverity
p486
I710
sV:
I98
sVmake
p487
I498
sVpotentially
p488
I3113
sVrbcs
p489
I5379
sVeuropean
p490
I3940
sVevolve
p491
I447
sVdirecting
p492
I4807
sVmyocardial
p493
I608
sVdsm-5
p494
I1767
sVdiffering
p495
I4361
sVkit
p496
I2075
sVadenoma
p497
I2457
sVpharmacological
p498
I2606
sVscale
p499
I3431
sVovert
p500
I3579
sVbcas2
p501
I3184
sVsubgroups
p502
I3607
sVprograms
p503
I4243
sVstimuli
p504
I1878
sVacademic
p505
I4884
sVsquamous
p506
I1735
sVmaterials
p507
I5529
sVdrg
p508
I3827
sVquantitative
p509
I4069
sVparadigm
p510
I3668
sVleft
p511
I3138
sVmir-122-igf-1r
p512
I4266
sVidentify
p513
I1278
sVsalivary
p514
I1584
sVhuman
p515
I949
sVyet
p516
I2431
sVprevious
p517
I1001
sVclaudication
p518
I4630
sVatrial
p519
I1437
sVhan
p520
I4030
sVregarded
p521
I2787
sVmirnas
p522
I390
sVthickening
p523
I270
sVpotential
p524
I194
sVaffinity
p525
I4452
sVeasy
p526
I2505
sV-induced
p527
I2820
sVallele
p528
I2674
sVhas
p529
I334
sVelevation
p530
I1045
sVsurvival
p531
I253
sVclonal
p532
I2042
sVhypersensitive
p533
I3192
sVpossible
p534
I151
sVpossibly
p535
I2375
sVopg
p536
I5513
sVorthodontic
p537
I5567
sVbirth
p538
I2413
sVclustered
p539
I3447
sVposes
p540
I2757
sVoccurring
p541
I4429
sVbrought
p542
I1672
sVvdr
p543
I4060
sVnude
p544
I1458
sVshaped
p545
I944
sVmanual
p546
I1760
sVlymphocytopenia
p547
I2430
sVenvisioned
p548
I4247
sVdengue
p549
I4601
sVmalnutrition
p550
I5614
sVmyeloproliferative
p551
I3841
sVnotorious
p552
I4234
sVeaenp
p553
I2345
sVeffusion
p554
I2643
sVbeneficial
p555
I2961
sVold
p556
I1771
sVpeople
p557
I1746
sVnonhematopoietic
p558
I3206
sVtrefoil
p559
I5293
sVdead
p560
I5273
sVelesclomol
p561
I2872
sVketoacidosis
p562
I1594
sVpain
p563
I2322
sVflavivirus
p564
I2409
sVfor
p565
I90
sVinvestigations
p566
I788
sVnervosa
p567
I5268
sVsubclass
p568
I4079
sVpi3k)/akt
p569
I2704
sVcontinue
p570
I4707
sVperiphery
p571
I2348
sVreoxygenation
p572
I779
sVunstable
p573
I2625
sVfunctionally
p574
I3849
sVgenotypes
p575
I4846
sVmcf-10a
p576
I2697
sVepigenetic
p577
I2088
sVcodifies
p578
I4877
sVfucosylated
p579
I4576
sVnecrolysis
p580
I4008
sVcvb3-specific
p581
I5291
sVmetastatic
p582
I3032
sVshifting
p583
I4040
sVsuper
p584
I3904
sVlentiviral
p585
I2061
sVintrapulmonary
p586
I5317
sVpredisposition
p587
I896
sVdisorder
p588
I795
sVadipose
p589
I5224
sVmedulloblastoma
p590
I733
sVastrocyte
p591
I3902
sVvaginal
p592
I4947
sVslightly
p593
I65
sVhospital
p594
I2779
sVnerve
p595
I3825
sVleptin
p596
I1455
sVsod
p597
I1039
sVhomogenization
p598
I5570
sVmbd
p599
I3697
sVintellectual
p600
I4297
sVsr3306
p601
I3664
sVdown
p602
I466
sVdiabetics
p603
I5166
sVjcpyv
p604
I2327
sVreducing
p605
I177
sV1.844.25
p606
I659
sVoften
p607
I1420
sVnovo
p608
I4893
sVglomerulosclerosis
p609
I5223
sV18-positive
p610
I4973
sVsupport
p611
I743
sVinitial
p612
I4403
sVwidth
p613
I5511
sVfraction
p614
I67
sVresulted
p615
I403
sVtams
p616
I5561
sVmb-231
p617
I5216
sVtherapeutically
p618
I3771
sVform
p619
I1273
sVoffer
p620
I1572
sVforming
p621
I2925
sVanalyse
p622
I874
sVfailure
p623
I1696
sVchemoradiotherapy
p624
I2942
sVclinico
p625
I3963
sVblindness
p626
I2111
sV225
p627
I2895
sV222
p628
I5533
sVlscs
p629
I4251
sVtraits
p630
I4905
sVarrays
p631
I1476
sVaza
p632
I4924
sVtertiary
p633
I2101
sVcholangitis
p634
I4643
sVb6
p635
I5298
sVcomplications
p636
I1645
sVvenules
p637
I2991
sVspecificities
p638
I1751
sVdiagnose
p639
I5368
sV150
p640
I1462
sVproved
p641
I1392
sVneuritis
p642
I2800
sVmelas
p643
I2370
sVproven
p644
I418
sVexist
p645
I3334
sVanthrax
p646
I3452
sVcorrelation
p647
I579
sVgraft
p648
I2644
sVeffusions
p649
I4215
sVmelanoma
p650
I1321
sVphelan
p651
I797
sVcardiology
p652
I5498
sVgenerally
p653
I4360
sVoestrogen
p654
I2513
sVcomposite
p655
I1604
sVserous
p656
I2139
sVrole
p657
I251
sVdigital
p658
I1346
sV29,797
p659
I3596
sVcortex
p660
I847
sVvariably
p661
I3713
sVmodels
p662
I762
sV0.045
p663
I2449
sValleviated
p664
I2223
sVglucocorticoids
p665
I4401
sVfabry
p666
I1638
sVmeningoencephalomyelitis
p667
I4612
sVredirected
p668
I3444
sVvariable
p669
I5114
sVtransporter
p670
I1088
sVsphingosine
p671
I4776
sVprogresses
p672
I1178
sVdisruption
p673
I1935
sVdaily
p674
I1132
sVgalectin-3
p675
I171
sVtime
p676
I106
sVurinary
p677
I283
sVchain
p678
I456
sVdissecting
p679
I3489
sVactivated
p680
I2347
sVmild
p681
I1074
sVparent
p682
I4886
sVasymptomatic
p683
I5517
sVskin
p684
I3660
sVosa
p685
I3324
sVderepression
p686
I4925
sVmyelofibrosis
p687
I3387
sVamplification
p688
I5085
sVdepend
p689
I4169
sVdisorders
p690
I37
sVpolyunsaturated
p691
I3657
sVtechnique
p692
I3314
sVparenchyma
p693
I3016
sVrecurrence
p694
I1700
sV0
I3143
sVfinally
p695
I3985
sVligand-1
p696
I3630
sVhepg2
p697
I5315
sVmd
p698
I3735
sVpathologist
p699
I4855
sVadenocarcinomas
p700
I4218
sVexact
p701
I5597
sVdio
p702
I3669
sVdid
p703
I1755
sVdie
p704
I4499
sVunderlain
p705
I3570
sVaugmenting
p706
I4423
sVleave
p707
I3036
sVeosinophilia
p708
I4700
sVepilepticus
p709
I162
sVgrafts
p710
I3520
sV1128
p711
I3939
sVprevent
p712
I1872
sVunexpected
p713
I1794
sVoccurrence
p714
I2768
sVfindings
p715
I189
sVintronic
p716
I4865
sVprediction
p717
I1277
sVliterature
p718
I635
sVimprinting
p719
I1034
sVfkbp2
p720
I1562
sVbacterial
p721
I935
sVtargets
p722
I209
sV30%
p723
I2046
sVadds
p724
I468
sVcremaster
p725
I2998
sVacidosis
p726
I2094
sVaxes
p727
I2596
sVastroglial
p728
I5183
sVcurrent
p729
I411
sVdeficiencies
p730
I895
sVh3k27
p731
I3649
sVremyelination
p732
I5188
sVblunted
p733
I4760
sVunderstanding
p734
I254
sVisoflavones
p735
I4193
sViarc
p736
I4116
sVsplice
p737
I4245
sVaddress
p738
I2656
sValone
p739
I827
sValong
p740
I2495
sVcoculture
p741
I5424
sVtachyarrhythmic
p742
I5538
sVbox
p743
I504
sVdiagnoses
p744
I622
sVccp5
p745
I3828
sVstudied
p746
I566
sVcommonly
p747
I2165
sVsomatic
p748
I835
sVineffective
p749
I870
sVthroughput
p750
I4327
sVdiagnosed
p751
I1069
sVbiopsies
p752
I3528
sVhbv
p753
I3276
sVstudies
p754
I247
sVipa
p755
I4763
sVipf
p756
I2232
sVipd
p757
I2486
sVmscs
p758
I2382
sVregeneration
p759
I4874
sVlovo
p760
I4172
sVreadmission
p761
I4691
sVcoinciding
p762
I4345
sVsympathetic
p763
I3919
sVallogeneic
p764
I4235
sVundergone
p765
I537
sVadditive
p766
I2395
sVworking
p767
I4183
sVpositive
p768
I834
sVvisit
p769
I5544
sVanatomical
p770
I4998
sVretinopathy
p771
I4461
sVopposed
p772
I1269
sVteeth
p773
I5566
sVresuscitation
p774
I4705
sVtheoretical
p775
I4282
sV39
p776
I1081
sVplatonin(200
p777
I1296
sVacetylated
p778
I1433
sVapparent
p779
I938
sVantigens
p780
I2108
sVvisual
p781
I1877
sVtandem
p782
I3128
sVdznep
p783
I5631
sVtransfusions
p784
I5362
sVsophoridinic
p785
I2765
sVbehalf
p786
I4184
sVpolypeptide
p787
I1512
sVtp53
p788
I1923
sVnlrp3
p789
I4761
sVhydrochloride
p790
I1531
sVoriginally
p791
I4459
sVcutaneous
p792
I2841
sVligase
p793
I4879
sVvegf
p794
I395
sVbelieved
p795
I4530
sVrepressing
p796
I3254
sVcrohn
p797
I2193
sVmultifactorial
p798
I4292
sVpredict
p799
I753
sVmicrobiota
p800
I5178
sVagent
p801
I1373
sVsample
p802
I958
sVunveiled
p803
I2595
sVallowed
p804
I3437
sVapigenin
p805
I4845
sV231
p806
I4586
sVflavonoids
p807
I4191
sVmonitoring
p808
I2669
sVseptic
p809
I2812
sVradiation
p810
I2268
sVstrikingly
p811
I4569
sVimmune
p812
I894
sVccr7/cxcr4
p813
I2921
sVhypersensitivity
p814
I4023
sVoptimal
p815
I3521
sVmicronuclei
p816
I3424
sVparameter
p817
I384
sVpathway
p818
I559
sV146
p819
I1785
sVmap
p820
I4898
sV140
p821
I5410
sVmay
p822
I911
sVepidemiologic
p823
I4395
sVspot
p824
I4907
sVexplored
p825
I2938
sVdesigned
p826
I3632
sVsnp
p827
I3043
sVcardiac
p828
I612
sVsuch
p829
I604
sVrevealed
p830
I819
sVstress
p831
I308
sVnatural
p832
I4097
sVarthroplasty
p833
I3330
sVcorrelate
p834
I4250
sVss
p835
I5028
sVsr
p836
I5075
sVovaria
p837
I4229
sVsclerosis
p838
I1100
sV-acetylaspartate
p839
I3756
sVst
p840
I3273
sVsk
p841
I1107
sVsi
p842
I1173
sVsh
p843
I3055
sVso
p844
I2465
sVgamma
p845
I5296
sVunleash
p846
I3923
sVsb
p847
I4842
sVpin1
p848
I738
sVhematopoietic
p849
I312
sVibsm
p850
I4824
sVoncology
p851
I3689
sVshrna
p852
I2443
sV80.7
p853
I1969
sVneferine
p854
I4096
sV092
p855
I1711
sVepilepsy
p856
I39
sVdamage
p857
I1128
sVstability
p858
I1903
sVcourse
p859
I1834
sVepisodes
p860
I2369
sVexperiments
p861
I2750
sVunfavorable
p862
I5606
sVobservational
p863
I809
sVadhesive
p864
I2950
sVderive
p865
I3731
sVgroup
p866
I1208
sVmonitor
p867
I2602
sVaplastic
p868
I2079
sVencompasses
p869
I5067
sVsensitizes
p870
I5006
sV939
p871
I4812
sVsuspicion
p872
I3494
sVovariectomized
p873
I2570
sVdecreased
p874
I282
sVmain
p875
I642
sVuptake
p876
I435
sVym-155
p877
I4508
sVchromatin
p878
I2242
sVnsc
p879
I3418
sVthereby
p880
I1879
sVenclave
p881
I4373
sVtoxic
p882
I4007
sVaspirations
p883
I4920
sVnsg
p884
I3989
sVmatched
p885
I572
sVbiomolecular
p886
I3107
sVtroponin
p887
I4753
sV14.2
p888
I631
sVquercetin
p889
I4192
sVenrichment
p890
I5102
sVproteins
p891
I202
sVrock
p892
I234
sVinstability
p893
I4164
sVquarter
p894
I600
sVpg545
p895
I477
sVhrtv
p896
I2429
sVbreakthrough
p897
I5004
sVowing
p898
I694
sVtumours
p899
I950
sVmethotrexate
p900
I5271
sVoedema
p901
I5623
sVdescription
p902
I3433
sVhcs
p903
I5525
sVthymoma
p904
I26
sVhct
p905
I3379
sVinterference
p906
I5156
sVp<0.001
p907
I5441
sVhcc
p908
I317
sVinvestigation
p909
I2888
sVtrauma
p910
I606
sVrae1
p911
I2511
sVinternet
p912
I4982
sVsuggesting
p913
I1197
sVprotected
p914
I3292
sVcorrect
p915
I2623
sVunivariate
p916
I381
sVtransmigration
p917
I2994
sVpathologic
p918
I2687
sVvascularization
p919
I3034
sVearlier
p920
I670
sVcooperatively
p921
I5207
sVburials
p922
I4833
sVmapped
p923
I4720
sVmechanisms
p924
I786
sVpossibility
p925
I1404
sV20
p926
I2045
sVrecordings
p927
I5154
sV6-minute
p928
I4633
sVhspc
p929
I3357
sVlipodystrophy
p930
I4897
sVnf-b
p931
I4506
sVlocations
p932
I3267
sV5/6nx
p933
I3920
sVmassive
p934
I2614
sVplasminogen
p935
I2273
sVmiapaca-2
p936
I2772
sVfirst
p937
I984
sVromo1
p938
I2640
sVdwelling
p939
I1967
sVrms
p940
I3461
sVnutritional
p941
I5622
sVparkinson
p942
I2659
sVone
p943
I599
sVspanish
p944
I3012
sVcarry
p945
I4391
sVmethodological
p946
I640
sVopen
p947
I1361
sVfmri
p948
I2566
sVlittle
p949
I1589
sVgenotype
p950
I343
sVsmoothened
p951
I5304
sVlumb
p952
I979
sVbite
p953
I4828
sVmalformations
p954
I5064
sVindicate
p955
I1900
sVrbps
p956
I5272
sVinfected
p957
I524
sVnsclc
p958
I1287
sVstructures
p959
I3621
sVanus
p960
I4658
sVeyes
p961
I4730
sVinefficient
p962
I462
sVapoptotic
p963
I1431
sVvav3
p964
I2685
sVvav2
p965
I2675
sVproving
p966
I2125
sVsiha
p967
I4974
sVbetanodavirus
p968
I1665
sVmalat1
p969
I4260
sVrepresenting
p970
I3363
sV11
p971
I4338
sV10
p972
I3391
sVhyperplasia
p973
I5009
sV15
p974
I1380
sVthird
p975
I2911
sVvulvar
p976
I342
sV16
p977
I3216
sV19
p978
I3635
sV18
p979
I5479
sVcytogenetics
p980
I2869
sVykl-40
p981
I5524
sVnsti
p982
I2230
sVfuture
p983
I2587
sV1%
p984
I5172
sVwere
p985
I96
sV.0046
p986
I2978
sVscleroderma
p987
I5486
sVdiastolic
p988
I2680
sVmcao)/1
p989
I768
sVillness
p990
I603
sVsclerosing
p991
I4642
sVsam
p992
I5615
sVhgsoc
p993
I2140
sVsaa
p994
I5552
sVastrocytes
p995
I3900
sVpubmed
p996
I4187
sVinhibiting
p997
I557
sVmodality
p998
I4290
sVheterotypic
p999
I2990
sVefficient
p1000
I501
sVpromotors
p1001
I2533
sVmultisystem
p1002
I4299
sVmaintain
p1003
I4708
sVtake
p1004
I4035
sVperformance
p1005
I1308
sVclbalf
p1006
I1928
sV200
p1007
I3395
sValtered
p1008
I1386
sVtrace
p1009
I1976
sVopposite
p1010
I4988
sVtrack
p1011
I4552
sVbetz
p1012
I3085
sVincidence
p1013
I2762
sVmolecule
p1014
I3510
sVthoroughly
p1015
I1979
sVtelomere
p1016
I565
sVbeta
p1017
I2543
sVdetect
p1018
I1925
sVtract
p1019
I2297
sVpair
p1020
I3950
sVknee
p1021
I5600
sVhematologist
p1022
I5012
sVankylosing
p1023
I3332
sVd-12
p1024
I4542
sVtyrosine
p1025
I4778
sVosteopenia
p1026
I3025
sVespecially
p1027
I1089
sVsurprising
p1028
I2326
sVaverage
p1029
I99
sVinfections
p1030
I1238
sVdrive
p1031
I2141
sVccp1
p1032
I3809
sVparkinsonism
p1033
I2970
sVtemporality
p1034
I4398
sVsals
p1035
I3081
sVsalt
p1036
I1688
sVprecise
p1037
I5286
sVobstructive
p1038
I2233
sVwalking
p1039
I4634
sVshow
p1040
I304
sVmerit
p1041
I2585
sVfibrotic
p1042
I2946
sVbtzo-1
p1043
I4521
sVsurgically
p1044
I3364
sVthreshold
p1045
I2433
sVaggressive
p1046
I319
sVsuccinylome
p1047
I2005
sVpathomechanisms
p1048
I1097
sVulcers
p1049
I4684
sVslow
p1050
I3764
sVn=86
p1051
I4604
sVatp6v1h
p1052
I2390
sVfluid
p1053
I807
sVanalytic
p1054
I5387
sVmaculopapular
p1055
I4024
sVlipids
p1056
I2767
sVduchenne
p1057
I2028
sVsensitivities
p1058
I1750
sVextracellular
p1059
I1631
sVawareness
p1060
I5093
sVhippo
p1061
I558
sVompa2
p1062
I3804
sVhistone
p1063
I1434
sVmorphological
p1064
I4063
sVuninvolved
p1065
I5255
sVhailed
p1066
I5003
sVdistinctly
p1067
I5245
sV-tcr
p1068
I2909
sVmsx1
p1069
I4085
sVcernas
p1070
I3931
sVrecombinant
p1071
I2965
sVsecondary
p1072
I1235
sVpd-1
p1073
I1282
sVparasitic
p1074
I1123
sVmedian
p1075
I4211
sVyield
p1076
I3491
sVsummary
p1077
I735
sVsubtype
p1078
I1265
sVesophageal
p1079
I2715
sVcharacteristic
p1080
I4108
sVuncover
p1081
I1588
sVwhere
p1082
I546
sVvision
p1083
I5243
sVattenuated
p1084
I4747
sVj4
p1085
I3512
sVtrem2
p1086
I4364
sVattenuates
p1087
I2949
sVk16
p1088
I272
sVsurgery
p1089
I126
sVmibc
p1090
I2183
sVcis
p1091
I3475
sVsatisfying
p1092
I3285
sVatrophic
p1093
I2354
sVcompounds
p1094
I200
sVopscc
p1095
I2859
sVsites
p1096
I825
sVlabel
p1097
I3381
sVvaccines
p1098
I1271
sV0.020
p1099
I1823
sVbehind
p1100
I2529
sVcytoprotective
p1101
I3882
sV0.024
p1102
I355
sV0.026
p1103
I3529
sVaffecting
p1104
I1630
sVacross
p1105
I516
sVdeletions
p1106
I3823
sVuseful
p1107
I1355
sVparental
p1108
I143
sVcaag
p1109
I2356
sVscreen
p1110
I2594
sVsuppresses
p1111
I5274
sVkilling
p1112
I3456
sVcouncil
p1113
I4857
sVje
p1114
I4785
sVmultivariable
p1115
I3147
sVcervical
p1116
I378
sVsuppressed
p1117
I3377
sVcli
p1118
I2117
sVcircumference
p1119
I5618
sVtractable
p1120
I3571
sVmany
p1121
I941
sVh5nx
p1122
I4456
sVaccording
p1123
I424
sVs
I577
sVvulvovaginal
p1124
I2549
sVdka
p1125
I1595
sVexpression
p1126
I191
sVamong
p1127
I1258
sVforecasting
p1128
I499
sVcancer
p1129
I72
sVasiv
p1130
I4661
sV,
I42
sVrseeg
p1131
I4733
sVanti
p1132
I476
sVmir-491
p1133
I2825
sVperpetuating
p1134
I5167
sVestrogen
p1135
I1145
sVconsidering
p1136
I4059
sVtumour
p1137
I1795
sVlncrna
p1138
I2827
sVnoninfarction
p1139
I5543
sVcapable
p1140
I4622
sVmounting
p1141
I165
sVlocally
p1142
I2387
sV1.745
p1143
I5463
sVtdp-43-positive
p1144
I3407
sVcombined
p1145
I1428
sV1.323.14
p1146
I1729
sVcd44
p1147
I2929
sVliving
p1148
I2262
sVbraf-
p1149
I4356
sVflavonoid
p1150
I3906
sVenable
p1151
I4829
sVbmd
p1152
I2419
sVformed
p1153
I4137
sVmir-1299
p1154
I3588
sVherc2
p1155
I3659
sVbayesian
p1156
I5546
sVdiffuse
p1157
I1633
sVthose
p1158
I24
sVjuveniles
p1159
I1679
sVmir-205
p1160
I5162
sVconsultant
p1161
I4854
sVdemethylase
p1162
I3508
sVprofiles
p1163
I3249
sVadipocyte
p1164
I1640
sVsplenomegaly
p1165
I2615
sV158n
p1166
I1254
sVrapamycin
p1167
I2848
sVpromising
p1168
I668
sVsituation
p1169
I242
sVhdl
p1170
I2482
sVpeptidebased
p1171
I3807
sVive
p1172
I5213
sVendothelial
p1173
I1046
sVpahs
p1174
I1141
sVprevalence
p1175
I3524
sVcharacteristics
p1176
I562
sVrad3-related
p1177
I1816
sVligaments
p1178
I5565
sVmiddle
p1179
I764
sVbron
p1180
I2156
sVambient
p1181
I425
sVscavenger
p1182
I5104
sVprotein
p1183
I505
sVtechnology
p1184
I680
sVerlotinib
p1185
I1429
sVdebilitating
p1186
I2235
sVchromatography
p1187
I3127
sVsame
p1188
I1931
sVsurveillance
p1189
I5053
sVprevented
p1190
I1619
sVpaf
p1191
I3255
sVpah
p1192
I5051
sVsubunit
p1193
I1942
sVpan
p1194
I5045
sVbreakdown
p1195
I5239
sVextended
p1196
I4302
sVedged
p1197
I2815
sVtwist1
p1198
I4168
sVkdm6b
p1199
I3509
sVstructurally
p1200
I3974
sVccrcc
p1201
I2314
sVtracking
p1202
I2331
sVintermittent
p1203
I4629
sVcelecoxib
p1204
I1897
sV217
p1205
I4752
sVgwas
p1206
I751
sVsulindac
p1207
I1898
sVpredicting
p1208
I1243
sVv2r
p1209
I2637
sVbeing
p1210
I2672
sVresp
p1211
I3602
sVrest
p1212
I4628
sVgdd
p1213
I4105
sVmultiplex
p1214
I5571
sVgated
p1215
I2731
sVjak1
p1216
I3385
sVadrenal
p1217
I1598
sVunderling
p1218
I4914
sVketamine
p1219
I3419
sVmacular
p1220
I2109
sVinterstitial
p1221
I1051
sVf]-ge180
p1222
I4943
sVresearches
p1223
I2195
sVdeleterious
p1224
I2583
sV4
I1363
sVprominently
p1225
I4652
sVfunctionality
p1226
I3035
sVextensive
p1227
I3028
sVgd1
p1228
I5345
sVaspects
p1229
I2968
sVpolymorphonuclear
p1230
I3834
sVnsp15
p1231
I4715
sVinhibition
p1232
I1844
sVworld
p1233
I3534
sVhnha
p1234
I4204
sVvgcc
p1235
I2732
sVidentifying
p1236
I1745
sVmalignancy
p1237
I320
sVserves
p1238
I4269
sVcu
p1239
I4960
sVeither
p1240
I4961
sVneuronal
p1241
I1303
sVserved
p1242
I5415
sVintestinal
p1243
I2555
sV5010
p1244
I3389
sVclassified
p1245
I3864
sV66
p1246
I4566
sVa66
p1247
I3498
sVcd9
p1248
I4198
sVcognitive
p1249
I1075
sVspecified
p1250
I3679
sVcontagious
p1251
I3089
sVadenoid
p1252
I1585
sVgeltamo
p1253
I3013
sVdimensions
p1254
I4992
sVconfirm
p1255
I1862
sVextensively
p1256
I3908
sVpathogenesis
p1257
I1050
sVcritical
p1258
I250
sVexpressing
p1259
I2890
sVthalamocortical
p1260
I4770
sVintravenous
p1261
I2131
sVdgla
p1262
I2437
sVpower
p1263
I3603
sVuterine
p1264
I4273
sVindustrialized
p1265
I4600
sVeach
p1266
I4514
sVnotable
p1267
I5605
sVnotably
p1268
I787
sVpancytopenia
p1269
I2616
sVratios
p1270
I3227
sVdiagnostics
p1271
I1066
sVacc
p1272
I3763
sVaca
p1273
I5078
sVacd
p1274
I2155
sV68.8%
p1275
I3400
sVdevelops
p1276
I2171
sVencephalitis
p1277
I2906
sVacs
p1278
I5354
sVacr
p1279
I3718
sV84%
p1280
I4872
sVwest
p1281
I520
sVmixed
p1282
I1761
sVmulticompartment
p1283
I3208
sVstrem2
p1284
I4365
sVwidowed
p1285
I4258
sVsuppression
p1286
I1896
sVafforded
p1287
I1161
sVimplantation
p1288
I3774
sVimage
p1289
I5478
sV\u000a
I134
sVmyoclonus
p1290
I1026
sVstrip
p1291
I4964
sVaccumulated
p1292
I1195
sVapolipoprotein
p1293
I53
sVoesophagus
p1294
I3164
sVsecretion
p1295
I1692
sVoligodendrocyte
p1296
I3898
sVcardiopulmonary
p1297
I4704
sVbarre
p1298
I2416
sVfrom
p1299
I439
sVplatelets
p1300
I1705
sVpanc-1
p1301
I2716
sVcomplete
p1302
I112
sVsecreted
p1303
I3549
sVstressors
p1304
I1135
sVfollicular
p1305
I5329
sVheptamethine
p1306
I2939
sVfoxo3a
p1307
I3996
sVtechnologies
p1308
I5147
sVmarital
p1309
I4366
sVwith
p1310
I49
sVregimen
p1311
I3991
sVrage
p1312
I5165
sVattenuate
p1313
I3783
sVdoxorubicin
p1314
I4765
sVht-29/b6
p1315
I5294
sVpolymorphisms
p1316
I1826
sV5-year
p1317
I321
sVaa
p1318
I4330
sVablation
p1319
I1648
sVac
p1320
I4351
sVae
p1321
I3349
sVad
p1322
I43
sVag
p1323
I4432
sVaf
p1324
I1439
sVai
p1325
I1600
sVkinetics
p1326
I4620
sVal
p1327
I4389
sVdeep
p1328
I2865
sVglucose-6-phosphate
p1329
I1569
sVmdr
p1330
I2638
sVas
p1331
I116
sVar
p1332
I5418
sVhypertension
p1333
I1410
sVat
p1334
I74
sVmaldi
p1335
I1528
sVlaboratory
p1336
I2225
sVlifetime
p1337
I5019
sVassessing
p1338
I1262
sVakaike
p1339
I3714
sVdrivers
p1340
I5149
sVhybrid
p1341
I2210
sVaromatic
p1342
I1139
sVtight
p1343
I4278
sVprism
p1344
I3566
sVantimicrobial
p1345
I3504
sV5-flurouracil
p1346
I2498
sVmonocyte
p1347
I5282
sVattributed
p1348
I4662
sVa.
p1349
I4561
sVdnd1
p1350
I4555
sVaccounts
p1351
I3628
sV488
p1352
I4567
sVtackle
p1353
I4322
sVnash
p1354
I5413
sVgastric
p1355
I91
sVremote
p1356
I1333
sVcasts
p1357
I1416
sVacids
p1358
I1693
sVrescues
p1359
I2819
sVinhibited
p1360
I1172
sVmass
p1361
I327
sVbehavioral
p1362
I3887
sVdyes
p1363
I1405
sVoral
p1364
I985
sVsplicing
p1365
I3186
sVinfluenza
p1366
I1237
sVconsider
p1367
I2246
sVcaused
p1368
I1124
sVpapilloma
p1369
I4946
sVporcine
p1370
I1468
sVmacroglobulinemia
p1371
I5333
sVexpressions
p1372
I5384
sVchildren
p1373
I1592
sVscs
p1374
I3067
sVscr
p1375
I4798
sVmir-199a-3p
p1376
I4873
sVcontent
p1377
I695
sVtz
p1378
I5306
sVratio=11.00
p1379
I2881
sVadhesion
p1380
I2144
sVtt
p1381
I920
sVht-29
p1382
I3378
sVts
p1383
I5442
sVformer
p1384
I4155
sVpembrolizumab
p1385
I1284
sVto
p1386
I23
sVautosomal
p1387
I4107
sVxenografts
p1388
I2889
sVintravital
p1389
I2988
sVtg
p1390
I4675
sVheterogeneity
p1391
I436
sVtb
p1392
I1749
sVneoangiogenic
p1393
I5179
sVdegeneration
p1394
I2033
sVadenylate
p1395
I4341
sVfals
p1396
I3080
sVblockade
p1397
I2918
sVmyeloperoxidase
p1398
I3788
sVplce1
p1399
I2714
sVtranscriptome
p1400
I1475
sVfall
p1401
I3092
sVbottleneck
p1402
I4832
sVmicrornas
p1403
I1341
sVcondition
p1404
I892
sVtrigger
p1405
I4696
sVneurological
p1406
I36
sVtropomyosin
p1407
I3210
sVhydronephrosis
p1408
I3865
sVageing
p1409
I4756
sVt2
p1410
I4597
sVapplicable
p1411
I2377
sVphosphorylation
p1412
I1539
sVt1
p1413
I1625
sVlarge
p1414
I245
sVsaudi
p1415
I5038
sVsmall
p1416
I368
sVimb-6
p1417
I2763
sVperiodontal
p1418
I3808
sVtuberculous
p1419
I4222
sVglioma
p1420
I956
sVerythropoiesis
p1421
I3845
sV190
p1422
I5170
sVcerebrovascular
p1423
I1019
sVdiscriminated
p1424
I3195
sVnivolumab
p1425
I1283
sV19%
p1426
I1971
sVfurther
p1427
I244
sVhypertrophy
p1428
I4479
sVleukoencephalopathy
p1429
I4427
sVtumorigenicity
p1430
I1344
sVhormonal
p1431
I2862
sV-based
p1432
I2822
sVabi
p1433
I4625
sVpic1
p1434
I3787
sVghq-12
p1435
I3142
sVissues
p1436
I2657
sVscientists
p1437
I5542
sVongoing
p1438
I5148
sVmethod
p1439
I494
sVcontrast
p1440
I1934
sVcohorts
p1441
I2711
sVfull
p1442
I3930
sVmalaria
p1443
I1503
sVgenotyping
p1444
I1426
sVcomponent
p1445
I2811
sVimmunosuppression
p1446
I4314
sVoperating
p1447
I4233
sVsubclinical
p1448
I2162
sVprofiled
p1449
I3522
sVpooled
p1450
I4128
sVsearch
p1451
I2466
sVstriatum
p1452
I3470
sVmyelinate
p1453
I3071
sVoscc
p1454
I256
sVexperience
p1455
I4344
sVprior
p1456
I2022
sVpick
p1457
I1565
sVaction
p1458
I4611
sVtoxicity
p1459
I30
sVpathological
p1460
I2318
sVcystic
p1461
I1586
sVvia
p1462
I414
sVfollowed
p1463
I814
sVmdacc
p1464
I3678
sVegfr
p1465
I1403
sVc5b-9
p1466
I5496
sVesrd
p1467
I4579
sVregimens
p1468
I3482
sVestablish
p1469
I4539
sVdetecting
p1470
I3892
sVselect
p1471
I3641
sVrelaxometry
p1472
I4594
sVeye
p1473
I2650
sVdistinct
p1474
I4177
sVmim#166260
p1475
I4106
sVdirection
p1476
I3123
sVtwo
p1477
I815
sVcomparing
p1478
I3106
sVprb
p1479
I4433
sVcancerogenesis
p1480
I2208
sV6
I3144
sV0.007
p1481
I3702
sVltbi
p1482
I1743
sVmetformin
p1483
I2845
sVr102x
p1484
I1030
sV0.001
p1485
I1730
sVmore
p1486
I239
sVproliferative
p1487
I3576
sVlymphovascular
p1488
I3871
sVinitiated
p1489
I4589
sVsubstances
p1490
I4737
sVrelevant
p1491
I3585
sVchemotherapeutics
p1492
I2861
sVemission
p1493
I441
sVicariside
p1494
I3905
sVtested
p1495
I2896
sV17-estradiol
p1496
I1131
sVparticular
p1497
I214
sVtswv
p1498
I4910
sVatc
p1499
I5234
sV6-member
p1500
I3810
sVanticoagulated
p1501
I1436
sV-methyladenosine
p1502
I3272
sVstrain
p1503
I2903
sVcanavan
p1504
I3752
sVremain
p1505
I3726
sVsudden
p1506
I4298
sVindicating
p1507
I4178
sVknocked
p1508
I2442
sVstrategies
p1509
I703
sVmale
p1510
I1456
sVspecialized
p1511
I490
sVdiabetic
p1512
I1593
sVantagonists
p1513
I147
sVcytomatrix
p1514
I5595
sVneglected
p1515
I1122
sVpro
p1516
I470
sVvad.
p1517
I3250
sVstates
p1518
I1762
sVunbiased
p1519
I5526
sVnumbers
p1520
I1551
sVmolecularly
p1521
I5094
sVaxis
p1522
I102
sVnarrowly
p1523
I1763
sVinformation
p1524
I1185
sVneovascular
p1525
I5180
sVmapk
p1526
I394
sVacts
p1527
I2635
sVcsc
p1528
I2286
sVpolyangiitis
p1529
I3101
sVmapp
p1530
I5489
sVfunctioning
p1531
I2258
sVupregulation
p1532
I2535
sVm1gas
p1533
I3745
sVcss
p1534
I3751
sVcontinues
p1535
I4646
sVintended
p1536
I3441
sVour
p1537
I742
sVhemangiogenesis
p1538
I4272
sVvariant
p1539
I3868
sVtreatments
p1540
I3480
sVconnectivity
p1541
I4727
sVpropanoate
p1542
I3733
sVbioinformatics
p1543
I2807
sVlanka
p1544
I5198
sVresponse
p1545
I869
sV-specific
p1546
I921
sVprh
p1547
I2917
sVperitonitis
p1548
I1396
sVdispensable
p1549
I4638
sVutilitarian
p1550
I5416
sVcox)-catalyzed
p1551
I4020
sVextramedullary
p1552
I3844
sVcoad
p1553
I1188
sVmortem
p1554
I3078
sVimmunosuppressed
p1555
I4430
sVameliorates
p1556
I173
sVpredisposes
p1557
I4021
sVattachment
p1558
I2142
sVmicropapillary
p1559
I3870
sVpaper
p1560
I1578
sVthrough
p1561
I854
sVtauopathies
p1562
I2969
sVsigns
p1563
I5258
sVnephritis
p1564
I5467
sVsuffer
p1565
I2256
sVgsk3
p1566
I3646
sVits
p1567
I62
sVnfat
p1568
I4248
sV24
p1569
I3403
sV26
p1570
I3983
sVarteries
p1571
I1994
sVrapidly
p1572
I1179
sV22
p1573
I4912
sVtermed
p1574
I2558
sVallo
p1575
I5438
sVgerald
p1576
I4850
sV28
p1577
I1613
sV29
p1578
I1080
sVpct
p1579
I5474
sVmicroenvironment
p1580
I946
sVsymptoms
p1581
I1042
sV2%
p1582
I4839
sVdetected
p1583
I58
sVpci
p1584
I3299
sVmicroscopic
p1585
I570
sVproteomics
p1586
I3130
sVfosl1
p1587
I1490
sVpca
p1588
I402
sVki67expression
p1589
I5395
sVfocussed
p1590
I4819
sVmeasurement
p1591
I4945
sVgood
p1592
I1063
sVnephrin
p1593
I5222
sVpropose
p1594
I2393
sVpathologically
p1595
I534
sVmales
p1596
I3463
sVwalls
p1597
I5237
sVrank
p1598
I578
sVcompound
p1599
I144
sVharrow
p1600
I4864
sVassociation
p1601
I338
sValways
p1602
I4259
sVinflammasome
p1603
I4762
sVevents
p1604
I87
sVharbor
p1605
I5113
sVperitumoral
p1606
I4500
sV2a
p1607
I3744
sVbasophils
p1608
I3873
sVantiaggregation
p1609
I1327
sVpmns
p1610
I3835
sVcaliber
p1611
I2683
sVphysiologically
p1612
I4062
sVstatus
p1613
I161
sVshock
p1614
I509
sVengland
p1615
I4862
sVfish
p1616
I1677
sVreduce
p1617
I1465
sVidea
p1618
I1061
sV27.6%
p1619
I1786
sVdoses
p1620
I5095
sVoperation
p1621
I5434
sVov202
p1622
I3058
sVcalorie
p1623
I4933
sVstandard
p1624
I4502
sVfts
p1625
I1116
sV20.9
p1626
I5449
sVresearch
p1627
I1917
sVfactor-.
p1628
I2993
sVcpg2216
p1629
I2341
sVftd
p1630
I2662
sVdysfunction
p1631
I1203
sVevaluation
p1632
I1913
sVoccurs
p1633
I5031
sVprins
p1634
I2829
sVlocalization
p1635
I663
sVprogranulin
p1636
I3404
sVimaging
p1637
I1198
sVmembers
p1638
I3670
sVairway
p1639
I1682
sVmmd
p1640
I4044
sVschistosomiasis
p1641
I718
sVretained
p1642
I2933
sVxenograft
p1643
I1196
sVheparanase
p1644
I473
sVpfic2
p1645
I1724
sVconducted
p1646
I248
sVparg1
p1647
I2974
sVexhibited
p1648
I1323
sVpyelonephritis
p1649
I1244
sVmajor
p1650
I1312
sVnumber
p1651
I199
sVpreservation
p1652
I4836
sVsunitinib
p1653
I4548
sVutilized
p1654
I3779
sVgeneral
p1655
I3219
sVangiogenic
p1656
I2749
sV0.04
p1657
I4793
sVpde10a
p1658
I4551
sVunexplained
p1659
I3001
sVjev
p1660
I4786
sVintroduction
p1661
I5521
sVthreatening
p1662
I3644
sVdfs
p1663
I4151
sVregulation
p1664
I255
sVgenetically
p1665
I4390
sVemperipolesis
p1666
I3011
sV185
p1667
I2893
sV76%/68%/84%
p1668
I2932
sVmolecular
p1669
I1152
sVmotility
p1670
I1990
sVbrca1
p1671
I5440
sVnci-60
p1672
I2521
sVrelationship
p1673
I1684
sV1.873.74
p1674
I3047
sVcapsular
p1675
I2488
sVmyofibroblasts
p1676
I2947
sVsensitization
p1677
I5098
sV4150
p1678
I4056
sVimmediate
p1679
I2600
sVpart
p1680
I853
sVdifferentiate
p1681
I3066
sVparp
p1682
I1112
sVfocusing
p1683
I2336
sVlinoleic
p1684
I3654
sVb
I1364
sVcritically
p1685
I3072
sVaal
p1686
I4557
sVcyclin
p1687
I1543
sVlargely
p1688
I664
sV0.0070.74
p1689
I3701
sVminimize
p1690
I4440
sVdetermined
p1691
I1440
sV0.98
p1692
I4377
sVlectin
p1693
I5531
sVtreated
p1694
I1622
sV0.015
p1695
I352
sVecfcs
p1696
I2926
sV0.017
p1697
I5466
sVages
p1698
I2148
sVdefect
p1699
I3755
sVp75ntr
p1700
I2204
sVdirect
p1701
I205
sVtegumentary
p1702
I2839
sVdendritic
p1703
I2176
sVcategorized
p1704
I3244
sVconfirms
p1705
I3706
sVdipstick
p1706
I568
sVself
p1707
I571
sVnucleotide
p1708
I3821
sVonset
p1709
I1614
sValso
p1710
I898
sVinternal
p1711
I2733
sVk6
p1712
I280
sVchanghua
p1713
I3953
sVplay
p1714
I1933
sVendometrioid
p1715
I445
sVphosphoprotein
p1716
I3802
sVmost
p1717
I187
sVvirus
p1718
I1007
sVsignificant
p1719
I904
sVtmem106b
p1720
I3537
sVkg
p1721
I1297
sVnitrogen
p1722
I2132
sVdystrophy
p1723
I2030
sVactionable
p1724
I3893
sVcarcinoembryonic
p1725
I4968
sVelucidating
p1726
I2790
sVbodies
p1727
I51
sVeloreta
p1728
I4728
sVangiopathy
p1729
I1777
sVconsisted
p1730
I3094
sVraav
p1731
I1798
sVmcdermid
p1732
I798
sVpd
p1733
I2660
sVnanobeads
p1734
I4963
sVsomewhat
p1735
I2624
sVgold
p1736
I4780
sV1,067
p1737
I4813
sVscattered
p1738
I3009
sVinjected
p1739
I2385
sVmalignant
p1740
I2642
sVentity
p1741
I1021
sVdnbs
p1742
I5231
sVfine
p1743
I2609
sVfind
p1744
I3197
sVimpact
p1745
I1359
sVindicator
p1746
I2226
sVnervous
p1747
I993
sVsystematically
p1748
I1681
sVdistributed
p1749
I3412
sVenzyme
p1750
I1044
sVcassette
p1751
I1087
sVsymptom
p1752
I3934
sVfactor
p1753
I1146
sV8
I4064
sVintractable
p1754
I5137
sVdependent
p1755
I2107
sVcholera
p1756
I1940
sVcdk11
p1757
I5407
sVbreast
p1758
I71
sVclosely
p1759
I2299
sVrelocate
p1760
I3436
sVuntreated
p1761
I1597
sVinducible
p1762
I4138
sVrfs
p1763
I4692
sVcrp
p1764
I2777
sVprogressive
p1765
I1199
sVrb/h2ax
p1766
I5057
sVhits
p1767
I3487
sVtumors
p1768
I361
sVl02
p1769
I5316
sVremove
p1770
I5071
sVcrc
p1771
I1516
sVrfa
p1772
I2008
sVcommon
p1773
I621
sVlogistic
p1774
I5458
sVjak2
p1775
I3933
sVset
p1776
I959
sVseq
p1777
I818
sV316
p1778
I3956
sVpotent
p1779
I474
sVsex
p1780
I1773
sVcollectively
p1781
I1445
sVtreg
p1782
I4349
sVgenomic
p1783
I2124
sVanalog
p1784
I2633
sVcg200745
p1785
I1083
sVmatter
p1786
I4927
sVguinea
p1787
I1259
sVpositivity
p1788
I2879
sVcurrently
p1789
I2187
sVpd1
p1790
I3642
sVtuberculoid
p1791
I918
sVtoledo
p1792
I5110
sVmaspin
p1793
I3483
sVmyopathy
p1794
I2366
sVmymensingh
p1795
I5499
sVshank3
p1796
I2586
sVplasmid
p1797
I2063
sVavailable
p1798
I1347
sVhippocampus
p1799
I5136
sVresponses
p1800
I929
sVwildtype
p1801
I4621
sVtargeted
p1802
I1181
sVenolase
p1803
I4966
sVlipocalin
p1804
I4049
sVblot
p1805
I4740
sVselectively
p1806
I3455
sVikk
p1807
I5206
sVasthma
p1808
I4417
sV3.4-fold
p1809
I3791
sValters
p1810
I3201
sVftpd-17
p1811
I2973
sVlast
p1812
I5127
sVreverse
p1813
I1870
sVpdx
p1814
I1521
sVpdw
p1815
I5512
sVpdt
p1816
I4288
sVautoimmune
p1817
I998
sVwhole
p1818
I875
sVhealing
p1819
I4632
sVpoint
p1820
I1314
sVdownregulated
p1821
I5208
sVcommunity
p1822
I1966
sVdimensional
p1823
I5253
sVpm
p1824
I3721
sVhbv)-related
p1825
I2040
sVagents
p1826
I1311
sVovca432
p1827
I3760
sVzeta
p1828
I2883
sVsuppressing
p1829
I3558
sVexpensive
p1830
I488
sVplatinum
p1831
I5339
sVautophagic
p1832
I2775
sVsplenic
p1833
I860
sVscreened
p1834
I1556
sVmicrofluidic
p1835
I5252
sVinitiation
p1836
I4103
sVrett
p1837
I3181
sVmeeting
p1838
I5025
sVresting
p1839
I2565
sVmodern
p1840
I4816
sVorlistat
p1841
I5593
sVnrm
p1842
I4952
sVradiofrequency
p1843
I2007
sVgreat
p1844
I1318
sVgap
p1845
I3486
sVgal
p1846
I784
sVunderstand
p1847
I3248
sVsystematic
p1848
I3432
sVgad
p1849
I3242
sVligands
p1850
I3053
sVbile
p1851
I1687
sVct(desct
p1852
I3554
sVsolid
p1853
I4071
sVreliable
p1854
I2506
sVexpanded
p1855
I5492
sVempirical
p1856
I702
sVcluster
p1857
I3743
sVmedically
p1858
I3175
sVreplaced
p1859
I1770
sVfuc
p1860
I284
sVevaluating
p1861
I4393
sV32
p1862
I3393
sVras
p1863
I1466
sVami
p1864
I791
sVhyperactivity
p1865
I2254
sVltbp-4
p1866
I5485
sVbinding
p1867
I278
sVocclusive
p1868
I2964
sVimmunomodulatory
p1869
I5049
sVitself
p1870
I2073
sVtriple
p1871
I1176
sVmediating
p1872
I3525
sVregulate
p1873
I3319
sV16-positive
p1874
I4975
sVfibers
p1875
I3826
sVmigraine
p1876
I2578
sVrheumatism
p1877
I4859
sVjanus
p1878
I3932
sVelevated
p1879
I540
sVshorter
p1880
I5091
sVbenign
p1881
I4194
sV8-nitroguanine
p1882
I4136
sVsubcutaneous
p1883
I4889
sVlvd
p1884
I4284
sVfibrosis
p1885
I914
sVdevelopment
p1886
I907
sVattenuation
p1887
I2784
sVcomprehensive
p1888
I4971
sVpalmoplantar
p1889
I269
sVosteoarthritis
p1890
I5601
sVlevels
p1891
I76
sVpurpose
p1892
I755
sVatheroprotector
p1893
I5076
sVinfused
p1894
I4536
sVher2-positive
p1895
I1653
sVfocal
p1896
I2143
sVrecent
p1897
I188
sVearly
p1898
I69
sVinfertility
p1899
I3205
sVnold
p1900
I4724
sVspent
p1901
I2084
sV64.4%
p1902
I3399
sVregulating
p1903
I2313
sVki-67
p1904
I2979
sVy
I503
sVentry
p1905
I1944
sVcomprise
p1906
I916
sVldd
p1907
I3194
sVhypothesized
p1908
I3710
sVlds
p1909
I3062
sVusing
p1910
I724
sValternative
p1911
I3202
sVdpp4
p1912
I4623
sVinjuries
p1913
I1337
sVcontradicting
p1914
I4950
sVimplicate
p1915
I1867
sVsplenectomy
p1916
I2074
sVtranscriptase
p1917
I3346
sVconclusions
p1918
I4794
sVsteatohepatitis
p1919
I4599
sVchest
p1920
I5507
sVsignals
p1921
I866
sVsource
p1922
I4252
sVrge
p1923
I1905
sVrelevance
p1924
I1863
sVdysfunctions
p1925
I5244
sVrodents
p1926
I2584
sVemergency
p1927
I125
sVbladder
p1928
I574
sVlymphocytic
p1929
I3616
sVcouple
p1930
I5128
sVpolycyclic
p1931
I1138
sVsuffering
p1932
I601
sVisolates
p1933
I1267
sVknock
p1934
I4641
sVeffectiveness
p1935
I716
sVd
I770
sVparietal
p1936
I2359
sVfibroblasts
p1937
I3661
sVflux
p1938
I2782
sVindividuals
p1939
I1815
sVbsep
p1940
I1691
sVerythematosus
p1941
I4698
sVreduces
p1942
I1715
sVamyotrophic
p1943
I1098
sVmethods
p1944
I3629
sVmetabolic
p1945
I1537
sVspring
p1946
I3091
sVb.
p1947
I5432
sVautophagy
p1948
I1118
sVb4
p1949
I4645
sV0.721.41
p1950
I649
sVimmunologic
p1951
I5061
sVb7
p1952
I1978
sV1,25(oh)2d3
p1953
I4483
sVb1
p1954
I1544
sVb3
p1955
I4421
sVmrsa
p1956
I1395
sVand/or
p1957
I1423
sVrbm3
p1958
I3860
sVglycosylation
p1959
I1252
sVpet
p1960
I538
sVaffects
p1961
I2588
sV8-hydroxyoctanoic
p1962
I2434
sVinvade
p1963
I3912
sVbe
p1964
I6
sVpatient
p1965
I1377
sVbb
p1966
I5462
sVbc
p1967
I545
sVperformed
p1968
I575
sVbm
p1969
I761
sVbo
p1970
I3858
sVbi
p1971
I5611
sVbt
p1972
I4758
sVbv
p1973
I2548
sVbiomarkers
p1974
I669
sVfew
p1975
I1885
sVnasopharyngeal
p1976
I4123
sVrelating
p1977
I2975
sVbx
p1978
I4336
sVby
p1979
I176
sVgynecologic
p1980
I2874
sVratio=7.48
p1981
I2913
sVdeserved
p1982
I5144
sVbsm
p1983
I2295
sVdifferentially
p1984
I4066
sV2.9%
p1985
I4317
sVepitope
p1986
I725
sVconsequently
p1987
I2325
sVrepair
p1988
I4880
sVinto
p1989
I1151
sVaml-3
p1990
I5632
sVtcpo
p1991
I4627
sVnse
p1992
I4967
sVlocus
p1993
I3490
sVnras-
p1994
I4357
sVmitochondrial
p1995
I454
sVcontroversies
p1996
I3326
sVprimarily
p1997
I4001
sVburdens
p1998
I3716
sVftld
p1999
I3409
sVpathogenicity
p2000
I3803
sVclustering
p2001
I5547
sVintracerebroventricularly
p2002
I4537
sVmmp-2
p2003
I2534
sV1.5%
p2004
I5171
sVmmp-9
p2005
I2454
sVspecifically
p2006
I1194
sVadenocarcinoma
p2007
I1356
sVhnscc
p2008
I2277
sVprobnp
p2009
I4127
sVlipopolysaccharide
p2010
I2810
sVconsiderably
p2011
I2512
sVan
p2012
I318
sVintraperitoneal
p2013
I4802
sVzikv
p2014
I2406
sVsyndromic
p2015
I4091
sVadjusting
p2016
I423
sVretina
p2017
I5240
sVnotch1
p2018
I2737
sVmechanistic
p2019
I3023
sVapps.
p2020
I2724
sVlink
p2021
I3578
sVline
p2022
I734
sVlinc
p2023
I5603
sVconsiderable
p2024
I2259
sVzika
p2025
I2405
sVdirected
p2026
I2357
sVmycn
p2027
I204
sVblockage
p2028
I5204
sVzhx
p2029
I4471
sVinteractomes
p2030
I1191
sVrnas
p2031
I2002
sVup
p2032
I1016
sVus
p2033
I4041
sVnscs
p2034
I4678
sVum
p2035
I1154
sVpaired
p2036
I3981
sVmature
p2037
I3104
sVrmg1
p2038
I3759
sVloewi
p2039
I4851
sVuc
p2040
I3944
sVbronchopulmonary
p2041
I5176
sVtranscriptional
p2042
I3544
sValloimmunized
p2043
I5373
sVdefined
p2044
I1211
sVm
I1921
sVinfluence
p2045
I2455
sVcafs
p2046
I4467
sVglobally
p2047
I3311
sVsingle
p2048
I366
sVcure
p2049
I5052
sVsubtypes
p2050
I551
sVserological
p2051
I5175
sVelement-
p2052
I4524
sVdefines
p2053
I2392
sV%
I629
sVpuzzling
p2054
I4469
sVmicheliolide
p2055
I2809
sVmtdna
p2056
I2371
sVpreventing
p2057
I4751
sVadjuvant
p2058
I1841
sVb12
p2059
I2461
sV\u000a\u000a\u000a
p2060
I93
sVb10
p2061
I4145
sV95%
p2062
I592
sVprinciple
p2063
I3890
sVpilocarpine
p2064
I696
sVelements
p2065
I1907
sVly1
p2066
I5109
sVrabies
p2067
I2955
sVprovided
p2068
I2752
sVly8
p2069
I5111
sVlens
p2070
I5221
sVhumanized
p2071
I3988
sVrestoration
p2072
I3761
sVcoagulopathy
p2073
I619
sVmmp9/mmp13
p2074
I2394
sVfeasible
p2075
I677
sVworsened
p2076
I2221
sVage
p2077
I1772
sVthrombosis
p2078
I3303
sVrs4678680
p2079
I4994
sVpresenting
p2080
I4230
sV2004
p2081
I5390
sVenrolled
p2082
I1968
sV2008
p2083
I4606
sVags
p2084
I2802
sVhaving
p2085
I1972
sV-amyloid
p2086
I4253
sVpartial
p2087
I1376
sVillustrates
p2088
I3891
sVtov21
p2089
I3762
sVresults
p2090
I1166
sVexisting
p2091
I5353
sVillustrated
p2092
I4057
sVfungal
p2093
I178
sVfas
p2094
I3103
sVbvd
p2095
I4285
sVamplified
p2096
I3183
sVcenters
p2097
I5397
sVspion
p2098
I2332
sVyoung
p2099
I3090
sVeffectors
p2100
I1889
sVoesophageal
p2101
I266
sVinstitutions
p2102
I4337
sVatlas
p2103
I957
sVfatal
p2104
I1670
sVgliomas
p2105
I960
sVresources
p2106
I3243
sVmultibacillary
p2107
I5256
sVbv2
p2108
I1986
sV  
p2109
I5559
sVrandom
p2110
I2514
sVassay
p2111
I2508
sVprovides
p2112
I457
sVlnm
p2113
I1998
sVcyclooxygenase
p2114
I4019
sVphenotypes
p2115
I1685
sVdevelopmentally
p2116
I4072
sVmetabolomics
p2117
I5483
sVvlp
p2118
I1943
sVcategories
p2119
I3719
sVentire
p2120
I348
sVtrk
p2121
I210
sVtransmission
p2122
I991
sVclassifications
p2123
I5047
sVintegrating
p2124
I3935
sVevd
p2125
I515
sVoptica
p2126
I3225
sVmarried
p2127
I4497
sVobesity
p2128
I153
sVbleeding
p2129
I119
sVantigen
p2130
I2057
sVprogenitors
p2131
I4074
sVtumoral
p2132
I5393
sVvideo
p2133
I5152
sVelisa
p2134
I757
sVdepression
p2135
I2010
sVindex
p2136
I328
sViims
p2137
I4384
sVassisted
p2138
I1524
sVfat
p2139
I3269
sVexpressed
p2140
I73
sVhereditary
p2141
I881
sVconsistently
p2142
I2217
sVfrequent
p2143
I1155
sVr-18
p2144
I4543
sVcmbs
p2145
I1780
sVrelaxation
p2146
I4596
sV3d
p2147
I5250
sVbody
p2148
I326
sVhpv16
p2149
I2199
sVproliferation
p2150
I556
sVled
p2151
I1255
sVtransmissibility
p2152
I1257
sV-substituted
p2153
I2764
sVrespectively
p2154
I2500
sVbrd4
p2155
I1492
sVheterozygous
p2156
I356
sVsink
p2157
I3903
sVothers
p2158
I3977
sVoxidative
p2159
I1888
sVtremor
p2160
I4768
sVneuromyelitis
p2161
I3224
sVck1.
p2162
I3854
sVphysiology
p2163
I4321
sVrdw
p2164
I3773
sVepigenetics
p2165
I2857
sVreceive
p2166
I5361
sVinvolved
p2167
I1343
sV31
p2168
I4221
sV30
p2169
I4224
sV37
p2170
I5312
sV35
p2171
I3992
sV34
p2172
I5534
sVresulting
p2173
I2154
sVinsulin
p2174
I2849
sV3-
p2175
I3190
sVctc
p2176
I5146
sVimplement
p2177
I2015
sVbrd3
p2178
I3675
sVhonor
p2179
I5016
sVinvolves
p2180
I5301
sVck14
p2181
I1580
sVcomposed
p2182
I2688
sVnamed
p2183
I131
sV67.0
p2184
I5068
sVimpulsivity
p2185
I4990
sVoutcomes
p2186
I85
sVoverestimating
p2187
I4799
sVdecrease
p2188
I3658
sVlimb
p2189
I2116
sVtools
p2190
I2376
sVcausal
p2191
I2126
sV0.002
p2192
I4208
sVlime
p2193
I5399
sVconfidence
p2194
I647
sVkeratin
p2195
I277
sVchd
p2196
I2477
sVanticoagulation
p2197
I5116
sVnext
p2198
I3317
sVscreening
p2199
I259
sVon
p2200
I158
sVachieve
p2201
I3929
sVpfs
p2202
I4181
sViii
p2203
I56
sVtccc3
p2204
I3454
sVresection
p2205
I110
sVaccount
p2206
I1887
sVanimals
p2207
I2092
sVevolution
p2208
I4572
sVf
I433
sVthis
p2209
I169
sVchallenge
p2210
I2524
sVhexanucleotide
p2211
I4866
sVphosphoinositide-3
p2212
I2703
sVurethral
p2213
I2290
sVprompts
p2214
I3263
sV1.48
p2215
I3150
sVhdacs
p2216
I2754
sV1.45
p2217
I3151
sV1.47
p2218
I3162
sV1.43
p2219
I3288
sV1.42
p2220
I3170
sVe.g.
p2221
I152
sVdesorption
p2222
I1526
sVprocess
p2223
I671
sVpelvic
p2224
I5487
sVloci
p2225
I974
sVpurinergic
p2226
I5325
sVhigh
p2227
I288
sVeffectively
p2228
I3207
sVbones
p2229
I2159
sVnative
p2230
I3300
sVlysine
p2231
I2004
sVtumor
p2232
I15
sVeducational
p2233
I4238
sVheg2
p2234
I5217
sVdestroying
p2235
I2266
sVregions
p2236
I824
sVvaries
p2237
I4031
sVforest
p2238
I2515
sVanimal
p2239
I2721
sVestablishment
p2240
I2504
sVprofile
p2241
I876
sVrelapsing
p2242
I1484
sVblocks
p2243
I1712
sVurological
p2244
I1699
sVcd34
p2245
I3355
sVleukemia
p2246
I1275
sVnpc
p2247
I1566
sVleukemic
p2248
I3362
sVhs746
p2249
I2803
sVpigs
p2250
I1260
sVdemonstrating
p2251
I2698
sVmultiplication
p2252
I925
sVhemostatic
p2253
I617
sVmarrow
p2254
I2054
sVprostate
p2255
I291
sVnps
p2256
I4306
sVefficiently
p2257
I2958
sVoverexpression
p2258
I1291
sVintraepithelial
p2259
I3097
sVbind
p2260
I4176
sVcounter
p2261
I867
sVlines
p2262
I1119
sVsynthase
p2263
I2472
sVsorafenib
p2264
I4205
sVp=0.036
p2265
I4265
sVp=0.033
p2266
I903
sV8-hydroxyguanosine
p2267
I4135
sVallow
p2268
I934
sVscarring
p2269
I5184
sVsubsequently
p2270
I2185
sVp=0.038
p2271
I5454
sVvaccinated
p2272
I3095
sVinsight
p2273
I1554
sVtranscriptionally
p2274
I4475
sVovertake
p2275
I3526
sVgestational
p2276
I2744
sVlg
p2277
I4045
sVlc
p2278
I3448
sVrabv
p2279
I2953
sVchosen
p2280
I1164
sVll
p2281
I927
sVhypothesize
p2282
I3922
sVlamp
p2283
I492
sVlabor
p2284
I3838
sVmellitus
p2285
I1616
sV2015
p2286
I5023
sVderivative
p2287
I129
sV2016
p2288
I4188
sVsuppressor
p2289
I2239
sV<
I324
sV2013
p2290
I4607
sV2012
p2291
I2898
sVjunction
p2292
I4667
sVgreater
p2293
I335
sVdisrupted
p2294
I4885
sVpd-1/pd
p2295
I5002
sVreconstruction
p2296
I5408
sVflail
p2297
I5582
sVhallmarks
p2298
I512
sVidentified
p2299
I1865
sVcorrelative
p2300
I5320
sVl1
p2301
I3631
sVaccompanied
p2302
I1385
sVidentifies
p2303
I2983
sVexperienced
p2304
I651
sVsubset
p2305
I2103
sVmets
p2306
I1884
sVrecognition
p2307
I1038
sVpleurisy
p2308
I4223
sVunresectable
p2309
I2943
sVprogrammed
p2310
I1315
sVdeficiency
p2311
I172
sVnpc1
p2312
I3112
sVfrequency
p2313
I217
sVthirteen
p2314
I3446
sVeqtls
p2315
I3476
sVprogrammes
p2316
I4239
sVsexual
p2317
I5080
sVvacuoles
p2318
I2776
sVleukocyturia
p2319
I5609
sVcdc42
p2320
I3605
sVautoimmunity
p2321
I4004
sVmediates
p2322
I3770
sVmatrix
p2323
I1523
sVborderline
p2324
I4375
sVtwice
p2325
I3394
sVmsdk
p2326
I3024
sVmediated
p2327
I851
sVmotifs
p2328
I3041
sVadaptive
p2329
I4639
sVred
p2330
I2077
sVprogressing
p2331
I1748
sVinteractions
p2332
I2951
sVretrieved
p2333
I4379
sVcolorectum
p2334
I3154
sVnpcs
p2335
I4679
sVclarify
p2336
I4140
sVapproaches
p2337
I641
sVcollection
p2338
I3449
sVregulatory
p2339
I868
sVinteraction
p2340
I720
sVpdl1
p2341
I3640
sVcould
p2342
I1261
sVcompulsive
p2343
I4986
sVdavid
p2344
I3237
sVlength
p2345
I100
sVremoving
p2346
I2629
sVstimulate
p2347
I3280
sVsouth
p2348
I4028
sVarterial
p2349
I3368
sVsacc
p2350
I1587
sVwt1
p2351
I4173
sVplatonin
p2352
I1322
sVcollagen
p2353
I1496
sVstrategic
p2354
I4509
sVihc
p2355
I3693
sVihd
p2356
I5468
sVnstemi
p2357
I5371
sVchemotoxic
p2358
I3888
sVsystem
p2359
I994
sVrealistically
p2360
I240
sVintermediate
p2361
I78
sVperipheral
p2362
I1481
sVscans
p2363
I539
sVintegrins
p2364
I2136
sVstomach
p2365
I2934
sVmethyl--cyclodextrin
p2366
I1937
sV2xctses
p2367
I830
sVcompleted
p2368
I3401
sVbrazilian
p2369
I691
sVhct-116
p2370
I1680
sValterations
p2371
I2298
sVenvironmental
p2372
I1136
sVadynamic
p2373
I3696
sVrecurrences
p2374
I3765
sVt4a
p2375
I3867
sVlymphangiogenesis
p2376
I4271
sVdetection
p2377
I287
sVtransduced
p2378
I2380
sVfrontotemporal
p2379
I2661
sVmir-548b-5p
p2380
I3590
sVexcitotoxicity
p2381
I850
sVinversely
p2382
I2701
sVassays
p2383
I4742
sVnegatively
p2384
I1494
sVpertussis
p2385
I2344
sVencephalopathy
p2386
I2367
sVmethicillin
p2387
I1394
sVhave
p2388
I148
sV.0345
p2389
I2982
sVdementia
p2390
I41
sVapparently
p2391
I4870
sVclearly
p2392
I1790
sVoverexpressing
p2393
I4202
sVpreterm
p2394
I3837
sVbacterium
p2395
I4117
sVstudying
p2396
I3848
sVmid
p2397
I5617
sVmechanism
p2398
I1808
sVmif
p2399
I4522
sV321
p2400
I5084
sVck2
p2401
I3913
sVkorean
p2402
I4995
sVmir
p2403
I3312
sV1.34
p2404
I3166
sV1.36
p2405
I5591
sVaccuracy
p2406
I589
sVworldwide
p2407
I2464
sVadvances
p2408
I2330
sVco-1
p2409
I1108
sVproinflammatory
p2410
I5033
sVpalmitic
p2411
I3653
sVeight
p2412
I947
sVpreliminary
p2413
I1288
sVsegment
p2414
I4562
sVaddiction
p2415
I1384
sVdorsal
p2416
I4545
sVa3243
p2417
I2372
sVckd
p2418
I1398
sVaffymetrix
p2419
I1474
sVdisease
p2420
I122
sVface
p2421
I4013
sVreprogramming
p2422
I412
sVfact
p2423
I1596
sVselection
p2424
I1574
sVsurvived
p2425
I3371
sVtext
p2426
I1348
sVcd20
p2427
I2832
sVclones
p2428
I3619
sVinflammations
p2429
I3723
sVcyclase
p2430
I4342
sVlonger
p2431
I101
sVmice
p2432
I996
sVknowledge
p2433
I2502
sVjaw
p2434
I2129
sVmalabsorption
p2435
I2463
sVcontrols
p2436
I1954
sVshould
p2437
I5
sVterminal
p2438
I2851
sVentities
p2439
I4307
sVoct-4
p2440
I4196
sVmolecules
p2441
I1558
sVinferior
p2442
I1279
sVregularly
p2443
I662
sVcvb3-induced
p2444
I4422
sVbiogenesis
p2445
I3530
sVcrosstalk
p2446
I2000
sVpeptide
p2447
I2066
sVmeans
p2448
I4822
sVlobe
p2449
I5138
sVbackground
p2450
I880
sVneuroimaging
p2451
I965
sVpathophysiology
p2452
I1213
sVbeam
p2453
I5476
sVfamilial
p2454
I1722
sVapplying
p2455
I4519
sVpreclinical
p2456
I223
sVfak)-dependent
p2457
I2145
sVdeterminants
p2458
I2418
sVdensities
p2459
I3413
sVorgan
p2460
I1336
sVedaravone
p2461
I5103
sVh
I763
sVgbm
p2462
I1189
sVcomprising
p2463
I4894
sVgbs
p2464
I3840
sV1.382.55
p2465
I656
sVfavoring
p2466
I4929
sV136
p2467
I1965
sVuromodulin
p2468
I1821
sVenhances
p2469
I309
sVcorrelations
p2470
I4147
sVadriamycin
p2471
I2693
sVjnk
p2472
I1446
sVintensity
p2473
I1977
sVenhanced
p2474
I1084
sVddrgk1
p2475
I306
sVqtl
p2476
I3478
sViecs
p2477
I2556
sVkbp
p2478
I3257
sVmidline
p2479
I5063
sVphases
p2480
I225
sVinteracting
p2481
I1557
sVccrf
p2482
I2398
sVnuclear
p2483
I560
sVcarcinomas
p2484
I4219
sVmembrane
p2485
I4308
sVends
p2486
I4989
sVsuperior
p2487
I3435
sVleukodystrophy
p2488
I3753
sVlesion
p2489
I103
sVshanghai
p2490
I3638
sVimpairments
p2491
I2257
sVdorfman
p2492
I3008
sVketo
p2493
I4142
sV-2,6
p2494
I4453
sVdeficits
p2495
I4312
sVdrug
p2496
I1502
sVtransplantation
p2497
I2597
sVpredispose
p2498
I3426
sVccr7
p2499
I2875
sVplacebo
p2500
I4399
sVchemotherapeutic
p2501
I3342
sVreactivity
p2502
I5435
sVdetailed
p2503
I800
sVci
p2504
I593
sVleishmaniasis
p2505
I1121
sVco
p2506
I730
sVcm
p2507
I910
sVcl
p2508
I2842
sVcc
p2509
I2870
sVinvasive
p2510
I409
sVca
p2511
I1219
sVcg
p2512
I4800
sVsy5y
p2513
I3861
sVce
p2514
I1062
sVcd
p2515
I1805
sVataxia
p2516
I888
sVcr
p2517
I115
sVallocated
p2518
I5335
sV57%
p2519
I1974
sVct
p2520
I444
sV8.2
p2521
I1970
sV8.6
p2522
I3231
sVcopies
p2523
I885
sVgenetic
p2524
I879
sVcontralateral
p2525
I5400
sVcompensating
p2526
I3440
sVutilizing
p2527
I2520
sVimprove
p2528
I2952
sVfudan
p2529
I3636
sV>
I2049
sVarises
p2530
I1948
sVadipokine
p2531
I1639
sVcop
p2532
I1461
sVlocalising
p2533
I4997
sVprotect
p2534
I3924
sVlge
p2535
I5537
sVbulk
p2536
I5115
sVmcf-7/adr
p2537
I2695
sVldlr
p2538
I5072
sVhypothesised
p2539
I2817
sV2014
p2540
I5391
sVc3
p2541
I4249
sVbulb
p2542
I5219
sVc1
p2543
I3111
sV-mediated
p2544
I1218
sVmulti
p2545
I4902
sVhepatocellular
p2546
I315
sVlaser
p2547
I1525
sVimmunoprecipitation
p2548
I5139
sVhfos
p2549
I637
sVmicrosatellite
p2550
I4163
sVrs7528153
p2551
I2686
sVappearance
p2552
I11
sVexamine
p2553
I3772
sVpromoter
p2554
I563
sVrbp
p2555
I3800
sVderegulation
p2556
I220
sVpromoted
p2557
I554
sVensuing
p2558
I2291
sVcvd
p2559
I2182
sVrbc
p2560
I5358
sVu87mg.egfr
p2561
I2403
sValmost
p2562
I2069
sVvl
p2563
I862
sVsite
p2564
I1253
sVvs
p2565
I882
sVaggressiveness
p2566
I3506
sVpartner
p2567
I279
sVregression
p2568
I2444
sVdescriptive
p2569
I5386
sVcerna
p2570
I3937
sVcohort
p2571
I349
sVcomplexes
p2572
I4665
sVfabp
p2573
I1643
sVcortices
p2574
I3077
sVadministration
p2575
I1460
sVcjd
p2576
I2665
sVcoronary
p2577
I2475
sVinfarction
p2578
I609
sVmrp1
p2579
I4199
sVoutbreak
p2580
I523
sVmrp3
p2581
I1093
sVmrp4
p2582
I1094
sVconflicting
p2583
I2544
sVkrox20
p2584
I3068
sVupregulate
p2585
I271
sVbalf
p2586
I1912
sVupon
p2587
I2523
sVbalb
p2588
I1457
sVcensoring
p2589
I3139
sVion
p2590
I2096
sVproteome
p2591
I802
sVmosaic
p2592
I2306
sVdiabetes
p2593
I1615
sVofc
p2594
I3465
sVlupus
p2595
I4697
sVofa
p2596
I3817
sVoff
p2597
I5186
sVcenter
p2598
I1617
sVneural
p2599
I2568
sVlepromatous
p2600
I926
sVlrinec)-score
p2601
I2229
sVthought
p2602
I2487
sVpatterns
p2603
I1387
sV1.29
p2604
I3159
sVsgc7901
p2605
I4711
sVinactivation
p2606
I884
sV1.23
p2607
I3152
sV1.21
p2608
I3156
sVmuscle
p2609
I2032
sV1.27
p2610
I3044
sVsubgroup
p2611
I4939
sVstores
p2612
I2734
sVimmortalized
p2613
I3351
sVless
p2614
I1413
sVdiarrhea
p2615
I3533
sVmicrocephaly
p2616
I2414
sVclinic
p2617
I2710
sVunderlying
p2618
I785
sVvoltage
p2619
I2730
sVpredicts
p2620
I5428
sVstreptokinase
p2621
I3740
sVlocalize
p2622
I3622
sVhiv)/hepatitis
p2623
I1828
sVbegin
p2624
I4712
sVadr
p2625
I2694
sVfield
p2626
I496
sVectopic
p2627
I3031
sVarrest
p2628
I613
sVnirf
p2629
I1192
sVadc
p2630
I5607
sVsynaptic
p2631
I792
sVtests
p2632
I1739
sVincreased
p2633
I64
sVincreases
p2634
I2284
sVfive
p2635
I3005
sVatrophy
p2636
I3709
sVtick
p2637
I2424
sV2]]~~
p2638
I27
sVplacenta
p2639
I4764
sVmho
p2640
I5284
sVincompletely
p2641
I1686
sVsuccess
p2642
I1310
sVprofound
p2643
I3082
sVaccelerating
p2644
I4460
sVparasite
p2645
I2612
sVp=0.011
p2646
I5446
sVmir-9
p2647
I3460
sVp=0.015
p2648
I5445
sVimmunity
p2649
I1202
sVp=0.016
p2650
I5443
sVmhv
p2651
I4718
sVnerves
p2652
I4746
sVneutrophils
p2653
I1704
sVsoft
p2654
I5029
sVreplacement
p2655
I1800
sVbifidobacterial
p2656
I2552
sVindications
p2657
I4340
sVmaternally
p2658
I1031
sVinfiltrates
p2659
I3026
sVnivt
p2660
I5372
sVclassical
p2661
I1608
sVunderwent
p2662
I1409
sVbriefly
p2663
I4242
sVnfj
p2664
I5257
sVaeds
p2665
I196
sV253
p2666
I5433
sVproper
p2667
I1037
sVtransport
p2668
I3442
sV0.28
p2669
I5585
sVtmv
p2670
I2307
sVrepression
p2671
I3914
sV0.27
p2672
I3295
sV0.22
p2673
I5590
sVmeier
p2674
I4443
sVdeacetylase
p2675
I2532
sVtmb
p2676
I3784
sVdoes
p2677
I486
sVbiology
p2678
I1153
sVlipid
p2679
I3060
sVmacrophages
p2680
I861
sVvertex
p2681
I5429
sVhemodialysis
p2682
I2150
sVpressure
p2683
I2681
sVhost
p2684
I2646
sVsimplex
p2685
I1006
sVaitl
p2686
I3798
sVinfiltrating
p2687
I296
sVdcs
p2688
I2055
sVvs.
p2689
I2894
sVstage
p2690
I70
sVcd1d
p2691
I5073
sVlifestyle
p2692
I3609
sVpacap
p2693
I4343
sVanaplastic
p2694
I5233
sVimportant
p2695
I690
sVmg132
p2696
I4848
sVcurative
p2697
I114
sVpredictor
p2698
I4301
sVrevise
p2699
I451
sVstratification
p2700
I1442
sVfunctional
p2701
I386
sVdataset
p2702
I3604
sVassess
p2703
I363
sVchronic
p2704
I1018
sVcancerous
p2705
I1908
sVlung
p2706
I14
sVproteinuria
p2707
I1832
sVfemale
p2708
I2569
sVprotozoa
p2709
I2843
sVmilieu
p2710
I449
sVadni
p2711
I967
sVherpes
p2712
I1005
sVlarvae
p2713
I1678
sVimmunotherapy
p2714
I1272
sVpolycythemic
p2715
I2082
sVpolycythemia
p2716
I2086
sV0.242
p2717
I4262
sVanthropometry
p2718
I5612
sVvenezuelan
p2719
I2904
sVspecimens
p2720
I3366
sV9.1
p2721
I5450
sVnaturally
p2722
I2484
sVfunction
p2723
I192
sVinterest
p2724
I3020
sVbasic
p2725
I1882
sVbut
p2726
I21
sVknockdown
p2727
I2493
sVconstruction
p2728
I2956
sVharony
p2729
I4386
sVediting
p2730
I2123
sVintermediate-
p2731
I3386
sVpartially
p2732
I2705
sVcount
p2733
I3388
sVevident
p2734
I5419
sVsociety
p2735
I3688
sVchemoembolization
p2736
I3369
sVj
I3801
sVsmooth
p2737
I2294
sValdh1
p2738
I4197
sVformalized
p2739
I5370
sVexcitement
p2740
I5145
sVmeta
p2741
I4957
sVneurocognitive
p2742
I4993
sVproblem
p2743
I4152
sVbearing
p2744
I1654
sVpil
p2745
I697
sVdeaths
p2746
I2708
sVcytarabine
p2747
I4701
sVrecognize
p2748
I3608
sVcontribute
p2749
I1294
sVdissemination
p2750
I936
sVs-100
p2751
I3010
sVtransfused
p2752
I5378
sVconfounding
p2753
I4372
sVepithelial
p2754
I1845
sV83
p2755
I2866
sVhematological
p2756
I3949
sVcpg
p2757
I3179
sVpit
p2758
I3
sVautism
p2759
I1204
sVcompared
p2760
I142
sVmci
p2761
I1077
sV48
p2762
I1078
sVnonetheless
p2763
I4619
sV46
p2764
I1073
sVdeadly
p2765
I5235
sV45
p2766
I3392
sV42
p2767
I4047
sVhpv
p2768
I359
sV40
p2769
I4549
sV4%
p2770
I4316
sVpredominant
p2771
I5331
sV2.35
p2772
I4133
sVtransfection
p2773
I1175
sVrepeat
p2774
I4867
sVneuroblastoma
p2775
I203
sVresembles
p2776
I4255
sVvariation
p2777
I2630
sVchk1
p2778
I3850
sVidiopathic
p2779
I2231
sVvein
p2780
I4463
sVcarcinogenic
p2781
I4115
sVpharmacologic
p2782
I5155
sVprevalent
p2783
I3375
sVstarting
p2784
I237
sVcipn
p2785
I3049
sVimmunocompetent
p2786
I1552
sV1363
p2787
I2658
sVchelator
p2788
I1851
sVaugmented
p2789
I5292
sVlimited
p2790
I1421
sVmir-130b
p2791
I2690
sVstent
p2792
I3302
sVrepresent
p2793
I3189
sV2.39
p2794
I1733
sVmagnetic
p2795
I2018
sVlacrimal
p2796
I2654
sVlaxa
p2797
I5261
sVparacrine
p2798
I3336
sVfacilities
p2799
I5357
sVdysplasia
p2800
I3096
sVsleep
p2801
I3322
sVcontroversial
p2802
I1784
sVevolving
p2803
I4289
sVintegrity
p2804
I3886
sVcytokines
p2805
I5130
sVpoorly
p2806
I2112
sVrelationships
p2807
I4189
sV1.15
p2808
I4378
sVbrg1
p2809
I4918
sV1.13
p2810
I1736
sVphysiological
p2811
I3187
sVoverexpress
p2812
I2439
sVpth
p2813
I3695
sV1.18
p2814
I3149
sVrvvi
p2815
I2547
sVlsds
p2816
I5123
sVscd
p2817
I3119
sVontological
p2818
I2023
sVdivergent
p2819
I2491
sVrisk
p2820
I336
sVrise
p2821
I1621
sVreplication
p2822
I932
sVevery
p2823
I4790
sVjacob
p2824
I2664
sVvastly
p2825
I3568
sVj4-mediated
p2826
I5005
sVperoxidation
p2827
I2438
sVanemia
p2828
I2080
sVcml
p2829
I1276
sVprogression
p2830
I407
sVinduction
p2831
I475
sVcmd
p2832
I4896
sVrelentlessly
p2833
I2611
sVroadblock
p2834
I1791
sVguiding
p2835
I2468
sVindices
p2836
I1886
sVtnf-
p2837
I2814
sVsw-1990).these
p2838
I2717
sV8,645
p2839
I4331
sVinfancy
p2840
I2188
sVmortalin
p2841
I4201
sVconsistent
p2842
I625
sVguidelines
p2843
I2901
sVtlx1
p2844
I4080
sVtlx3
p2845
I4081
sVnpsle
p2846
I5125
sVki67
p2847
I5383
sVchen
p2848
I5011
sVbronchoalveolar
p2849
I804
sVpgrn
p2850
I3405
sVestablished
p2851
I527
sVfiltration
p2852
I1402
sVclinicians
p2853
I5541
sVworsen
p2854
I1601
sV+
I1379
sVselected
p2855
I2824
sVholoprotein
p2856
I4254
sVparapneumonic
p2857
I4225
sVbipolar
p2858
I1765
sVintrahepatic
p2859
I1723
sVcauses
p2860
I1471
sVestablishes
p2861
I951
sVtoll
p2862
I2339
sVphotodynamic
p2863
I4287
sVfrizzled
p2864
I3550
sVconsisting
p2865
I810
sVleprosy
p2866
I919
sVcathepsin
p2867
I2786
sVsimultaneously
p2868
I831
sVgefitinib
p2869
I4779
sVresidual
p2870
I5088
sVionization
p2871
I1527
sVprotection
p2872
I1573
sVobtained
p2873
I1418
sVgli
p2874
I3967
sVapical
p2875
I3083
sVstudy
p2876
I81
sVakt
p2877
I1160
sVaki
p2878
I2897
sVtgf-1-induced
p2879
I1871
sVstressed
p2880
I2220
sVxerostomia
p2881
I701
sVhsulf-1
p2882
I3057
sVchanges
p2883
I1538
sVdiameter
p2884
I4564
sVinjecting
p2885
I4654
sVvp1
p2886
I5288
sVmodulates
p2887
I3278
sVpc12
p2888
I4959
sVhighly
p2889
I1226
sVmodulated
p2890
I3995
sVsocioeconomic
p2891
I3134
sVactions
p2892
I942
sVtotal
p2893
I1184
sVtopics
p2894
I4186
sVbrb
p2895
I5241
sVhtert
p2896
I3347
sVwould
p2897
I481
sVdouble
p2898
I829
sVisoform
p2899
I4179
sVplayed
p2900
I1393
sVnegative
p2901
I360
sVmediate
p2902
I5164
sVbiliary
p2903
I1041
sVm1
p2904
I3748
sVredox
p2905
I1883
sVm2
p2906
I1713
sVassessment
p2907
I4689
sVpdacs
p2908
I4470
sVfractions
p2909
I61
sVattractive
p2910
I3968
sVcoupled
p2911
I3316
sVogd)/24
p2912
I778
sVapc
p2913
I4648
sVnkl
p2914
I4078
sVpancreatic
p2915
I1086
sVaward
p2916
I5021
sVftmt
p2917
I4533
sVnfatc3
p2918
I708
sVmets.
p2919
I1890
sViv
p2920
I5342
sVblocking
p2921
I1280
sVsupplemental
p2922
I1345
sVmust
p2923
I450
sVabundance
p2924
I3458
sVtnt
p2925
I4755
sVmg
p2926
I299
sVma
p2927
I4405
sV1997
p2928
I2834
sVmm
p2929
I4513
sVml
p2930
I4214
sVwork
p2931
I156
sVphosphorylated
p2932
I3623
sVendogenous
p2933
I732
sVmammalian
p2934
I2847
sVmt
p2935
I2605
sVoxide
p2936
I2963
sVtnf
p2937
I4383
sVms
p2938
I988
sVphosphorylates
p2939
I3683
sValdh1a1
p2940
I4608
sVerk
p2941
I1467
sVtelomerase
p2942
I3345
sVencephalomyelitis
p2943
I999
sV2.80
p2944
I658
sVunilateral
p2945
I1533
sVindicated
p2946
I1167
sVindicates
p2947
I2324
sVtumorigenesis
p2948
I741
sVvalidated
p2949
I721
sVworse
p2950
I4157
sVupregulated
p2951
I2027
sVend
p2952
I300
sVrecovery
p2953
I4494
sVprovide
p2954
I1792
sVvillous
p2955
I4766
sVrecovers
p2956
I1011
sVfar
p2957
I3972
sVlesions
p2958
I630
sVtoxin
p2959
I1941
sVadjacent
p2960
I2692
sVhbcatc
p2961
I837
sVperioperative
p2962
I4688
sVhbcatm
p2963
I844
sVmpm
p2964
I3321
sVhfmd
p2965
I3088
sVafter
p2966
I340
sVconfirmed
p2967
I1459
sVcox-2
p2968
I2440
sVpolymerase
p2969
I4148
sVradiomics
p2970
I5471
sVinduce
p2971
I2285
sVarcl
p2972
I5262
sVlap
p2973
I3593
sVluma
p2974
I978
sVvera
p2975
I2087
sVelusive
p2976
I3724
sV0.871
p2977
I3600
sV0.879
p2978
I3601
sVhypotheses
p2979
I705
sVcomplexity
p2980
I1788
sVantimalarial
p2981
I5060
sVultimate
p2982
I4953
sVsensitizing
p2983
I4441
sVdecreasing
p2984
I2736
sVreflux
p2985
I1247
sVorder
p2986
I1996
sVtriggering
p2987
I4363
sVhedgehog
p2988
I740
sVover
p2989
I525
sVsickle
p2990
I1707
sV6.5
p2991
I1378
sVinnovative
p2992
I2467
sVnets
p2993
I4693
sVpsoriatic
p2994
I5173
sVcll
p2995
I1365
sVdifference
p2996
I587
sVnondiabetic
p2997
I2756
sValveoli
p2998
I2995
sVhighlights
p2999
I3260
sVmultidisciplinary
p3000
I5488
sVencapsulated
p3001
I2804
sVexhibits
p3002
I5599
sVproduction
p3003
I463
sVcompensatory
p3004
I4237
sVphenotype
p3005
I1804
sVversus
p3006
I2645
sVeventually
p3007
I2170
sVthem
p3008
I2386
sVaffected
p3009
I1927
sVdiseases
p3010
I2181
sVremission
p3011
I5497
sVpyrosequencing
p3012
I4158
sVpowerful
p3013
I676
sVthey
p3014
I392
sVextrusion
p3015
I2554
sVlifelong
p3016
I4313
sV1.01
p3017
I646
sVanion
p3018
I1510
sVoxygen
p3019
I426
sV1.06
p3020
I4376
sVroutines
p3021
I3341
sVbackgrounds
p3022
I3884
sVl
I4895
sVh5n1
p3023
I4446
sVfilling
p3024
I3485
sVmrna
p3025
I1035
sVskeletal
p3026
I908
sVgnathodiaphyseal
p3027
I4104
sVclassifier
p3028
I2516
sVlasting
p3029
I4419
sVsepto
p3030
I5062
sVschemes
p3031
I1443
sVdiaphyseal
p3032
I4113
sVreached
p3033
I3587
sVfreeware
p3034
I4729
sVprogesterone
p3035
I2863
sVselectin
p3036
I1717
sVhyp
p3037
I4350
sVnetwork
p3038
I1390
sVclade
p3039
I4447
sVvessels
p3040
I2999
sVwgs
p3041
I1499
sVmedicine
p3042
I3910
sVnewly
p3043
I2423
sVntx
p3044
I5044
sVperception
p3045
I1876
sVbarrier
p3046
I2553
sVinos
p3047
I4139
sVfree
p3048
I458
sVcommercially
p3049
I3819
sVpalmitoleic
p3050
I2984
sVoncogenesis
p3051
I4431
sVformation
p3052
I2391
sVnmda
p3053
I2728
sVbiological
p3054
I3686
sVntc
p3055
I1947
sVntg
p3056
I2577
sVequine
p3057
I2905
sVcreated
p3058
I4714
sVc3a
p3059
I5494
sVdays
p3060
I3439
sVmonogenic
p3061
I1224
sVunknown
p3062
I2247
sVportal
p3063
I4382
sVcooperating
p3064
I3572
sVpreoperative
p3065
I431
sValready
p3066
I3374
sVtrkb
p3067
I2573
sVtrka
p3068
I3211
sVnhl
p3069
I3796
sVcoding
p3070
I2001
sVprimary
p3071
I780
sV/l.
p3072
I3390
sVanother
p3073
I712
sVstillbirth
p3074
I3839
sVimplicated
p3075
I510
sVdeaminase
p3076
I2384
sVmechanistically
p3077
I1504
sVpathophysiological
p3078
I2789
sV0.08
p3079
I5586
sV0.02
p3080
I3792
sVhapploinsufficiency
p3081
I2458
sV0.01
p3082
I4162
sV0.07
p3083
I3700
sVapproximately
p3084
I4838
sV0.05
p3085
I2551
sVcemento
p3086
I4109
sVconfirming
p3087
I3493
sVrates
p3088
I107
sVobservations
p3089
I2530
sVtoc
p3090
I267
sVpercentage
p3091
I2977
sVtof
p3092
I4815
sVdogs
p3093
I4615
sVdamaging
p3094
I2670
sVglucose
p3095
I776
sVconsented
p3096
I3221
sVenhancing
p3097
I3354
sVmetabolites
p3098
I5351
sVtool
p3099
I1635
sVserve
p3100
I4270
sVgli1/pin1
p3101
I719
sVwestern
p3102
I4739
sV2.112.83
p3103
I4130
sVcorresponded
p3104
I5550
sVcolitis
p3105
I1902
sVtranslating
p3106
I2186
sVtarget
p3107
I739
sVroles
p3108
I420
sVpi3k
p3109
I1159
sVkts
p3110
I4174
sVclasses
p3111
I820
sVmodulators
p3112
I5119
sVcellularity
p3113
I1422
sViron
p3114
I1636
sVher2e
p3115
I977
sVsolely
p3116
I3565
sVseminal
p3117
I5010
sVcubs
p3118
I5403
sVrat
p3119
I1532
sVsocio
p3120
I1812
sVmanner
p3121
I3353
sVadhd
p3122
I2255
sVbdnf
p3123
I2572
sVunaffected
p3124
I5401
sVestrogens
p3125
I1130
sVrelatively
p3126
I4310
sVstrength
p3127
I4915
sVrelapse
p3128
I3017
sVpleural
p3129
I2641
sVpsma
p3130
I4309
sVlatter
p3131
I215
sV-
I55
sVisolated
p3132
I1706
sVthorough
p3133
I633
sVindexes
p3134
I3598
sVsubjects
p3135
I3079
sVretinoblastoma
p3136
I1541
sVcorrelating
p3137
I4783
sVspermatogenesis
p3138
I3203
sVmutants
p3139
I4444
sVestrogen-
p3140
I4190
sVthough
p3141
I2323
sVbst
p3142
I4565
sVglands
p3143
I2655
sVepi
p3144
I714
sVmycolipids
p3145
I4837
sVreticulum
p3146
I1222
sVoptimized
p3147
I1799
sVinvolving
p3148
I2821
sVcarcinoma
p3149
I316
sVphase
p3150
I2085
sVassessed
p3151
I1612
sVpapillomavirus
p3152
I4118
sVmanifested
p3153
I4277
sVsub
p3154
I3245
sVkeratinocyte
p3155
I1059
sVheterodimeric
p3156
I2137
sVhct116p53
p3157
I2401
sVdevastating
p3158
I890
sVflow
p3159
I1186
sVpathologists
p3160
I3691
sV0.700.78
p3161
I594
sVdystonia
p3162
I1027
sVquantifying
p3163
I2666
sVsilencing
p3164
I3056
sVpoly(adp
p3165
I4936
sVpresymptomatic
p3166
I5247
sVlewis
p3167
I2052
sVhypomethylating
p3168
I4922
sVinfrared
p3169
I1650
sVdefects
p3170
I1013
sVcarotid
p3171
I1992
sVanalogue
p3172
I4774
sVoci
p3173
I5108
sVlatent
p3174
I1740
sVimplementation
p3175
I5355
sVhrt
p3176
I2283
sVfundus
p3177
I2360
sVocd
p3178
I4987
sVelucidated
p3179
I4101
sVinstitution
p3180
I4605
sValdo
p3181
I4141
sVpten
p3182
I2700
sVsummarizing
p3183
I638
sVhre
p3184
I4868
sVocs
p3185
I3627
sVdn
p3186
I3618
sVdo
p3187
I930
sVdm
p3188
I3766
sVde
p3189
I4892
sVdc
p3190
I4830
sVdegradation
p3191
I2783
sVtuberculosis
p3192
I1741
sVdespite
p3193
I1095
sVreport
p3194
I2503
sVureteral
p3195
I1534
sVdr
p3196
I4462
sVbeads
p3197
I2805
sVcountries
p3198
I530
sVheterocyclic
p3199
I1142
sVhypoxemia
p3200
I2236
sVemt
p3201
I1846
sVimplication
p3202
I4493
sVfreshwater
p3203
I1676
sV418
p3204
I4899
sVaspiration
p3205
I120
sVhpv)-associated
p3206
I5228
sVobserved
p3207
I906
sVcytoplasmic
p3208
I5041
sVovalbumin
p3209
I2059
sVsporadic
p3210
I883
sVdepressive
p3211
I4875
sVt790
p3212
I4782
sVfrontline
p3213
I2499
sVtechniques
p3214
I491
sVcapacity
p3215
I2739
sVcontaining
p3216
I2133
sVnadph
p3217
I2172
sVunable
p3218
I5374
sVm2-associated
p3219
I4810
sVmuo
p3220
I4614
sVapproach
p3221
I1452
sV363
p3222
I3213
sVdiscovery
p3223
I736
sVnicolas
p3224
I4387
sVwe
p3225
I82
sVwd
p3226
I1855
sVterms
p3227
I3262
sVpositron
p3228
I440
sVcervix
p3229
I4274
sVtryptanthrin
p3230
I1983
sVwm
p3231
I1369
sVhowever
p3232
I243
sVsupports
p3233
I1060
sVwt
p3234
I3617
sVoxidase
p3235
I2173
sVlinkage
p3236
I3223
sVcatalytic
p3237
I3348
sVreceived
p3238
I1370
sVild
p3239
I4404
sVu87mg
p3240
I2402
sVrhythms
p3241
I4734
sVcandidate
p3242
I1406
sVcov
p3243
I4717
sVcox
p3244
I382
sVbiologically
p3245
I5633
sVventricular
p3246
I5536
sVh46a
p3247
I3742
sVbraf
p3248
I4354
sVreceiver
p3249
I4232
sVexpense
p3250
I5210
sVlenses
p3251
I3501
sVsupplementation
p3252
I5564
sVexhibit
p3253
I2563
sVomega-3
p3254
I5118
sVhad
p3255
I536
sVcreutzfeldt
p3256
I2663
sVcodon
p3257
I4948
sVmutations
p3258
I262
sVviruses
p3259
I2039
sVhai-2
p3260
I4094
sVwider
p3261
I672
sV1.2
p3262
I3230
sVratio=6.86
p3263
I2915
sVneoplasm
p3264
I3842
sVexpected
p3265
I1577
sV5-diaminonaphthalene
p3266
I1530
sVfamilies
p3267
I3976
sVhospitalization
p3268
I5624
sV30-day
p3269
I2251
sVnucifera
p3270
I4099
sVdrugs
p3271
I1853
sVdroplets
p3272
I3061
sVconcerning
p3273
I190
sVpolyposis
p3274
I4650
sVuncommon
p3275
I20
sVautocrine
p3276
I3335
sV0.17
p3277
I5589
sV0.10
p3278
I5587
sV0.12
p3279
I5578
sVcatch
p3280
I3313
sVsubconjunctival
p3281
I4890
sVapplied
p3282
I704
sVcytotoxic
p3283
I4970
sVinhibit
p3284
I1901
sVreciprocal
p3285
I722
sVait
p3286
I4418
sVheartland
p3287
I2428
sVn
I1072
sVaim
p3288
I873
sVirinotecan
p3289
I5340
sVaih
p3290
I4291
sVaid
p3291
I4598
sVproperty
p3292
I3022
sVprocedure
p3293
I105
sVdelineated
p3294
I4592
sV2,4,6-trinitrobenzene
p3295
I4655
sVt160a
p3296
I1250
sVsting
p3297
I4465
sVtissue
p3298
I1982
sVexperts
p3299
I4182
sVcone
p3300
I5475
sVfluidity
p3301
I1939
sVpathology
p3302
I181
sVinteracts
p3303
I1054
sVimmunoprecipiations
p3304
I731
sVpercutaneous
p3305
I5202
sVdescent
p3306
I3941
sVsuggest
p3307
I849
sVrecurrent
p3308
I1286
sVth2
p3309
I928
sVth1
p3310
I922
sVmcm7/p
p3311
I5056
sVikaros
p3312
I4932
sVcomplex
p3313
I2244
sVargue
p3314
I3560
sVaccumulating
p3315
I1958
sVseveral
p3316
I35
sVarid1a
p3317
I2871
sVindependent
p3318
I1819
sV90%
p3319
I2050
sVcounterparts
p3320
I2891
sVhand
p3321
I2684
sVrutaceae
p3322
I689
sVimmunohistochemical
p3323
I1753
sVvvc
p3324
I2550
sVnormalization
p3325
I3417
sVcycle
p3326
I4286
sVddavp
p3327
I130
sVeq-5d
p3328
I3717
sVhypermucoviscous
p3329
I3305
sVfemoral
p3330
I1993
sVcompartments
p3331
I1926
sVeph
p3332
I1858
sVetiological
p3333
I4425
sVhearts
p3334
I2753
sVthe
p3335
I9
sVcataract
p3336
I3500
sVcytosine
p3337
I2383
sVtha
p3338
I3331
sVcisplatin
p3339
I1233
sVpbmc
p3340
I2986
sVproposed
p3341
I989
sVil-12
p3342
I2175
sVrodent
p3343
I2091
sVtransporting
p3344
I1511
sVscattering
p3345
I5297
sVmodulate
p3346
I990
sVbrachial
p3347
I2679
sVthyroid
p3348
I4206
sVadding
p3349
I4935
sVunique
p3350
I4504
sVsimilarities
p3351
I4609
sVmcf-7
p3352
I2696
sV5p
p3353
I2826
sVevidences
p3354
I1881
sVpassive
p3355
I653
sVspread
p3356
I514
sVtransformed
p3357
I2309
sVevidenced
p3358
I4805
sVels
p3359
I4908
sVplasma
p3360
I1838
sVafrica
p3361
I521
sVrna
p3362
I1174
sVkaplan
p3363
I4442
sVprogressed
p3364
I4408
sVfusion
p3365
I3358
sVcape
p3366
I5097
sVlymphoma
p3367
I1605
sV1.32
p3368
I3148
sVadvanced
p3369
I323
sVbpd
p3370
I5177
sVfrontal
p3371
I845
sV55
p3372
I5343
sV56
p3373
I2867
sVc33a
p3374
I4977
sV53
p3375
I4217
sVadiponectin
p3376
I4844
sVspecific
p3377
I354
sVinformative
p3378
I4821
sVbps
p3379
I2135
sVimmunosuppressive
p3380
I3117
sVmosquito
p3381
I2407
sVhoming
p3382
I2920
sVhepatic
p3383
I1043
sV5%
p3384
I5545
sVocclusion
p3385
I767
sVimmunosorbant
p3386
I4741
sVsuccessfully
p3387
I1103
sV50
p3388
I5502
sVindirect
p3389
I206
sV52
p3390
I3591
sV17-dependent
p3391
I3881
sVich
p3392
I1549
sVcns
p3393
I995
sVmir-34a
p3394
I2709
sV/
I357
sVctgf
p3395
I5090
sVhydroxyurea
p3396
I2957
sVics
p3397
I3018
sVtkis
p3398
I1231
sVcortical
p3399
I782
sVicv
p3400
I4538
sVcord
p3401
I293
sVwho
p3402
I535
sVnonuniform
p3403
I5369
sVdropped
p3404
I1769
sVelucidate
p3405
I2364
sVcxcr4
p3406
I2885
sV0.931.38
p3407
I1737
sVpla
p3408
I3309
sVsubstitution
p3409
I1251
sVcardiomyopathy
p3410
I4482
sVpost
p3411
I611
sVproperties
p3412
I472
sVnelumbo
p3413
I4098
sVattacks
p3414
I2575
sVacquire
p3415
I3539
sVmonths
p3416
I3699
sVplus
p3417
I5630
sVlogistical
p3418
I4826
sVbiologic
p3419
I4750
sVefforts
p3420
I1866
sV50500
p3421
I1708
sVlewy
p3422
I50
sVmantle
p3423
I5330
sVhaplotype
p3424
I3290
sVosteocalcin
p3425
I5043
sVbound
p3426
I823
sVahr
p3427
I4518
sVrendering
p3428
I4451
sVprrsv
p3429
I1470
sVpuncta
p3430
I3065
sVdehydrogenase
p3431
I1570
sVcategorization
p3432
I5527
sVcolchicine
p3433
I5598
sVthr367
p3434
I3685
sV0.83
p3435
I588
sVtranscript
p3436
I4268
sV21.8
p3437
I628
sVcausative
p3438
I1669
sVclass
p3439
I3978
sVmutated
p3440
I4058
sVanderson
p3441
I3677
sVclinical
p3442
I193
sVway
p3443
I2607
sVgio
p3444
I4055
sVwas
p3445
I57
sVa-07
p3446
I4540
sVlowest
p3447
I4125
sVintratumoral
p3448
I432
sVattempted
p3449
I1893
sVbecoming
p3450
I3310
sV0.008
p3451
I5092
sVdll3-
p3452
I3338
sVencodes
p3453
I1656
sVmaxim
p3454
I3907
sVcadherin
p3455
I2537
sVmagnitude
p3456
I1320
sVelderly
p3457
I376
sVpyogenic
p3458
I3307
sVrituximab
p3459
I2830
sVencoded
p3460
I5264
sVtrue
p3461
I2628
sVwaldenstrm
p3462
I5332
sV0.004
p3463
I5227
sVreproductive
p3464
I1469
sVcd45rc
p3465
I3986
sV0.003
p3466
I5226
sVmaximum
p3467
I4583
sVdifferent
p3468
I639
sVcancers
p3469
I544
sVc5a
p3470
I5495
sVmtb
p3471
I5100
sVmtc
p3472
I877
sVifn-
p3473
I4806
sVmuscular
p3474
I2029
sVevidence
p3475
I1793
sV0.61
p3476
I5579
sV0.62
p3477
I3296
sVnnv
p3478
I1668
sVcheck
p3479
I1313
sVphysical
p3480
I4370
sVnk
p3481
I2742
sVtestes
p3482
I3200
sVno
p3483
I586
sVwhereas
p3484
I2248
sVwhen
p3485
I8
sVne
p3486
I4034
sVng
p3487
I4213
sVfalsely
p3488
I4797
sVpolymyositis
p3489
I2987
sVtest
p3490
I597
sVnt
p3491
I4126
sVnode
p3492
I1732
sVil-8
p3493
I1353
sVil-4
p3494
I3876
sVil-6
p3495
I1351
sVil-7
p3496
I1924
sVepha3
p3497
I1754
sVtranscutaneous
p3498
I4626
sVconcurrent
p3499
I2941
sVscores
p3500
I747
sVhpv(
p3501
I5229
sVhippocampal
p3502
I4677
sVinterval
p3503
I648
sVtogether
p3504
I843
sVuncovered
p3505
I2389
sVcontrolling
p3506
I4371
sVangiogenesis
p3507
I1292
sVanalyzsed
p3508
I5558
sVconcept
p3509
I4888
sVlymphatic
p3510
I3639
sVremarkable
p3511
I1324
sVlls
p3512
I4909
sVtamoxifen
p3513
I5059
sVglobal
p3514
I2900
sVfocus
p3515
I2120
sVleads
p3516
I887
sVdisturbance
p3517
I1811
sVsupplement
p3518
I2496
sVmhi-148
p3519
I1505
sVremarkably
p3520
I1338
sVros
p3521
I1683
sVdisplaying
p3522
I4834
sVlld
p3523
I2011
sVlayers
p3524
I406
sVcontributing
p3525
I4934
sVgraph
p3526
I4281
sVputative
p3527
I419
sVenvironment
p3528
I1914
sVpromoting
p3529
I872
sVimmunomagnetic
p3530
I4962
sVmonocytes
p3531
I5281
sVdiscovering
p3532
I3948
sVintercellular
p3533
I2996
sVmta-1
p3534
I2315
sValternations
p3535
I3793
sVdivision
p3536
I2024
sVprotective
p3537
I1117
sVadvantage
p3538
I4036
sVh19
p3539
I3643
sVfrequencies
p3540
I3425
sVaml1-eto
p3541
I3359
sVpgc-1.
p3542
I4477
sVemphasizes
p3543
I4573
sVlymphomas
p3544
I4840
sVperceived
p3545
I3564
sVrespiratory
p3546
I455
sVimpressive
p3547
I3562
sVprophylactic
p3548
I4823
sVpresented
p3549
I3301
sValtering
p3550
I2090
sVfragile
p3551
I517
sVp
I1716
sVmucosal
p3552
I1904
sVevades
p3553
I4928
sVaccumulation
p3554
I2538
sVbhlh
p3555
I3979
sVupper
p3556
I2876
sVpmv
p3557
I4687
sVhta
p3558
I1477
sVpms
p3559
I799
sVpore
p3560
I3453
sVdiscover
p3561
I1919
sVpiccolo
p3562
I5594
sVpulldowns
p3563
I723
sVcost
p3564
I2507
sVpml
p3565
I4428
sVspectral
p3566
I3553
sVlrba
p3567
I4000
sVshares
p3568
I5081
sVhscs
p3569
I314
sVhsct
p3570
I2598
sVgleason
p3571
I289
sVsupporting
p3572
I2272
sVpac-1
p3573
I3415
sVefficacious
p3574
I483
sVgenes
p3575
I684
sVmultidrug
p3576
I1090
sVgroups
p3577
I3251
sV[
I132
sVappears
p3578
I4637
sVchange
p3579
I3457
sVprecursor
p3580
I1960
sVengineered
p3581
I2051
sVmir-125b
p3582
I4743
sVpediatric
p3583
I4315
sVpigmentosa
p3584
I2796
sVusually
p3585
I1399
sVresonance
p3586
I2019
sVpathologies
p3587
I1629
sVpbx1
p3588
I5406
sVinvasiveness
p3589
I3582
sVmimicked
p3590
I4644
sVpancreatitis
p3591
I1040
sVregardless
p3592
I4940
sVos
p3593
I548
sVoligodendrocytes
p3594
I3928
sVextra
p3595
I3266
sVinducing
p3596
I2006
sVrosai
p3597
I3007
sVethiopian
p3598
I5616
sVupf1-bound
p3599
I5140
sVmarked
p3600
I3843
sVmodifying
p3601
I986
sVucc2003
p3602
I2562
sVmarker
p3603
I286
sVrarely
p3604
I3027
sVinositol
p3605
I1215
sVneuropsychiatric
p3606
I5124
sVprove
p3607
I482
sVca1
p3608
I838
sVtnbs
p3609
I4657
sVmss
p3610
I4170
sVframeshift
p3611
I5134
sVcamkii
p3612
I4699
sVanginal
p3613
I5506
sVmsi
p3614
I1529
sVmemory
p3615
I1240
sVtnbc
p3616
I1177
sVmsc
p3617
I2114
sVischemia
p3618
I775
sVmsa
p3619
I5042
sVischemic
p3620
I773
sVshare
p3621
I4175
sVinherited
p3622
I1662
sVsymptomatic
p3623
I238
sVdismal
p3624
I1964
sVemployed
p3625
I3124
sVcases
p3626
I813
sVinsights
p3627
I1150
sVderailed
p3628
I3730
sVcar
p3629
I252
sVibd
p3630
I1957
sVmodified
p3631
I303
sVanorexia
p3632
I5267
sVdistricts
p3633
I5196
sVlabeled
p3634
I2333
sVcan
p3635
I1168
sVsas-0132
p3636
I3051
sVcarcinogenesis
p3637
I1859
sVbrca
p3638
I1187
sVcaa
p3639
I1778
sVplatonin(510
p3640
I1309
sVstimulating
p3641
I4485
sVcad
p3642
I3516
sVmesothelin
p3643
I3315
sVheart
p3644
I2476
sV73.2%
p3645
I4568
sVfigure
p3646
I4671
sVdecember
p3647
I5501
sVchip
p3648
I817
sVstroke
p3649
I774
sVpurity
p3650
I1424
sVcardio
p3651
I1644
sVoccur
p3652
I1014
sVinfantile
p3653
I4002
sV20132015
p3654
I522
sVgemcitabine
p3655
I1085
sV1
I506
sVvital
p3656
I4556
sVcriterion
p3657
I3715
sVfourth
p3658
I2877
sVoropharyngeal
p3659
I2858
sVproduct
p3660
I4458
sVefficacies
p3661
I2497
sVsialic
p3662
I4454
sVcooperativity
p3663
I3344
sVdampened
p3664
I2105
sVoverall
p3665
I547
sVclone
p3666
I4570
sVuse
p3667
I1894
sV0.73
p3668
I595
sV0.71
p3669
I5519
sVproduce
p3670
I3746
sV0.74
p3671
I591
sV5.5
p3672
I1822
sVtbi
p3673
I2723
sVliquid
p3674
I3126
sVfnas
p3675
I1417
sVtaplow
p3676
I4861
sVinform
p3677
I5150
sVrepresentation
p3678
I4999
sVtypical
p3679
I5505
sVexclusive
p3680
I4808
sVtagged
p3681
I726
sVcsf
p3682
I5523
sVbrca1-mutated
p3683
I4938
sVindeed
p3684
I2720
sVmainly
p3685
I1568
sVraised
p3686
I3146
sVbrain
p3687
I842
sVstatistical
p3688
I1759
sVcold
p3689
I508
sVstill
p3690
I1360
sVblocked
p3691
I2706
sVvte
p3692
I5427
sVp2x7
p3693
I159
sV1.98
p3694
I2450
sVpresence
p3695
I1922
sVforms
p3696
I915
sVwindow
p3697
I4546
sVoffers
p3698
I1317
sVsnu-81
p3699
I1560
sVareas
p3700
I2261
sVnon
p3701
I1190
sVlonely
p3702
I5220
sVepiisopiloturine
p3703
I713
sVunveiling
p3704
I2374
sVradicals
p3705
I461
sVprocesses
p3706
I2025
sVwarranted
p3707
I4240
sVg985s
p3708
I5200
sVnot
p3709
I301
sVsubstrate
p3710
I3786
sVnow
p3711
I164
sVprovision
p3712
I1148
sVdiscuss
p3713
I186
sVnor
p3714
I3738
sVsusceptibility
p3715
I2192
sVterm
p3716
I1115
sVnamd
p3717
I5181
sVcd133
p3718
I1726
sVppr
p3719
I4690
sVuncertain
p3720
I5318
sVadvent
p3721
I1766
sVpossibilities
p3722
I2334
sVdinaciclib
p3723
I1520
sVentirely
p3724
I4818
sVhistopathological
p3725
I10
sVen
p3726
I108
sVsignificantly
p3727
I302
sVcoactivators
p3728
I3545
sVchallenged
p3729
I2992
sVed
p3730
I5079
sVndrg
p3731
I421
sVea
p3732
I4333
sV0.0384
p3733
I2743
sVchallenges
p3734
I4827
sVprognosis
p3735
I542
sVex
p3736
I686
sVyear
p3737
I2021
sVet
p3738
I4388
sVmapping
p3739
I1626
sVer
p3740
I111
sVshown
p3741
I1002
sVmultifunctional
p3742
I507
sVinfarct
p3743
I1300
sVfactors
p3744
I2417
sVhypovitaminosis
p3745
I790
sVfurthermore
p3746
I197
sVincrease
p3747
I1339
sV-catenin
p3748
I3421
sVls513
p3749
I4171
sVreceiving
p3750
I2561
sVviable
p3751
I4955
sVshows
p3752
I16
sVabnormal
p3753
I2567
sVsftsv
p3754
I2427
sVpathogenic
p3755
I33
sVlmr
p3756
I5439
sVcart
p3757
I5625
sVdiagnostic
p3758
I88
sVmarine
p3759
I1675
sVcare
p3760
I2601
sVmicrohematuria
p3761
I573
sVrearrangements
p3762
I3824
sVmethylation
p3763
I2089
sVamyloid
p3764
I1776
sVdeprivation
p3765
I777
sVtransition
p3766
I1047
sV0.836
p3767
I4264
sVpandemic
p3768
I1263
sVturn
p3769
I1293
sVfactor-
p3770
I2813
sV512
p3771
I980
sVchildhood
p3772
I891
sVenteropathy
p3773
I3960
sVblood
p3774
I1482
sVorigin
p3775
I4613
sVhydrocarbons
p3776
I1140
sVsurviving
p3777
I4487
sVpredictive
p3778
I1744
sVvariables
p3779
I3595
sVshedding
p3780
I2560
sVfam60a
p3781
I4640
sVdirectly
p3782
I2264
sVyb-1
p3783
I502
sVcomprises
p3784
I4871
sVarray
p3785
I1162
sVsize
p3786
I347
sVgiven
p3787
I216
sVfibrinogen
p3788
I3747
sVp=0.003
p3789
I5469
sVpsoas
p3790
I4686
sVstimulation
p3791
I3518
sVproteinase-3
p3792
I5280
sViap
p3793
I4505
sVexploring
p3794
I4590
sVamines
p3795
I1143
sVcopd
p3796
I2234
sVthat
p3797
I18
sVbrains
p3798
I848
sVpns
p3799
I2349
sVtamr
p3800
I5058
sVcopy
p3801
I1515
sVchromosomes
p3802
I975
sVthan
p3803
I1506
sVupec
p3804
I2212
sVwide
p3805
I750
sVoatp
p3806
I1513
sVendoplasmic
p3807
I1221
sVrequire
p3808
I487
sVcytokeratin-14
p3809
I1579
sVoptimism
p3810
I479
sVmetabolism
p3811
I413
sVr
I1331
sVsera
p3812
I5409
sVoutcome
p3813
I1602
sVmedullary
p3814
I5326
sVpublished
p3815
I4185
sVand
p3816
I48
sVt(8;21)(q22;q22
p3817
I3360
sVangioplasty
p3818
I3275
sVmb-
p3819
I4585
sVcorrection
p3820
I3899
sVcsf-1
p3821
I3767
sVmeasure
p3822
I4150
sVhead
p3823
I2275
sVcrystallin
p3824
I3497
sVprp
p3825
I2591
sVprs
p3826
I748
sVabnormalities
p3827
I2044
sVany
p3828
I1210
sVconversion
p3829
I1840
sVbisphosphonates
p3830
I2134
sVanuradhapura
p3831
I5194
sVtranscription
p3832
I1657
sVequipment
p3833
I489
sVideal
p3834
I5455
sVfracture
p3835
I3729
sVepsilon
p3836
I2713
sVobjective
p3837
I5460
sVgangrene
p3838
I4685
sVimpairment
p3839
I1076
sVstaget3b
p3840
I3866
sVfcr
p3841
I5074
sVdifferences
p3842
I905
sVmultiple
p3843
I1486
sVinkt
p3844
I3121
sVimportantly
p3845
I1489
sV]
I136
sVh82
p3846
I3705
sVrenal
p3847
I180
sVconsidered
p3848
I7
sVanca
p3849
I5278
sVlater
p3850
I5157
sVimplications
p3851
I2860
sVpeptides
p3852
I3496
sVmri
p3853
I2020
sVpattern
p3854
I4669
sVmre
p3855
I3177
sVsenior
p3856
I4852
sVduplication
p3857
I3182
sVtypically
p3858
I2026
sVvasculitides
p3859
I3099
sVmrc
p3860
I4858
sV3.77
p3861
I4131
sV3.75
p3862
I5576
sVcnps
p3863
I4326
sVnlc
p3864
I3129
sVsustained
p3865
I1802
sVtuberous
p3866
I1229
sVfifth
p3867
I5334
sVoverexpressed
p3868
I1868
sVincb039110
p3869
I3384
sVratio
p3870
I645
sVdocetaxel
p3871
I5337
sVproportion
p3872
I1906
sVquiescence
p3873
I3546
sVonly
p3874
I828
sVenriched
p3875
I3198
sVshedding.
p3876
I2559
sVclinically
p3877
I3946
sVarachidonic
p3878
I4017
sVroutine
p3879
I1105
sVdye
p3880
I1193
sVdifferentiating
p3881
I2065
sVreveal
p3882
I1756
sVregarding
p3883
I706
sVhcas
p3884
I1144
sV1.8625.26
p3885
I2916
sVpreliminarily
p3886
I3703
sV0.971.66
p3887
I3045
sVextremity
p3888
I4682
sVpredicted
p3889
I2931
sVprevents
p3890
I3122
sVpituitary
p3891
I2456
sVdiscussing
p3892
I2337
sVreveals
p3893
I2310
sVdice
p3894
I4412
sVburst
p3895
I3698
sVtsgs
p3896
I4719
sVunmarried
p3897
I4498
sVdeconvolution
p3898
I5484
sVconnections
p3899
I2589
sVactively
p3900
I1342
sVcollege
p3901
I3690
sVxenogeneic
p3902
I2388
sVlnc
p3903
I4439
sVeuropeans
p3904
I4026
sVappear
p3905
I4436
sVwm-266
p3906
I3132
sVinhibitory
p3907
I2473
sVcd105
p3908
I3370
sVsubsequent
p3909
I5242
sVreview
p3910
I184
sVcirculating
p3911
I3794
sVinhibitors
p3912
I207
sVimportance
p3913
I2791
sV3
I1092
sVspermatogonia
p3914
I3199
sVzebrafish
p3915
I2459
sVtherapies
p3916
I1102
sVorchestrate
p3917
I4246
sV0.690.78
p3918
I596
sVcortisol
p3919
I1591
sV0.154
p3920
I4263
sVinclusions
p3921
I3408
sV1.106
p3922
I5464
sV-synuclein
p3923
I5039
sVanalyzed
p3924
I83
sVarticle
p3925
I2119
sVpemetrexed
p3926
I5338
sVreaction
p3927
I4149
sVstages
p3928
I79
sVacquiring
p3929
I4574
sVregion
p3930
I840
sVsodium
p3931
I4088
sVcub
p3932
I5404
sVpcr
p3933
I4070
sVvur
p3934
I1248
sVpcs
p3935
I5236
sVcomes
p3936
I4394
sVoriginating
p3937
I1624
sVr)-induced
p3938
I772
sVcharacterization
p3939
I3259
sVoverview
p3940
I5426
sVcolony
p3941
I2924
sVperiod
p3942
I1618
sVwound/
p3943
I4631
sV64
p3944
I5341
sVlearning
p3945
I3515
sVmoreover
p3946
I397
sVendeavor
p3947
I2470
sVa549
p3948
I1895
sVlate
p3949
I1079
sVakr1b10
p3950
I4102
sVneurogenesis
p3951
I3416
sVbevacizumab
p3952
I1623
sVescalated
p3953
I1372
sVimmunodeficiency
p3954
I1827
sVhypertrophic
p3955
I5539
sVcatalan
p3956
I5346
sVexanthema
p3957
I4025
sVcas9
p3958
I679
sVbigelovin
p3959
I3376
sVavian
p3960
I1266
sVneuroprotective
p3961
I1325
sVstemi
p3962
I3274
sVp47phox/
p3963
I2342
sVj4-induced
p3964
I5105
sVsuspected
p3965
I812
sVsquaraine
p3966
I4581
sVprotocols
p3967
I3328
sVpilot
p3968
I2064
sVcase
p3969
I3006
sVdeveloping
p3970
I337
sVthese
p3971
I388
sVpremature
p3972
I5461
sVsyndromes
p3973
I1225
sVrefractory
p3974
I3176
sVirrespective
p3975
I2151
sVrs1892901
p3976
I3039
sVinterconnected
p3977
I3325
sVsox18
p3978
I4883
sVbabiloni
p3979
I4735
sVpneumococcal
p3980
I2485
sVdlg5
p3981
I553
sValcoholic
p3982
I3281
sVpenetrant
p3983
I4311
sVsectional
p3984
I1611
sVjawbones
p3985
I4111
sVconverts
p3986
I4014
sVmorphologic
p3987
I3707
sV0.69
p3988
I5515
sVubiquitin
p3989
I4878
sVtrap5
p3990
I5634
sVdevelop
p3991
I616
sVproto
p3992
I5328
sVsupra
p3993
I2404
sVmicroarray
p3994
I2593
sVepoch
p3995
I3990
sVpclo
p3996
I5596
sVconstructed
p3997
I3936
sVdedifferentiation
p3998
I2287
sVweek
p3999
I3402
sVinvestigated
p4000
I150
sVmigration
p4001
I1170
sVcarboxypeptidase
p4002
I3811
sVdriver
p4003
I1864
sVdrives
p4004
I1058
sVdriven
p4005
I452
sVpersons
p4006
I5190
sVguillain
p4007
I2415
sVinvestigates
p4008
I636
sVdiscriminate
p4009
I2517
sVvalidate
p4010
I4559
sV1.024.16
p4011
I2448
sVnm
p4012
I1709
sVantibodies
p4013
I1281
sVinactivating
p4014
I5319
sVcytosolic
p4015
I3279
sVframework
p4016
I1183
sVlavage
p4017
I805
sVccp
p4018
I3812
sVccl
p4019
I4784
sVsevere
p4020
I605
sVwithout
p4021
I1209
sVcch
p4022
I3955
sValleviate
p4023
I4843
sVrelied
p4024
I5322
sVprc2
p4025
I2214
sVmodel
p4026
I141
sVccc
p4027
I3547
sVhaploinsufficiency
p4028
I2582
sVedema
p4029
I1302
sVnd
p4030
I4593
sVadjusted
p4031
I643
sVvaluable
p4032
I2469
sVstroma
p4033
I401
sVfoot
p4034
I3086
sVinflammatory
p4035
I626
sVkill
p4036
I2621
sVhyperreactivity
p4037
I4517
sVdifferentiation
p4038
I1727
sVelectrolyte
p4039
I5613
sVspeed
p4040
I3708
sVhomeostasis
p4041
I2727
sVintolerable
p4042
I2945
sVdeath
p4043
I124
sVstaging
p4044
I3681
sVangiotensin
p4045
I3916
sVhct116
p4046
I5324
sVconclude
p4047
I4276
sVseems
p4048
I2300
sVexcept
p4049
I3612
sVimprovement
p4050
I3038
sVsetting
p4051
I3895
sVbloc
p4052
I109
sVtreatment
p4053
I84
sVsamples
p4054
I808
sVimmunosorbent
p4055
I4216
sVstemness
p4056
I3540
sVentitled
p4057
I1020
sVdisrupt
p4058
I3513
sVdisproportionate
p4059
I531
sVreal
p4060
I4068
sVglycaemia
p4061
I2689
sVaml
p4062
I1918
sVmaxillofacial
p4063
I2158
sVtopo1
p4064
I5444
sVpsc
p4065
I4051
sVpsa
p4066
I285
sVamd
p4067
I2110
sVleptomeningeal
p4068
I3015
sV0.58
p4069
I3293
sVchorioamnionitis
p4070
I3832
sVamp
p4071
I2846
sVaccepted
p4072
I5459
sVib
p4073
I1719
sVtoxicities
p4074
I2944
sVacute
p4075
I602
sVductal
p4076
I981
sVcollective
p4077
I1582
sVbenefit
p4078
I2599
sVt
I728
sVnosocomial
p4079
I3532
sVneurologic
p4080
I1856
sVoutput
p4081
I4709
sVqtls
p4082
I4901
sVreduced
p4083
I1299
sVtwelve
p4084
I3373
sValbuminuria
p4085
I1414
sVexposed
p4086
I660
sVcachexia
p4087
I2613
sVduration
p4088
I1381
sV's
p4089
I383
sVhemorrhage
p4090
I1548
sVintact
p4091
I404
sVcq
p4092
I2510
sVwarranting
p4093
I2887
sVviral
p4094
I1671
sVmicro
p4095
I408
sVhepatitis
p4096
I2038
sVdepletion
p4097
I305
sVdeficit
p4098
I1304
sVp5cr1
p4099
I5263
sVfasudil
p4100
I236
sVovaries
p4101
I2580
sVequivalent
p4102
I4283
sVglb1
p4103
I4981
sVil-1
p4104
I2249
sVnmd
p4105
I5133
sVdiet
p4106
I1454
sV70
p4107
I2884
sVfound
p4108
I598
sVsixty
p4109
I1837
sVnmo
p4110
I3226
sVtdp
p4111
I3410
sVcomparison
p4112
I567
sVcentral
p4113
I992
sVof
p4114
I12
sVsri
p4115
I5197
sVdiscussed
p4116
I4415
sV75.5%
p4117
I4722
sVoa
p4118
I5602
sVthousands
p4119
I4788
sVchop
p4120
I1407
sVneurodegenerative
p4121
I3411
sVgreatly
p4122
I3836
sVconcentrations
p4123
I5218
sVov
p4124
I4122
sVantibody
p4125
I2489
sVor
p4126
I224
sVprotease
p4127
I1056
sVcommunication
p4128
I3514
sVspinal
p4129
I292
sVinvolvement
p4130
I168
sVmissense
p4131
I4362
sVdetermine
p4132
I2452
sVhyperglycemia
p4133
I3994
sVlastly
p4134
I3879
sVgarp
p4135
I5422
sVintervention
p4136
I1449
sVeht
p4137
I3033
sVarea
p4138
I5199
sVassumed
p4139
I5238
sVthere
p4140
I163
sVcultured
p4141
I781
sVdetectable
p4142
I1110
sVlow
p4143
I528
sVnitric
p4144
I2962
sVenergy
p4145
I1448
sVallergic
p4146
I4515
sVregard
p4147
I878
sVjun
p4148
I2850
sVdelayed
p4149
I118
sVerk1/2
p4150
I3918
sVlymph
p4151
I1731
sVmolecule-1
p4152
I2997
sVpromote
p4153
I1169
sVirreversible
p4154
I3265
sVfaster
p4155
I899
sVdemyelination
p4156
I4749
sVdatasets
p4157
I1916
sVextraplacental
p4158
I3829
sVimproved
p4159
I1096
sVcirculation
p4160
I1949
sVdefault
p4161
I1388
sVare-
p4162
I4525
sVcalgranulin
p4163
I1555
sVdefine
p4164
I5046
sVstrongly
p4165
I943
sVillnesses
p4166
I1835
sVeae-
p4167
I5551
sV600
p4168
I3396
sVfusions
p4169
I3894
sVdescribe
p4170
I4244
sVrvo
p4171
I4464
sVlandscape
p4172
I3131
sVcbz
p4173
I4022
sVcontrolled
p4174
I4400
sVhospitals
p4175
I5193
sVstatuses
p4176
I1833
sV4.4
p4177
I3234
sVadministered
p4178
I233
sVstorage
p4179
I5120
sV5fu
p4180
I3548
sVigg
p4181
I5168
sVige
p4182
I3877
sVigd
p4183
I4984
sV5
I4083
sVtransfusion
p4184
I5359
sVresidence
p4185
I4374
sVctcf
p4186
I821
sVpoor
p4187
I541
sVgermline
p4188
I5327
sVr388p
p4189
I4891
sVmet
p4190
I4228
sVnoncoding
p4191
I4438
sVeaec
p4192
I2211
sVchemo
p4193
I3423
sV60y
p4194
I5159
sVincludes
p4195
I5126
sVretrospectively
p4196
I532
sVcb1
p4197
I146
sVnucleus
p4198
I4039
sVserious
p4199
I2758
sVincluded
p4200
I1067
sVproteomic
p4201
I4591
sVpool
p4202
I5309
sVunresponsive
p4203
I2864
sVcytotoxicity
p4204
I2396
sVinsertions
p4205
I3822
sVodds
p4206
I644
sVmitochondria
p4207
I4474
sVcurve
p4208
I585
sVhdac
p4209
I1427
sVsignalling
p4210
I212
sVhmms
p4211
I4324
sVall
p4212
I511
sValk
p4213
I211
sVchinese
p4214
I2041
sVali
p4215
I1335
sVald
p4216
I3282
sVlack
p4217
I1036
sVseals
p4218
I5185
sVsurgical
p4219
I3327
sVsystemic
p4220
I174
sVnitroglycerin
p4221
I4803
sV.0084
p4222
I2981
sVfollow
p4223
I2519
sVdecisions
p4224
I5151
sVals
p4225
I1101
sVosteoporosis
p4226
I2420
sVsynthetic
p4227
I2106
sV 
I427
sVparticipants
p4228
I1068
sV1520%
p4229
I4931
sVusability
p4230
I2610
sVhealth
p4231
I2761
sVnodes
p4232
I2528
sVpresentation
p4233
I5557
sV1.71
p4234
I3153
sVactivities
p4235
I1450
sV28,600
p4236
I526
sVroc
p4237
I584
sVmpc
p4238
I4227
sVvery
p4239
I4587
sVapoptosis
p4240
I311
sVfap
p4241
I2525
sVg6pd
p4242
I1571
sVlrrc2
p4243
I4472
sVmpv
p4244
I5509
sVfak
p4245
I3624
sVprognostication
p4246
I5352
sVtreating
p4247
I699
sVsubsets
p4248
I4075
sVdeficient
p4249
I1408
sVremodeling
p4250
I2243
sV2.3.4.4
p4251
I4455
sVprolonged
p4252
I1129
sV-6
p4253
I4016
sV-8
p4254
I1352
sVrats
p4255
I2571
sVten
p4256
I4009
sVexamination
p4257
I5457
sVaberrantly
p4258
I4076
sVfragility
p4259
I4112
sVaspartoacylase
p4260
I3754
sVrate
p4261
I322
sVdesign
p4262
I3806
sVenhancement
p4263
I1945
sVpromotes
p4264
I1447
sVextremities
p4265
I5032
sVcanonical
p4266
I4478
sVstat3
p4267
I857
sVnano
p4268
I3125
sV.01
p4269
I5580
sVovarian
p4270
I2138
sVoverload
p4271
I1637
sVpublic
p4272
I3283
sVchristian
p4273
I3954
sVfty720
p4274
I4773
sVmodify
p4275
I1874
sVcaspase
p4276
I2774
sVselective
p4277
I1651
sVprotease(s
p4278
I4095
sVcompartmentalization
p4279
I3246
sVexcess
p4280
I620
sVmultiforme
p4281
I2808
sVstrong
p4282
I2271
sVsocial
p4283
I1133
sVnkx3
p4284
I4084
sVnkx2
p4285
I4082
sVsirna
p4286
I3853
sVurokinase
p4287
I2279
sVlosses
p4288
I1674
sV~~[[2
p4289
I25
sV~~[[1
p4290
I2
sVamount
p4291
I3563
sVextremes
p4292
I917
sVstiffness
p4293
I4703
sVrs35705950
p4294
I4532
sVoptions
p4295
I2100
sVrepressor
p4296
I1658
sVconditioning
p4297
I5436
sVproatherogenic
p4298
I5077
sVpet)/computed
p4299
I443
sVfamily
p4300
I422
sVmediator
p4301
I2316
sV.41
p4302
I5577
sVsbe
p4303
I624
sVmutant
p4304
I1575
sVanalyzing
p4305
I1915
sVaimed
p4306
I362
sVtrained
p4307
I2892
sVil]-1
p4308
I5034
sVaberrant
p4309
I2766
sVcongenital
p4310
I4092
sVconventional
p4311
I2164
sVdiscriminative
p4312
I4231
sVpscs
p4313
I1493
sVcontains
p4314
I711
sV88
p4315
I3943
sVdemyelinating
p4316
I2798
sVmirna
p4317
I385
sVtaken
p4318
I1899
sVinjury
p4319
I1334
sVautophagosome
p4320
I2781
sVnecrotising
p4321
I2227
sVrheumatoid
p4322
I2177
sVavp
p4323
I2634
sVlipoprotein
p4324
I2481
sVknown
p4325
I796
sVgelatinase-
p4326
I4048
sVqpcr
p4327
I3592
sVequation
p4328
I4801
sVdebated
p4329
I3542
sVnine
p4330
I4911
sVv
I133
sVspontaneous
p4331
I5158
sVhistory
p4332
I2608
sVspearman
p4333
I576
sVchallenging
p4334
I4647
sVchemoradiation
p4335
I5389
sVosteosarcoma
p4336
I3481
sVradiotherapy
p4337
I2263
sVmethyl
p4338
I3178
sVprotects
p4339
I3862
sV4.54
p4340
I3160
sVlacks
p4341
I1109
sVspecies
p4342
I693
sV5.3
p4343
I4900
sVstrongest
p4344
I2250
sVgoal
p4345
I3172
sVrather
p4346
I933
sVnfe2l2/nrf2
p4347
I4353
sVinfluences
p4348
I1984
sVnoninvasive
p4349
I2937
sVactivator
p4350
I2274
sVmi
p4351
I610
sVmesenchymal
p4352
I953
sVcytokine
p4353
I2224
sVprognostic
p4354
I429
sVser363
p4355
I3684
sVderived
p4356
I438
sVgerminal
p4357
I5007
sVreflect
p4358
I4392
sVfd
p4359
I5122
sVinvasion
p4360
I1171
sVphosl
p4361
I4558
sVfl
p4362
I1368
sVconcerns
p4363
I4397
sVa
I13
sVe26
p4364
I1659
sVshort
p4365
I183
sVenzymes
p4366
I3722
sVbiomarker
p4367
I260
sVheight
p4368
I5619
sV)
I47
sVards
p4369
I5540
sVnsaids
p4370
I1847
sVscsd
p4371
I4093
sVegc
p4372
I92
sVegf
p4373
I3445
sVturnover
p4374
I5035
sVparaventricular
p4375
I4038
sVhelp
p4376
I2014
sVcopper
p4377
I1850
sVdeveloped
p4378
I128
sVfingolimod
p4379
I983
sV1.9%
p4380
I5086
sVscientist
p4381
I4853
sVhela
p4382
I4972
sVpilus
p4383
I2209
sVtff3-mediated
p4384
I2823
sVnkg2d
p4385
I1796
sVcardiovascular
p4386
I2180
sVif1
p4387
I2474
sVadverse
p4388
I86
sVlateral
p4389
I1099
sVcholestasis
p4390
I1694
sVfate
p4391
I3253
sVcutis
p4392
I5260
sVabsence
p4393
I5174
sVupf1
p4394
I5135
sVsystems
p4395
I519
sVinterleukin-6
p4396
I1350
sVdiffered
p4397
I4560
sVmight
p4398
I1354
sValter
p4399
I3040
sVcea
p4400
I4969
sVfood
p4401
I2836
sVcem
p4402
I2399
sVbromodomain
p4403
I3671
sVlengthening
p4404
I3352
sVcer
p4405
I113
sVaccumulate
p4406
I3438
sVmyocardiocytes
p4407
I3428
sVdownregulation
p4408
I274
sVgrowing
p4409
I5129
sVfully
p4410
I2432
sVlevel
p4411
I63
sVretinitis
p4412
I2795
sVdone
p4413
I5392
sVifh
p4414
I437
sVcharacterized
p4415
I268
sVreferred
p4416
I1666
sVweight
p4417
I3665
sVgeneration
p4418
I222
sVmir-3680
p4419
I3589
sVrecapitulate
p4420
I198
sVbeen
p4421
I149
sVcgvhd
p4422
I2647
sVloops
p4423
I3805
sVevent
p4424
I1444
sVpolyglutamate
p4425
I3814
sValcohol
p4426
I3135
sVh3k36me3
p4427
I5482
sVconfounders
p4428
I3720
sVglycation
p4429
I2146
sVsynaptosomal
p4430
I5141
sVsince
p4431
I485
sVinduces
p4432
I307
sVviability
p4433
I2806
sVsafety
p4434
I3383
sVsyb-1
p4435
I897
sV7
I769
sVmyocardium
p4436
I3694
sVinduced
p4437
I310
sVissue
p4438
I3284
sVdysregulation
p4439
I1340
sV-subunit
p4440
I1158
sVeosinophilic
p4441
I4516
sVcausally
p4442
I2410
sV2.3.4
p4443
I4448
sVribose
p4444
I4937
sVdiffer
p4445
I1955
sVlesser
p4446
I3736
sV-2,3
p4447
I4449
sValzheimer
p4448
I841
sVasd
p4449
I1206
sVput
p4450
I2190
sVgenerate
p4451
I460
sVstellate
p4452
I3556
sVunresolved
p4453
I5277
sVbtms
p4454
I5036
sVamerican
p4455
I2838
sV.049
p4456
I5588
sVthreat
p4457
I2759
sVundergo
p4458
I3538
sVhodgkin
p4459
I1609
sVprobability
p4460
I4318
sVencoding
p4461
I1157
sVoncologist
p4462
I5013
sVhsv-1
p4463
I1008
sVreflected
p4464
I4767
sVlinking
p4465
I1809
sVenlarged
p4466
I3625
sVleast
p4467
I852
sVabrogated
p4468
I2919
sVolaparib
p4469
I1113
sVsubnetworks
p4470
I1953
sVleading
p4471
I1488
sVinteract
p4472
I1563
sVfibrillation
p4473
I1438
sVexpand
p4474
I665
sVhundred
p4475
I2191
sVheadache
p4476
I3075
sVmainstay
p4477
I4402
sVoption
p4478
I912
sVpump
p4479
I1690
sVbowel
p4480
I627
sVantitumor
p4481
I139
sVconcordance
p4482
I1065
sVvilli
p4483
I2557
sVbasal
p4484
I976
sVnci
p4485
I3704
sVmn
p4486
I295
sVprototypic
p4487
I4716
sVsignaling
p4488
I400
sVauthors
p4489
I1053
sVrecourse
p4490
I5456
sVu-25
p4491
I4541
sVneuropathic
p4492
I3050
sV\u000a\u000a 
p4493
I2152
sVchmi
p4494
I4817
sVtov2223
p4495
I3059
sV1.623.52
p4496
I1734
sVaims
p4497
I1009
sV-mutant
p4498
I2873
sVi
I1497
sVpedf
p4499
I5300
sVrisks
p4500
I754
sVcbct
p4501
I5477
sVsts
p4502
I5030
sVtoward
p4503
I2397
sVsensing
p4504
I2095
sVnewborns
p4505
I2771
sVsirt1
p4506
I1869
sVquestionnaire
p4507
I3220
sVexert
p4508
I3938
sVurgently
p4509
I3073
sVglioblastoma
p4510
I954
sVlncrnas
p4511
I2003
sV7q
p4512
I4721
sVconcentration
p4513
I2471
sVorgans
p4514
I4527
sVvulnerable
p4515
I2755
sVrobustly
p4516
I1951
sVphenotypic
p4517
I3258
sVstapf
p4518
I685
sVpotentiated
p4519
I1232
sVtrimethylation
p4520
I3650
sVinterferes
p4521
I4777
sVifn--induced
p4522
I855
sVrs895819
p4523
I5161
sVfinding
p4524
I4300
sVdonor
p4525
I4488
sVproline
p4526
I358
sV7%
p4527
I4869
sVtowards
p4528
I2358
sVneedle
p4529
I4919
sVretinal
p4530
I2682
sVmeasures
p4531
I5350
sVimprinted
p4532
I1032
sVmace
p4533
I2780
sVimpacting
p4534
I3264
sV72
p4535
I4949
sVbmi
p4536
I329
sVadr5000
p4537
I2400
sVnothing
p4538
I2035
sValpha
p4539
I3105
sVmeasured
p4540
I330
sVapproved
p4541
I1285
sVachievement
p4542
I5020
sVaberrations
p4543
I618
sVvalue
p4544
I430
sVprostatic
p4545
I5008
sVmineral
p4546
I4153
sV5-fold
p4547
I3191
sVperformances
p4548
I1295
sVclear
p4549
I2735
sVdelta-5-desaturases
p4550
I2441
sVtraditional
p4551
I2184
sVpostmenopausal
p4552
I5037
sVelectrons
p4553
I459
sV2.06
p4554
I2447
sVnotch
p4555
I2707
sV84.1%
p4556
I5070
sV2.03
p4557
I1728
sVsubpopulations
p4558
I4348
sVhyper
p4559
I3469
sVbrg1-deficient
p4560
I4916
sVphenomenon
p4561
I4037
sVreassembled
p4562
I3247
sVcdi
p4563
I3531
sVrtt
p4564
I4296
sVcdr
p4565
I5629
sVneuroendocrine
p4566
I4033
sVreminiscent
p4567
I2081
sVcausality
p4568
I3137
sVparameters
p4569
I95
sVupar
p4570
I2280
sViec
p4571
I2564
sVhip
p4572
I3329
sVhis
p4573
I2794
sVdominant
p4574
I3002
sVhiv
p4575
I1892
sVproteasome
p4576
I3984
sVbiopsy
p4577
I1603
sVmcf-10a.
p4578
I4588
sVcd4
p4579
I1480
sV1.88
p4580
I655
sVdry
p4581
I2649
sVduring
p4582
I160
sV69
p4583
I3492
sV1.84
p4584
I3155
sVadulthood
p4585
I5363
sVcontinuum
p4586
I4369
sVtransgenic
p4587
I4674
sVlipogenesis
p4588
I5313
sVacellular
p4589
I803
sVsurvivin
p4590
I1546
sVhypo
p4591
I3471
sVlyqb
p4592
I3291
sVrecommendations
p4593
I3014
sVx
I1228
sVarq
p4594
I1710
sVbarr
p4595
I4120
sVart
p4596
I5348
sVneuroblasts
p4597
I4680
sVsubdivided
p4598
I5549
sVhmkp
p4599
I3306
sVtrap-5
p4600
I5516
sVachieves
p4601
I1801
sVculture
p4602
I3414
sVschizophrenia
p4603
I682
sVdefense
p4604
I3505
sVpve
p4605
I4913
sVare
p4606
I19
sVmediators
p4607
I3711
sVchambers
p4608
I4547
sVpolymorphic
p4609
I4325
sVarm
p4610
I5583
sVbaldness
p4611
I5430
sVpvn
p4612
I3917
sVthrombocytopenia
p4613
I1663
sVdistinctive
p4614
I3304
sVtcga
p4615
I377
sVtcc
p4616
I2167
sV82
p4617
I5535
sVplatelet
p4618
I2960
sVvarious
p4619
I393
sVprobably
p4620
I3586
sVconditions
p4621
I497
sVprofiling
p4622
I1479
sVrecently
p4623
I127
sVstatistically
p4624
I4624
sVmissing
p4625
I2627
sVinitially
p4626
I2833
sVattention
p4627
I2253
sVulcerative
p4628
I2194
sVpoorer
p4629
I745
sVhiv-1
p4630
I4653
sVrapid
p4631
I2509
sVdistinguish
p4632
I5048
sVremaining
p4633
I3196
sVpcas
p4634
I615
sVboth
p4635
I60
sVc
I54
sVsputum
p4636
I3789
sVcomponents
p4637
I2215
sVpanther
p4638
I3239
sVsensitive
p4639
I1111
sVcontext
p4640
I1764
sVexperimental
p4641
I997
sVphosphor(p)-erk
p4642
I3074
sVregulates
p4643
I1495
sVdistress
p4644
I3218
sVreasons
p4645
I5568
sVsepsis
p4646
I607
sVdecipher
p4647
I3543
sVhyperfiltration
p4648
I4491
sVregulated
p4649
I2351
sVcrispr
p4650
I678
sVvessel
p4651
I369
sVtgn
p4652
I1646
sVswi
p4653
I2240
sVdecline
p4654
I1831
sVcomplication
p4655
I2648
sVhistopathologically
p4656
I3833
sV288
p4657
I1249
sVdue
p4658
I465
sVstrategy
p4659
I2618
sVpb
p4660
I1910
sVwhom
p4661
I4368
sVreduction
p4662
I1938
sVdescribes
p4663
I674
sVsirnas
p4664
I3581
sVmaintenance
p4665
I3799
sVpe
p4666
I2747
sVcollected
p4667
I4958
sVgestalt
p4668
I4012
sVph
p4669
I2237
sVpi
p4670
I66
sVpn
p4671
I5225
sVadenomas
p4672
I1956
sVganglion
p4673
I4748
sVgenerating
p4674
I3519
sVpenicillamine
p4675
I1848
sVlymphopenia
p4676
I2104
sVcovariance
p4677
I1818
sVdetermination
p4678
I4595
sVliver
p4679
I1695
sVbulbar
p4680
I5574
sVplants
p4681
I2308
sVextracted
p4682
I5472
sVllcs
p4683
I2053
sVevaluated
p4684
I229
sVhealthy
p4685
I1909
sVwhile
p4686
I154
sVhxpa
p4687
I3286
sVbehavior
p4688
I5248
sVm.d.
p4689
I3676
sVhaplotypes
p4690
I3289
sVtranscripts
p4691
I5142
sVciliary
p4692
I5303
sVlymphoproliferative
p4693
I3029
sVherein
p4694
I1522
sVneurons
p4695
I783
sVethnicity
p4696
I1775
sVaged
p4697
I3215
sVbaseline
p4698
I1082
sVlengths
p4699
I4563
sVbelong
p4700
I3973
sVdermoepidermal
p4701
I4666
sVstimulated
p4702
I1507
sVsimultaneous
p4703
I3820
sVmegaloblastic
p4704
I2462
sVwidely
p4705
I2966
sV9
I2340
sVneoadjuvant
p4706
I1839
sVhbx
p4707
I3277
sVused
p4708
I379
sVfatty
p4709
I1641
sVoptic
p4710
I2799
sVphysiopathology
p4711
I5131
sVwilson
p4712
I1854
sVcmyc
p4713
I1545
sVrobust
p4714
I273
sVdesmoplasia
p4715
I4466
sVlower
p4716
I353
sVabnormality
p4717
I4167
sV15.5
p4718
I5447
sVcystectomy
p4719
I3926
sVdatabase
p4720
I3957
sVtranscatheter
p4721
I3367
sVanalysis
p4722
I387
sVobviously
p4723
I2222
sVakt1
p4724
I5205
sVedge
p4725
I3372
sVgse
p4726
I3961
sVgsk
p4727
I3511
sVaptamer
p4728
I5310
sVfacial
p4729
I5201
sVcvb3
p4730
I2769
sVcholangiocarcinoma
p4731
I4124
sVreviewed
p4732
I2478
sVeffector
p4733
I2620
sVinactive
p4734
I1055
sVquestions
p4735
I4713
sVhemolytic
p4736
I5376
sVmajority
p4737
I5360
sVanova
p4738
I3958
sVfractionated
p4739
I5480
sVprominent
p4740
I2118
sVtransformation
p4741
I1660
sVbuild
p4742
I380
sVvaginosis
p4743
I3294
sVgvhd
p4744
I3987
sVhomozygous
p4745
I344
sVmicrorna
p4746
I2311
sVevaluate
p4747
I756
sVshowing
p4748
I167
sVunlimited
p4749
I3575
sV31.90%13.31%
p4750
I4160
sVrhbdf2
p4751
I1057
sVandrographolide
p4752
I4710
sV67%
p4753
I4414
sVlike
p4754
I2201
sVmodifications
p4755
I3610
sVaav2
p4756
I1003
sVips
p4757
I2381
sVoncomine
p4758
I3816
sVadmitted
p4759
I5503
sVinterestingly
p4760
I1561
sVcompulsivity
p4761
I4991
sVmcf7
p4762
I3855
sVmanifest
p4763
I3361
sVimmunization
p4764
I5289
sVth17
p4765
I923
sVbyproduct
p4766
I4018
sVrearrangement
p4767
I2954
sVeeg
p4768
I5153
sVessential
p4769
I2751
sVtubular
p4770
I1415
sVsome
p4771
I3116
sVurgent
p4772
I3947
sVeconomic
p4773
I1673
sV3.2
p4774
I3229
sVhistology
p4775
I3869
sV3.1
p4776
I901
sVcxcl10
p4777
I1163
sVinvestigating
p4778
I1010
sVresected
p4779
I3365
sVlobar
p4780
I3406
sVadoptive
p4781
I2218
sVser345
p4782
I3851
sVtends
p4783
I2157
sVminimal
p4784
I4165
sVstec
p4785
I5553
sVeating
p4786
I3467
sVprocessing
p4787
I4010
sVstem
p4788
I313
sVcaski
p4789
I4976
sVneurovisceral
p4790
I1567
sVbecome
p4791
I1843
sVc1q
p4792
I5493
sVvaccine
p4793
I2902
sVshine
p4794
I1023
sVglaucoma
p4795
I700
sVsmbl
p4796
I2546
sVleukaemia
p4797
I3168
sVrange
p4798
I673
sVinhibits
p4799
I2531
sVtherapeutic
p4800
I230
sVidc
p4801
I982
sVblock
p4802
I3434
sVcutoff
p4803
I4941
sVcas9-mediated
p4804
I2122
sVcarcinosarcoma
p4805
I3626
sVwithin
p4806
I1950
sVmutagenic
p4807
I2668
sVcdk1
p4808
I1540
sV73.8%
p4809
I5069
sVimmunotherapeutic
p4810
I4660
sVseasons
p4811
I3093
sVgaucher
p4812
I5344
sVca4
p4813
I839
sVc4d
p4814
I5532
sVrenewal
p4815
I2288
sVosseous
p4816
I4110
sVplacing
p4817
I5377
sVlong
p4818
I1946
sVhepatocyte
p4819
I4086
sVmir-143
p4820
I3863
sVassociations
p4821
I1757
sVanalyze
p4822
I1581
sVsections
p4823
I3951
sVcriteria
p4824
I3680
sV1/programmed
p4825
I5001
sVwnt
p4826
I3422
sVmediastinal
p4827
I1606
sVinjection
p4828
I3663
sVraising
p4829
I4396
sVfda
p4830
I2837
sVfdg
p4831
I434
sV-h2ax
p4832
I2522
sVleukemogenesis
p4833
I4575
sVchemosensitivity
p4834
I4100
sV116
p4835
I3380
sVheterogeneous
p4836
I1207
sVhighlight
p4837
I3173
sVsimilar
p4838
I22
sVescc
p4839
I2196
sVassociated
p4840
I40
sVadults
p4841
I2252
sVinterventions
p4842
I2016
sVmecp2
p4843
I3180
sVdhl-6
p4844
I5107
sVtomography
p4845
I442
sVdhl-8
p4846
I5112
sVkidney
p4847
I1397
sVnac
p4848
I3682
sVnaa
p4849
I3757
sVamounts
p4850
I3875
sVmannose
p4851
I5530
sVapplication
p4852
I675
sVgenome
p4853
I749
sVincome
p4854
I529
sVdepartment
p4855
I5356
sV1.370
p4856
I4209
sVatheromatous
p4857
I1991
sVbackbone
p4858
I4445
sVproblems
p4859
I1814
sVbreasts
p4860
I5402
sVglomerular
p4861
I1401
sVgenerated
p4862
I1024
sVallowing
p4863
I3577
sVhighlighting
p4864
I1860
sVrestrained
p4865
I3517
sVostp
p4866
I3340
sVindependently
p4867
I4261
sVcorrelated
p4868
I2702
sVe
I2536
sVfluorescence
p4869
I2936
sVocular
p4870
I2651
sVsvd
p4871
I370
sVrequired
p4872
I2301
sVsva
p4873
I2622
sVdepth
p4874
I1517
sVcorrelates
p4875
I2639
sVdemonstrates
p4876
I1289
sVamyloidosis
p4877
I1634
sV2d.
p4878
I5251
sVrequires
p4879
I3488
sVonce
p4880
I3397
sVucpps
p4881
I5491
sVgp
p4882
I3725
sVresistance
p4883
I1091
sVastrogliosis
p4884
I5182
sVeds
p4885
I5365
sVgd
p4886
I5347
sVgc
p4887
I1962
sV-protein
p4888
I2539
sVgo
p4889
I968
sVparticularly
p4890
I1997
sVcolon
p4891
I484
sVadjustment
p4892
I1825
sVcontributions
p4893
I2373
sVammonia
p4894
I3732
sVgi
p4895
I4090
sVgh
p4896
I2745
sVprospectively
p4897
I5556
sVaric
p4898
I4335
sVstably
p4899
I2197
sVuninformative
p4900
I2868
sVradiological
p4901
I3551
sVesd
p4902
I89
sVstable
p4903
I1375
sVsuite
p4904
I4882
sVinclude
p4905
I3728
sVdramatically
p4906
I2738
sVsnail1
p4907
I2719
sVmutation
p4908
I564
sVoverlaps
p4909
I3473
sVionizing
p4910
I2267
sVg3
p4911
I2976
sVdelta-5-desaturase
p4912
I2494
sVwardleworth
p4913
I687
sVpdac
p4914
I1357
sVcellular
p4915
I1201
sVneurodevelopment
p4916
I3472
sVartery
p4917
I766
sVpolymeric
p4918
I4303
sVconnexin
p4919
I4200
sVexits
p4920
I2161
sVkurunegala
p4921
I5195
sVgender
p4922
I4241
sVepstein
p4923
I4119
sVcandidiasis
p4924
I175
sVmotoneurons
p4925
I294
sVdysregulated
p4926
I2365
sVacid
p4927
I1642
sVreclassification
p4928
I3897
sVfli
p4929
I3594
sVplays
p4930
I1049
sVmononuclear
p4931
I2985
sVnetworks
p4932
I2317
sVcell
p4933
I555
sVexperiment
p4934
I1165
sVthen
p4935
I2379
sVvalues
p4936
I2778
sV;
I104
sVth22
p4937
I3795
sVpmbcl
p4938
I1607
sVmultivariate
p4939
I1824
sVfocuses
p4940
I2329
sVcyclooxygenase-2
p4941
I4926
sVphotothermal
p4942
I1647
sVdegree
p4943
I1064
sVtregs
p4944
I1932
sVfollowing
p4945
I94
sVexplore
p4946
I249
sVfocused
p4947
I157
sVantiradical
p4948
I1329
sVperforation
p4949
I117
sVpreeclampsia
p4950
I2746
sVipth
p4951
I4065
sVdistressed
p4952
I3141
sVgent
p4953
I4380
sVlarger
p4954
I346
sVtelangiectasia
p4955
I889
sVfasciitis
p4956
I2228
sVsuggests
p4957
I859
sVpreferentially
p4958
I3443
sVproducts
p4959
I2147
sVgene
p4960
I219
sVserpine1
p4961
I2281
sValthough
p4962
I1358
sVegypt
p4963
I5385
sVpxr
p4964
I4367
sVapp
p4965
I1017
sVconcertedly
p4966
I4409
sVapn
p4967
I1245
sVmotor
p4968
I3076
sVchemoprevention
p4969
I1149
sVapply
p4970
I1182
sVmanipulate
p4971
I681
sVbiophysical
p4972
I4881
sVinterleukin
p4973
I2542
sVconsumption
p4974
I3614
sVremains
p4975
I1487
sV1]]~~
p4976
I4
sVgerm
p4977
I833
sVcarbocyanine
p4978
I2940
sVestimated
p4979
I1400
sVvehicle
p4980
I4550
sVpanel
p4981
I1234
sVhistorically
p4982
I5321
sVpsoriasis
p4983
I2828
sVezrin
p4984
I5425
sVstarted
p4985
I2619
sVdetail
p4986
I4011
sVtylosis
p4987
I265
sVabout
p4988
I2036
sVinfection
p4989
I1742
sVcooperate
p4990
I4437
sVvirulence
p4991
I5548
sVactual
p4992
I2631
sVdisabling
p4993
I4236
sVwomen
p4994
I650
sVparalleled
p4995
I4659
sVhomeobox
p4996
I4077
sVaugment
p4997
I3429
sV2.0060.62
p4998
I2882
sVmetastases
p4999
I760
sVinhibitor
p5000
I235
sVproof
p5001
I3889
sVcontrol
p5002
I931
sVtau
p5003
I1961
sVmicrobleeds
p5004
I1779
sV1,166
p5005
I4814
sV0.3
p5006
I1738
sVlysosomes
p5007
I3109
sVtaz
p5008
I2445
sVmoyamoya
p5009
I4043
sVtaa
p5010
I2058
sVdocumenting
p5011
I1590
sVher2/neu
p5012
I5382
sVspherogenesis
p5013
I2202
sVunited
p5014
I2835
sVsyndrome
p5015
I614
sVdefective
p5016
I3102
sVconversely
p5017
I3911
sVsix
p5018
I3003
sVinaugural
p5019
I5018
sVserum
p5020
I758
sVmda-
p5021
I4584
sVinstead
p5022
I4424
sVsii
p5023
I3758
sV\u000a\u000a          \u000a\u000a        \u000a\u000a          \u000a\u000a        
p5024
I4042
sVcircular
p5025
I5290
sVvisceral
p5026
I1120
sVexpress
p5027
I2056
sVmaternal
p5028
I5563
sV1.453.82
p5029
I4134
sVhazard
p5030
I2446
sVhupt-3
p5031
I2773
sVp=0.047
p5032
I5453
sVcd5
p5033
I5083
sVlight
p5034
I258
sVmetastasis
p5035
I550
sVabmc
p5036
I4636
sVhealthcare
p5037
I518
sVlocomotor
p5038
I1306
sVkbm
p5039
I3256
sVfacilitated
p5040
I5520
sV133
p5041
I5336
sV130
p5042
I2922
sVincluding
p5043
I38
sVdkr-1051
p5044
I3052
sVmentioned
p5045
I5431
sV139
p5046
I5560
sVchemical
p5047
I4520
sVlongitudinal
p5048
I963
sVcd8
p5049
I1241
sVtemporal
p5050
I846
sVhim
p5051
I5017
sVcscs
p5052
I1783
sVrestrain
p5053
I2346
sVh3
p5054
I1435
sVimbalance
p5055
I2748
sVdefining
p5056
I3559
sVkoreans
p5057
I4029
sVmesothelioma
p5058
I3320
sVcomprehensively
p5059
I3459
sVpractice
p5060
I2378
sVoxidizing
p5061
I3785
sVmetabolically
p5062
I5283
sVunderstood
p5063
I2113
sVfront
p5064
I1583
sVimpaired
p5065
I1200
sVdocumented
p5066
I2238
sVtransitional
p5067
I2166
sVmyocarditis
p5068
I1632
sVuniversity
p5069
I3637
sVnfl
p5070
I5581
sVhemagglutinin
p5071
I4450
sVunpredictable
p5072
I5381
sVhyperphosphorylated
p5073
I2540
sVmode
p5074
I1389
sVpromise
p5075
I1319
sVsnf
p5076
I2241
sVcytogenetic
p5077
I2043
sVfilopodia
p5078
I3620
sVreassortants
p5079
I4457
sVlys27
p5080
I3507
sVglobe
p5081
I5421
sVrelated
p5082
I123
sVconstitute
p5083
I4320
sVbim
p5084
I3997
sVinterplay
p5085
I2483
sVhlh
p5086
I2072
sVquiescent
p5087
I4053
sV70%
p5088
I5620
sV80
p5089
I3499
sVcholesterogenesis
p5090
I5314
sVpreconditioning
p5091
I2479
sV84
p5092
I3942
sVout
p5093
I4672
sVcategory
p5094
I3896
sVagnoprotein
p5095
I4435
sVcerebral
p5096
I765
sV50.0%
p5097
I3398
sVradical
p5098
I3925
sVinvestigate
p5099
I428
sVf]-florbetaben
p5100
I4944
sV20102013
p5101
I4903
sVcause
p5102
I1332
sVintegrated
p5103
I3818
sVachieving
p5104
I3574
sVhomeobox-1
p5105
I5405
sVecg
p5106
I5367
sVimmunohistochemistry
p5107
I3634
sVecm
p5108
I4468
sVactivity
p5109
I709
sVattending
p5110
I5191
sVcompletely
p5111
I3069
sVancestry
p5112
I4332
sVpluripotent
p5113
I4319
sVobliteration
p5114
I2928
sVcompositions
p5115
I3108
sVbasophil
p5116
I3880
sVclonally
p5117
I5082
sVprevention
p5118
I2102
sVobs
p5119
I1891
sVorganic
p5120
I1509
sVg
I1029
sVdiminished
p5121
I2293
sVtimes
p5122
I3048
sVcounterpart
p5123
I5230
sVelectroencephalographic
p5124
I4732
sVhence
p5125
I1836
sVdiminishes
p5126
I2989
sV2.59
p5127
I3165
sVprospective
p5128
I246
sVcmml
p5129
I2048
sVdihomo--linolenic
p5130
I4015
sVdate
p5131
I3430
sV-/-
p5132
I2910
sVdrinker
p5133
I5160
sVquality
p5134
I2760
sVbetween
p5135
I339
sVendemic
p5136
I1576
sVtherapeutics
p5137
I2115
sVmanagement
p5138
I4416
sVhematogenous
p5139
I1963
sVdata
p5140
I166
sVachieved
p5141
I1374
sVadopted
p5142
I2343
sVantiinflammatory
p5143
I1328
sVtheir
p5144
I1880
sVattack
p5145
I4804
sVigf-1r
p5146
I1230
sVanaemia
p5147
I2153
sVankle
p5148
I2678
sVchemotherapy
p5149
I1842
sVfinal
p5150
I2788
sVpathogen
p5151
I2770
sV99.3
p5152
I4212
sVrsk
p5153
I3741
sVreversed
p5154
I2718
sVfoliar
p5155
I4904
sVchemicals
p5156
I1137
sVreflecting
p5157
I241
sVsuitability
p5158
I3261
sVmanifestation
p5159
I3969
sVsynergistic
p5160
I2160
sVjuly
p5161
I5500
sVctnt
p5162
I2592
sVmorbidity
p5163
I2169
sVhypocholesterolemia
p5164
I3615
sVcirrhosis
p5165
I4759
sVneck
p5166
I2276
sVepidermal
p5167
I2854
sVjohnson
p5168
I4005
sVara
p5169
I4702
sVdistinguishes
p5170
I952
sVinfectious
p5171
I4114
sVdiscriminating
p5172
I1782
sVpatients
p5173
I68
sV2-fold
p5174
I4067
sVproviding
p5175
I4820
sVbet
p5176
I3673
sVpvd
p5177
I4683
sVbehaviors
p5178
I3468
sVenforced
p5179
I3350
sV1.0
p5180
I5572
sV1.1
p5181
I3233
sV14.3%
p5182
I5087
sVasics
p5183
I2098
sVsu
p5184
I5106
sV2.2
p5185
I3232
sVneed
p5186
I1861
sVlinked
p5187
I2411
sVn-3
p5188
I3656
sVq
I135
sV2.0
p5189
I1478
sVppci
p5190
I5203
sVcxcl12/cxcr4
p5191
I3597
sVquartile
p5192
I2878
sVable
p5193
I2816
sVswitch
p5194
I5375
sVil-10
p5195
I858
sVpolarization
p5196
I4809
sVpivotal
p5197
I3998
sVwhich
p5198
I137
sV=
I350
sVhp
p5199
I3613
sVsequel
p5200
I2652
sVcombat
p5201
I3883
sVcentre
p5202
I4863
sVafrican
p5203
I4329
sVconnected
p5204
I3569
sVcounterbalance
p5205
I415
sV5-aza
p5206
I5628
sVgbms
p5207
I962
sVintrinsic
p5208
I1239
sVpresurgical
p5209
I3174
sVconsequences
p5210
I2260
sVatypical
p5211
I1873
sVdenv
p5212
I4602
sVtff3
p5213
I2818
sVagvhd
p5214
I5437
sVcoinfected
p5215
I1830
sVhlbalf
p5216
I1930
sVdeletion
p5217
I1988
sVemerging
p5218
I469
sVmetaplasia
p5219
I2083
sVcognitively
p5220
I1070
sVlsd
p5221
I5121
sVcannabinoid
p5222
I145
sVcirrhotic
p5223
I4795
sVsynovial
p5224
I5026
sVplanning
p5225
I5473
sVdebate
p5226
I1362
sVleg
p5227
I5584
sVpartners
p5228
I3971
sVhighest
p5229
I1747
sVbased
p5230
I493
sV(
I45
sVpostioerative
p5231
I5388
sVreceptors
p5232
I1256
sVgra7
p5233
I3503
sVreactive
p5234
I1473
sVcandidates
p5235
I5099
sVngs
p5236
I3318
sVsulfur
p5237
I3734
sVbisphosphonate
p5238
I2127
sVlocal
p5239
I945
sVmortality
p5240
I182
sVdemonstrated
p5241
I715
sVboris
p5242
I822
sVintranasal
p5243
I1236
sVubc1
p5244
I5604
sVdiagnosing
p5245
I1628
sVquantified
p5246
I2435
sV120
p5247
I4723
sVjoint
p5248
I3962
sVt(8;21
p5249
I3573
sVp47phox
p5250
I2174
sVmkt-077
p5251
I5096
sVconsecutive
p5252
I5555
sVyears
p5253
I816
sVprocedures
p5254
I5308
sVp=0.008
p5255
I5470
sVabcg2
p5256
I4195
sVtobacco
p5257
I2305
sVdpp
p5258
I5169
sVnumerous
p5259
I3420
sVpc-3
p5260
I4032
sVdmt2
p5261
I5610
sVprocessed
p5262
I5569
sVcontain
p5263
I4484
sVshh
p5264
I5302
sVdpn
p5265
I5066
sVasian
p5266
I1774
sVphleboviruses
p5267
I2425
sVhif-2
p5268
I4529
sVhif-1
p5269
I417
sVcomputed
p5270
I3555
sVacquired
p5271
I964
sVvariations
p5272
I1920
sVhumans
p5273
I1875
sVebv
p5274
I4121
sVp21
p5275
I467
sVusefulness
p5276
I1911
sVcrt
p5277
I4503
sVdlb
p5278
I52
sVantiarrhythmic
p5279
I3118
sVreperfusion
p5280
I771
sVphospholipase
p5281
I2712
sVvip
p5282
I707
sVstate
p5283
I2078
sVidentification
p5284
I2012
sVclosed
p5285
I4731
sVquartiles
p5286
I2912
sVtens
p5287
I4787
sVkras-
p5288
I4358
sVinfiltration
p5289
I2886
sVcomplement
p5290
I5528
sVvariability
p5291
I3945
sVcomparable
p5292
I1411
sVability
p5293
I2207
sVsnps
p5294
I2541
sVremitting
p5295
I1485
sVneonatal
p5296
I2412
sVefficiency
p5297
I3450
sVhypothesis
p5298
I744
sVnchs
p5299
I5621
sVkey
p5300
I32
sVparadoxically
p5301
I2270
sVdistribution
p5302
I5510
sVbarrett
p5303
I3856
sVundetermined
p5304
I5132
sV2.42
p5305
I3158
sVweeks
p5306
I4003
sV2.44
p5307
I4129
sVlimits
p5308
I924
sVlxqb
p5309
I3287
sVbronj
p5310
I2130
sVuuo
p5311
I1536
sVpresentations
p5312
I1857
sVstrains
p5313
I2213
sVmanifestations
p5314
I2422
sVuniprot
p5315
I3236
sVendmt
p5316
I1048
sVhacat
p5317
I4980
sVsequenced
p5318
I3000
sVunclear
p5319
I341
sVpolygenic
p5320
I746
sVpii
p5321
I77
sVwall
p5322
I2292
sVantioxidant
p5323
I4523
sVptx3
p5324
I3782
sV1.098.95
p5325
I902
sVsequences
p5326
I2328
sVrespect
p5327
I3885
sVpulmonary
p5328
I913
sVelectrocardiogram
p5329
I5366
sVkca3.1
p5330
I5117
sVi.e.
p5331
I2013
sVaddition
p5332
I1441
sVnontumorigenic
p5333
I4978
sVyap
p5334
I561
sVresponds
p5335
I3712
sVperivascular
p5336
I1052
sVtreat
p5337
I2603
sVnonalcoholic
p5338
I5411
sVhai)-2
p5339
I4087
sVmonoclonal
p5340
I2831
sVdeterminant
p5341
I1820
sVcorresponding
p5342
I3477
sVretrospective
p5343
I3297
sVsufficient
p5344
I3901
sVmcao
p5345
I1305
sVarginine
p5346
I345
sVchemoresistance
p5347
I2205
sVsmoking
p5348
I654
sVpresent
p5349
I80
sV---
p5350
I2203
sVnovel
p5351
I195
sVunlike
p5352
I3188
sVccpr
p5353
I4706
sVelectrocardiographic
p5354
I5508
sVemotional
p5355
I1813
sVwill
p5356
I185
sVsynergistically
p5357
I4849
sVwild
p5358
I1412
sVmedicinal
p5359
I692
sVpleiotropic
p5360
I939
sValloimmunization
p5361
I5380
sVannual
p5362
I5024
sVneuron
p5363
I4965
sVthus
p5364
I1701
sV.10
p5365
I5592
sVsurface
p5366
I2740
sVavs
p5367
I3063
sVdraining
p5368
I2527
sVexamined
p5369
I97
sVdual
p5370
I3552
sVsarcoma
p5371
I5027
sVfto)-dependent
p5372
I3270
sVautoantibodies
p5373
I4670
sVorbital
p5374
I3464
sVhypochlorhydria
p5375
I2361
sVintranasally
p5376
I4744
sVc57bl/6
p5377
I5232
sVtransmembrane
p5378
I4256
sVcross
p5379
I1610
sVglutamate
p5380
I29
sVmember
p5381
I4144
sVpropensity
p5382
I4154
sVparts
p5383
I5420
sVlargest
p5384
I4578
sVdifficult
p5385
I2421
sVsmad4
p5386
I5163
sVeffect
p5387
I231
sVrenin
p5388
I3915
sVctcf&boris
p5389
I832
sVfrequently
p5390
I1519
sVdestruction
p5391
I1652
sVpolymorphism
p5392
I2677
sVneuropathy
p5393
I2093
sVil-23
p5394
I2492
sVmodeled
p5395
I5249
sVwell
p5396
I729
sVfever
p5397
I2426
sVcrizotinib
p5398
I227
sVtrials
p5399
I2948
sVglial
p5400
I4407
sVrs602990
p5401
I2676
sVexcessive
p5402
I2653
sVgastritis
p5403
I2355
sVincreasingly
p5404
I752
sVaccurate
p5405
I500
sV5-azacitidine
p5406
I4923
sVdose
p5407
I1371
sVbatteries
p5408
I5323
sVdistant
p5409
I549
sVps2app
p5410
I4411
sVcns)-hemophagocytic
p5411
I2070
sVtcd
p5412
I4772
sVcoordination
p5413
I4279
sVrecapitulated
p5414
I4571
sVneurodegeneration
p5415
I893
sVintracerebral
p5416
I1547
sVdensity
p5417
I2480
sVncr2
p5418
I2741
sVsig2r
p5419
I3054
sVother
p5420
I1270
sVnephrectomy
p5421
I4489
sVnanoparticles
p5422
I4305
sVrecapitulates
p5423
I3536
sVlymphocytes
p5424
I3633
sVpossess
p5425
I4582
sVwarrant
p5426
I1781
sVunprecedented
p5427
I513
sVmurine
p5428
I1985
sV26%
p5429
I1975
sVburden
p5430
I179
sVsequencing
p5431
I1498
sVvariants
p5432
I1366
sVdomains
p5433
I5364
sVbcl2
p5434
I4510
sVloss
p5435
I552
sVnecessary
p5436
I5246
sVinsufficiency
p5437
I1599
sVdietary
p5438
I3651
sVhosts
p5439
I1553
sVil17-
p5440
I3337
sVrepressed
p5441
I1491
sVconclusion
p5442
I281
sVlends
p5443
I478
sVglycoprotein
p5444
I1718
sVshed
p5445
I257
sVbecause
p5446
I453
sVsequence
p5447
I1514
sVneurites
p5448
I5040
sVlibrary
p5449
I5311
sV20092015
p5450
I970
sVcertain
p5451
I5417
sV114
p5452
I5414
sV117
p5453
I2923
sVgrowth
p5454
I1464
sVsphingolipid
p5455
I4775
sV110
p5456
I4146
sVhome
p5457
I657
sVesophagus
p5458
I3857
sVantineoplastic
p5459
I5627
sVleaf
p5460
I4906
sVlead
p5461
I793
sVbroad
p5462
I3021
sVtraumatic
p5463
I2722
sVlean
p5464
I3666
sVoverlap
p5465
I4410
sVinflammation
p5466
I1797
sV?
I5285
sVlimitations
p5467
I2335
sVatherosclerotic
p5468
I4577
sVreductase
p5469
I4143
sVst266
p5470
I4745
sVanalysed
p5471
I1033
sVexpansion
p5472
I2076
sVpqtls
p5473
I3474
sVepidemiology
p5474
I1501
sVp38
p5475
I2853
sVtumorous
p5476
I3952
sVmuc5b
p5477
I4531
sVanalyses
p5478
I3750
sVneutrophil
p5479
I2959
sVrare
p5480
I1223
sVcarried
p5481
I2626
sVanchorage
p5482
I3778
sVduo
p5483
I3769
sVdependence
p5484
I1383
sVrecognized
p5485
I1147
sVcompatible
p5486
I1004
sVcarrier
p5487
I2673
sVmyeloid
p5488
I1274
sVbeige
p5489
I4617
sVupdate
p5490
I5349
sVbmbs
p5491
I3874
sVintracellular
p5492
I1125
sVautophagosomal
p5493
I2793
sVpreviously
p5494
I1114
sVosteonecrosis
p5495
I2128
sVh4
p5496
I5209
sVh5
p5497
I1264
sVspecificity
p5498
I582
sVultrasound
p5499
I1995
sVreceptor
p5500
I170
sVradioresistance
p5501
I2206
sVutility
p5502
I666
sVspheroids
p5503
I4203
sVtumorigenic
p5504
I471
sVadditional
p5505
I1807
sVpc
p5506
I2303
sVtransfer
p5507
I2219
sVlagged
p5508
I4726
sVvad
p5509
I46
sVuniting
p5510
I1212
sVdm2
p5511
I2352
sVpa
p5512
I1849
sVexposure
p5513
I652
sVrecruited
p5514
I5396
sVkegg
p5515
I3238
sVef
p5516
I3737
sVgluten
p5517
I3959
sVtriggered
p5518
I3993
sVvasculitis
p5519
I5279
sVhr
p5520
I900
sVhs
p5521
I4754
sVeac
p5522
I3859
sVeae
p5523
I1000
sVglomeruli
p5524
I4668
sVgait
p5525
I374
sVvolume
p5526
I1301
sVhh
p5527
I399
sVgain
p5528
I261
sVpreventable
p5529
I4791
sVhc
p5530
I3780
sVha
p5531
I3781
sVhg
p5532
I4046
sVhd
p5533
I4553
sVtruncation
p5534
I4651
sVw100
p5535
I1028
sVmade
p5536
I623
sVdmd
p5537
I2031
sVwhether
p5538
I364
sVcells
p5539
I298
sVdmn
p5540
I1391
sVrecord
p5541
I3222
sVexerts
p5542
I5275
sVglioblastomas
p5543
I961
sVdemonstrate
p5544
I2590
sVspectrometry
p5545
I801
sVlvi
p5546
I3872
sVdisplay
p5547
I4695
sVstrengthens
p5548
I2490
sVprkf
p5549
I4495
sVsetd2
p5550
I5481
sVinadequate
p5551
I2363
sVtissues
p5552
I2691
sVexogenous
p5553
I5101
sVmultimodal
p5554
I3479
sVmtor
p5555
I4673
sVrestraining
p5556
I4811
sVmyc
p5557
I416
sVeducation
p5558
I3133
sVcerebrospinal
p5559
I5522
sVchromosome
p5560
I2971
sVclinicopathological
p5561
I533
sVfunctions
p5562
I940
sVcaspase-3
p5563
I1432
sVimproving
p5564
I2899
sVsilenced
p5565
I2245
sVpercent
p5566
I4180
sVnonrelapse
p5567
I4951
sVcd20-
p5568
I4841
sVezh2
p5569
I2216
sVnormal
p5570
I1071
sVsimvastatin
p5571
I5054
sVderegulated
p5572
I4511
sVnsaid
p5573
I3561
sVvolumes
p5574
I4501
sVemerges
p5575
I4267
sVjune
p5576
I5554
sVultimately
p5577
I2617
sVinsults
p5578
I4528
sVcrosslink
p5579
I3878
sVpathways
p5580
I213
sVadditionally
p5581
I1725
sVmetabolizes
p5582
I3813
sVhcv
p5583
I1829
sVhomolog
p5584
I3966
sVmacrophage
p5585
I865
sViodo
p5586
I4580
sVdescribed
p5587
I4603
sVnecrosis
p5588
I1667
sVpersistent
p5589
I2908
sVlc3b
p5590
I3064
sVdiagnosis
p5591
I333
sVrankl
p5592
I5514
sVvalidation
p5593
I3815
sVindirectly
p5594
I2265
stRp5595
sbsS'dropout'
p5596
F0.25
sS'max_len'
p5597
I100
s.