(dp1
S'dim'
p2
I50
sS'word_dict'
p3
ccopy_reg
_reconstructor
p4
(csnorkel.learning.disc_models.rnn.utils
SymbolTable
p5
c__builtin__
object
p6
NtRp7
(dp8
S'unknown'
p9
I1
sS's'
I5635
sS'd'
g4
(cfuture.types.newdict
newdict
p10
c__builtin__
dict
p11
(dp12
V
I351
sVsimilarity
p13
I4413
sVdynamic
p14
I1999
sVfour
p15
I971
sVobstruction
p16
I1535
sVneurodevelopmental
p17
I794
sVil-33
p18
I937
sVlocalized
p19
I4473
sVputamen
p20
I3466
sVwhose
p21
I3527
sVauc
p22
I590
sVcytoscape
p23
I3240
sVdisability
p24
I1550
sVci=10.1
p25
I5448
sVpresents
p26
I138
sVteaching
p27
I5192
sVimmature
p28
I2189
sVmagnetic
p29
I2018
sVhormone
p30
I2282
sVrescue
p31
I1803
sVdownstream
p32
I208
sVactivation
p33
I856
sVregional
p34
I836
sVpigment
p35
I5299
sV2,514
p36
I4328
sVangioimmunoblastic
p37
I3797
sVovercomes
p38
I4825
sVexperimentally
p39
I4480
sVpycr1
p40
I5265
sVdifferentiated
p41
I3775
sVreceiving
p42
I2561
sVbmsc
p43
I909
sVupa
p44
I2278
sVvector
p45
I2062
sVs100a8
p46
I4159
sVcholesterol
p47
I1936
sVmarkov
p48
I4323
sVasian
p49
I1774
sVuncovers
p50
I737
sVdeath-1
p51
I1316
sVlysosomal
p52
I2785
sVsenescence
p53
I4052
sVtrastuzumab
p54
I5212
sVantioncogenic
p55
I3567
sVhh)/glioma
p56
I3964
sVsecond
p57
I221
sVmets.
p58
I1890
sVsustaining
p59
I3749
sVher2
p60
I1655
sVperiodontitis
p61
I5518
sVsterile
p62
I5608
sVeven
p63
I871
sVcontributed
p64
I2068
sVasia
p65
I4789
sVzfp148
p66
I3252
sVasiv
p67
I4661
sVincreasing
p68
I398
sVcoefficient
p69
I580
sVmeg
p70
I634
sVmef
p71
I3852
sVpresynaptic
p72
I1012
sVmem
p73
I3739
sVnever
p74
I661
sVhere
p75
I228
sV10%
p76
I325
sVreported
p77
I1214
sVdeposition
p78
I4664
sVfeeding
p79
I3667
sVchina
p80
I4996
sVactive
p81
I1483
sV100
p82
I1518
sVlmw
p83
I3495
sVrefractoriness
p84
I3343
sVherv
p85
I972
sVinterpret
p86
I3692
sVpancreas
p87
I1419
sVrecessive
p88
I5259
sVsubstance
p89
I1382
sV2.855.00
p90
I4132
sVsjs
p91
I4006
sVk
I973
sVrecordings
p92
I5154
sVreports
p93
I1349
sVetiology
p94
I3209
sVdbemt
p95
I3241
sVgranulomatosis
p96
I3100
sVcbio
p97
I4381
sVtransfected
p98
I2198
sV2.0627.17
p99
I2914
sVsymmetrical
p100
I1929
sVsuitable
p101
I1627
sVcatalyzed
p102
I2436
sVcontractility
p103
I2296
sVci=8.0
p104
I5451
sVangelman
p105
I3662
sVclassification
p106
I3228
sVpsychological
p107
I1134
sVremnant
p108
I4492
sV65.33%3.64%
p109
I4161
sVcoxsackievirus
p110
I4420
sVunit
p111
I4860
sVderivatives
p112
I4526
sVdna
p113
I1127
sVmortality
p114
I182
sVdni
p115
I1242
sV1.453.82
p116
I4134
sVmusic
p117
I2604
sVtherefore
p118
I2353
sVsurvive
p119
I446
sVcare
p120
I2601
sVtype
p121
I275
sVcomorbid
p122
I1227
sVlungs
p123
I2526
sVpopulations
p124
I1752
sVsuccessful
p125
I3298
sVexpose
p126
I5254
sVhypergastrinemia
p127
I2362
sV1.047
p128
I4207
sVadult
p129
I4676
sVformer
p130
I4155
sVprotozoan
p131
I1126
sV91
p132
I4220
sV90
p133
I811
sV5.19
p134
I3163
sVselex
p135
I5307
sV10-month
p136
I4534
sVintake
p137
I3136
sVsfrp1
p138
I1290
sVroom
p139
I3037
sV2.64
p140
I3046
sVneurons
p141
I783
sVinteraction
p142
I720
sVpremanifest
p143
I4554
sVexample
p144
I2320
sVorganized
p145
I1952
sVinvolve
p146
I2725
sVdendrite
p147
I3084
sVcounseling
p148
I3611
sVvaso
p149
I2927
sVaging
p150
I3523
sVpredictors
p151
I4210
sVelicited
p152
I2321
sVfeature
p153
I34
sVhow
p154
I365
sVsignificance
p155
I2037
sVagglutination
p156
I1721
sVtranslocation
p157
I4757
sVgaming
p158
I4983
sVundergoing
p159
I2149
sVmodulation
p160
I3645
sVmodest
p161
I2168
sVova
p162
I2060
sVinvolvement
p163
I168
sVsummarize
p164
I410
sVtypes
p165
I543
sVbaseline
p166
I1082
sVt2dm
p167
I1787
sVeffective
p168
I1180
sVattracts
p169
I3019
sVorally
p170
I232
sVmiapaca-2
p171
I2772
sVafrica
p172
I521
sVrestriction
p173
I5270
sVfetus
p174
I3831
sVp<0.01
p175
I4275
sVkappab
p176
I2856
sVmicroglia
p177
I1981
sVaffect
p178
I1989
sVresponsive
p179
I4616
sVgastrointestinal
p180
I4089
sVactivating
p181
I1156
sVbefore
p182
I331
sVscoring
p183
I3687
sVsome
p184
I3116
sV10.2
p185
I5452
sV10.5
p186
I3171
sVligand
p187
I1806
sV,
I42
sVand/or
p188
I1423
sVbetter
p189
I2667
sVdifferently
p190
I3655
sVhidden
p191
I2067
sVovercome
p192
I4831
sVzucker
p193
I5269
sVcolorectal
p194
I1106
sVcombination
p195
I371
sVdesmopressin
p196
I2632
sVweakness
p197
I2034
sVatherosclerosis
p198
I2163
sVdisturb
p199
I3042
sVhypoxic
p200
I448
sVhypoxia
p201
I1508
sVtherapy
p202
I987
sVeffects
p203
I140
sVmimicking
p204
I3030
sV1.013.86
p205
I2451
sVcsf-1r
p206
I3768
sVstructural
p207
I2017
sVrepresents
p208
I1451
sVprogression
p209
I407
sVrenditions
p210
I1758
sVspectrometry
p211
I801
sVarrested
p212
I4073
sVnonsmall
p213
I4781
sVhek293
p214
I727
sVendotheliopathy
p215
I1022
sVencephalitis
p216
I2906
sVbone
p217
I759
sVmean
p218
I2545
sVsnu-484
p219
I1559
sVinterruption
p220
I3120
sVhippocampi
p221
I4681
sVapolipoprotein
p222
I53
sVknockout
p223
I4535
sVseries
p224
I5490
sVcardiopulmonary
p225
I4704
sVmda
p226
I5215
sVtrisphosphate
p227
I1216
sVmdd
p228
I4876
sVparasites
p229
I1500
sVused
p230
I379
sVawry
p231
I3114
sVsubstantially
p232
I1298
sVameliorate
p233
I1453
sVextract
p234
I5214
sVborne
p235
I2408
sVrt
p236
I4738
sVrp
p237
I2797
sVbarre
p238
I2416
sVcrucial
p239
I2699
sVsmo
p240
I5305
sVre
p241
I3451
sVunrelated
p242
I3975
sVra
p243
I2179
sVrb
p244
I1542
sVrc
p245
I3927
sVsmc
p246
I405
sVri
p247
I1330
sVturning
p248
I3847
sVlinear
p249
I4725
sVsensory
p250
I1810
sVuniversally
p251
I5050
sVsaha
p252
I4847
sVatl
p253
I2840
sVatm
p254
I886
sVatr
p255
I1817
sVatp
p256
I464
sVsignature
p257
I948
sVncrna
p258
I683
sVfeatures
p259
I17
sVnmdar
p260
I2729
sVgrade
p261
I955
sV17%
p262
I1973
sVvesicoureteral
p263
I1246
sVvitro
p264
I5423
sVthereof
p265
I372
sVchannels
p266
I2097
sVoncogenic
p267
I2289
sVgbms
p268
I962
sVpsoas
p269
I4686
sVspondylitis
p270
I3333
sVseizures
p271
I2338
sVannotated
p272
I4792
sVsimilarly
p273
I3580
sVengagement
p274
I3235
sVil17
p275
I4346
sVneeded
p276
I1702
sVrbps
p277
I5272
sVmaster
p278
I4476
sVglucocorticoid
p279
I4054
sVunderlie
p280
I264
sVmyelomonocytic
p281
I2047
sVdilated
p282
I4481
sVradiation
p283
I2268
sVjapanese
p284
I4027
sVpalsy
p285
I5575
sVpositively
p286
I3648
sVp53
p287
I396
sVdistance
p288
I4635
sVaqp3
p289
I4156
sVshowed
p290
I391
sVnpsle
p291
I5125
sVtransudate
p292
I4226
sVenabled
p293
I4406
sVlikely
p294
I3004
sVimputation
p295
I3140
sVregulator
p296
I4352
sVpneumonia
p297
I121
sVstratified
p298
I4257
sVmicroglial
p299
I297
sVbiochemical
p300
I2967
sVadenomatous
p301
I4649
sVacquisition
p302
I2302
sVmodulating
p303
I1620
sVcubilin
p304
I5394
sVmembranes
p305
I3110
sVmyositis
p306
I4385
sVspectrum
p307
I1205
sVelevating
p308
I1472
sVtranscatheter
p309
I3367
sVchen
p310
I5011
sV\u000a\u000a
p311
I3115
sVseen
p312
I4280
sV5.00
p313
I3167
sV2.78
p314
I3157
sVimplemented
p315
I1104
sVresponsible
p316
I1661
sV2.76
p317
I3161
sVurinalysis
p318
I569
sVrecommended
p319
I1852
sVcausing
p320
I3204
sVdysregulate
p321
I4434
sVworsening
p322
I5266
sV\u000a 
p323
I218
sVigf-1
p324
I1789
sVautoantigens
p325
I4295
sV1xctses
p326
I826
sVipsc
p327
I1025
sVmouth
p328
I3087
sVfiltration
p329
I1402
sVimmunological
p330
I4293
sVobsessive
p331
I4985
sVepisode
p332
I1768
sVobservation
p333
I1015
sVmedical
p334
I4856
sVlps
p335
I1987
sVpoints
p336
I3541
sVkdigo
p337
I4496
sVmmp9/mmp13
p338
I2394
sVincomplete
p339
I5187
sVsignatures
p340
I2099
sVncrnas
p341
I2121
sVsoluble
p342
I3790
sVulcer
p343
I2935
sVparticipate
p344
I4694
sVlethal
p345
I1698
sVungal
p346
I4050
sVexplain
p347
I373
sVkinase
p348
I1703
sVupec
p349
I2212
sVsulfonic
p350
I4656
sVtoll
p351
I2339
sVhematology
p352
I5022
sVpsychiatric
p353
I4769
sVpocket
p354
I3980
sVhyperplasia
p355
I5009
sVexosomes
p356
I1959
sValtogether
p357
I2792
sVcontributes
p358
I4796
sVvulvar
p359
I342
sVrectal
p360
I4339
sVnicely
p361
I3535
sVrescues
p362
I2819
sVnonmutated
p363
I4917
sVintervals
p364
I2576
sVgrp78
p365
I2581
sVrelease
p366
I1220
sVbal
p367
I806
sVlymphohistiocytosis
p368
I2071
sVrespond
p369
I864
sVprecluding
p370
I1425
sVcahon
p371
I5014
sVreference
p372
I5573
sVclarified
p373
I5562
sVsensitivity
p374
I581
sVtesting
p375
I583
sVniche
p376
I3846
sVpr/8/34
p377
I3193
sVdecided
p378
I5015
sVresult
p379
I4490
sVencephalopathy
p380
I2367
sVfail
p381
I3070
sVbest
p382
I2501
sVclarifies
p383
I3583
sVbrazil
p384
I5398
sVoncogene
p385
I3965
sVepithelium
p386
I4061
sVigfbp
p387
I2930
sVnafld
p388
I5412
sVextraterminal
p389
I3672
sVscore
p390
I290
sVtolerance
p391
I4294
sVjaborandi
p392
I688
sVmen
p393
I3214
sVextend
p394
I3502
sV2.754
p395
I5465
sVlymphocyte
p396
I5000
sVvitamin
p397
I2460
sVmek
p398
I4355
sVextent
p399
I5189
sVauroc
p400
I3599
sVsuggested
p401
I789
sVagonist
p402
I2636
sVtriggers
p403
I1980
sVresistant
p404
I226
sVcountry
p405
I4942
sVuncertainty
p406
I3584
sVglycocalyx
p407
I5626
sVagainst
p408
I717
sVupregulate
p409
I271
sVe6-e7
p410
I2200
sVcontribution
p411
I2350
sVgenus
p412
I2844
sVn0m0
p413
I2980
sVpre
p414
I3185
sV25%
p415
I4930
sVretinopathies
p416
I2319
sVinitiative
p417
I966
sVanova
p418
I3958
sVirhom2
p419
I263
sVmultifocal
p420
I4426
sVtargeting
p421
I201
sV3.86
p422
I3169
sVeradication
p423
I3999
sVbasis
p424
I5504
sVregenerate
p425
I4954
sVremained
p426
I5276
sVthree
p427
I1430
sV.
I28
sVegfr-
p428
I4359
sVmuch
p429
I155
sVdetrimental
p430
I3727
sVintegrin
p431
I1714
sVprogenitor
p432
I3356
sVprivilege
p433
I3557
sVfgf(2/13)-
p434
I3339
sVidon
p435
I2801
sVproneural
p436
I3606
sVcub
p437
I5404
sVobese
p438
I3462
sVlife
p439
I2009
sVmcl
p440
I1367
sVmci
p441
I1077
sVrs7528153
p442
I2686
sVsuppress
p443
I1463
sVmcd
p444
I4166
sVdysrhythmia
p445
I4771
sVrelevance
p446
I1863
sVrotarod
p447
I1307
sVchild
p448
I4887
sV163
p449
I3212
sVpgrn
p450
I3405
sVcalcium
p451
I2726
sVnear
p452
I1649
sVsle
p453
I4663
sVmir)-30c
p454
I2312
sVbalance
p455
I375
sVanchor
p456
I4618
sVdemethylation
p457
I3271
sVix
p458
I1720
sVseven
p459
I389
sVplayed
p460
I1393
sVip
p461
I1217
sVis
p462
I31
sVir
p463
I2269
sVit
p464
I480
sVconditioned
p465
I863
sVii
p466
I276
sVreceptor-2
p467
I2855
sVin
p468
I59
sVapnea
p469
I3323
sV1-year
p470
I2518
sVmouse
p471
I1326
sVid
p472
I3970
sV/interferon
p473
I5295
sVif
p474
I2453
sVgrown
p475
I4544
sVabscess
p476
I3308
sVseverity
p477
I710
sVmake
p478
I498
sVpotentially
p479
I3113
sVshowing
p480
I167
sVeuropean
p481
I3940
sVevolve
p482
I447
sVmyocardial
p483
I608
sVdsm-5
p484
I1767
sVdiffering
p485
I4361
sVkit
p486
I2075
sVadenoma
p487
I2457
sVpharmacological
p488
I2606
sVovert
p489
I3579
sVbcas2
p490
I3184
sVsubgroups
p491
I3607
sVprograms
p492
I4243
sVstimuli
p493
I1878
sVacademic
p494
I4884
sVsquamous
p495
I1735
sVmaterials
p496
I5529
sVdrg
p497
I3827
sVquantitative
p498
I4069
sVparadigm
p499
I3668
sVleft
p500
I3138
sVdecreasing
p501
I2736
sVmir-122-igf-1r
p502
I4266
sVidentify
p503
I1278
sVsalivary
p504
I1584
sVhuman
p505
I949
sVyet
p506
I2431
sVprevious
p507
I1001
sVclaudication
p508
I4630
sVatrial
p509
I1437
sVhan
p510
I4030
sVratio=6.86
p511
I2915
sVregarded
p512
I2787
sVhad
p513
I536
sVthickening
p514
I270
sVaffinity
p515
I4452
sVeasy
p516
I2505
sV-induced
p517
I2820
sVallele
p518
I2674
sVhas
p519
I334
sVelevation
p520
I1045
sVsurvival
p521
I253
sVclonal
p522
I2042
sVhypersensitive
p523
I3192
sVpossible
p524
I151
sVpossibly
p525
I2375
sVopg
p526
I5513
sVorthodontic
p527
I5567
sVbirth
p528
I2413
sVgangrene
p529
I4685
sVclustered
p530
I3447
sVposes
p531
I2757
sVoccurring
p532
I4429
sVwardleworth
p533
I687
sVbrought
p534
I1672
sVvdr
p535
I4060
sVocclusion
p536
I767
sVmanual
p537
I1760
sVlymphocytopenia
p538
I2430
sVstaget3b
p539
I3866
sVsystematically
p540
I1681
sVdengue
p541
I4601
sVmalnutrition
p542
I5614
sVmyeloproliferative
p543
I3841
sVrb/h2ax
p544
I5057
sVeaenp
p545
I2345
sVeffusion
p546
I2643
sVbeneficial
p547
I2961
sVold
p548
I1771
sVpeople
p549
I1746
sVnonhematopoietic
p550
I3206
sVfcr
p551
I5074
sVelderly
p552
I376
sVmcf7
p553
I3855
sVparietal
p554
I2359
sValtered
p555
I1386
sVflavivirus
p556
I2409
sVfor
p557
I90
sVopposite
p558
I4988
sVnervosa
p559
I5268
sVsubclass
p560
I4079
sVpi3k)/akt
p561
I2704
sVcontinue
p562
I4707
sVperiphery
p563
I2348
sVreoxygenation
p564
I779
sVunstable
p565
I2625
sVgenotypes
p566
I4846
sVmcf-10a
p567
I2697
sVepigenetic
p568
I2088
sVcodifies
p569
I4877
sVinkt
p570
I3121
sVnecrolysis
p571
I4008
sVcvb3-specific
p572
I5291
sVmetastatic
p573
I3032
sVshifting
p574
I4040
sVsuper
p575
I3904
sVlentiviral
p576
I2061
sVcoinciding
p577
I4345
sVintrapulmonary
p578
I5317
sVpredisposition
p579
I896
sVdisorder
p580
I795
sVadipose
p581
I5224
sVmedulloblastoma
p582
I733
sVastrocyte
p583
I3902
sVvaginal
p584
I4947
sVslightly
p585
I65
sVisoform
p586
I4179
sVbrca1-mutated
p587
I4938
sVleptin
p588
I1455
sVsod
p589
I1039
sVhomogenization
p590
I5570
sVmbd
p591
I3697
sVintellectual
p592
I4297
sVnegative
p593
I360
sVdown
p594
I466
sVdiabetics
p595
I5166
sVjcpyv
p596
I2327
sVreducing
p597
I177
sV1.844.25
p598
I659
sVmethods
p599
I3629
sVnovo
p600
I4893
sVglomerulosclerosis
p601
I5223
sV18-positive
p602
I4973
sVsupport
p603
I743
sVinitial
p604
I4403
sVwidth
p605
I5511
sVfraction
p606
I67
sVresulted
p607
I403
sVtams
p608
I5561
sVmb-231
p609
I5216
sVtherapeutically
p610
I3771
sVform
p611
I1273
sVoffer
p612
I1572
sVforming
p613
I2925
sVanalyse
p614
I874
sVfailure
p615
I1696
sVosteopenia
p616
I3025
sVclinico
p617
I3963
sVblindness
p618
I2111
sV225
p619
I2895
sV222
p620
I5533
sVrenal
p621
I180
sVtraits
p622
I4905
sVarrays
p623
I1476
sVaza
p624
I4924
sVcholangitis
p625
I4643
sVstrongest
p626
I2250
sVeconomic
p627
I1673
sVcomplications
p628
I1645
sVvenules
p629
I2991
sVspecificities
p630
I1751
sVhistology
p631
I3869
sVoriginating
p632
I1624
sV150
p633
I1462
sVproved
p634
I1392
sVneuritis
p635
I2800
sVmelas
p636
I2370
sVproven
p637
I418
sVexist
p638
I3334
sVanthrax
p639
I3452
sVgraft
p640
I2644
sVeffusions
p641
I4215
sVmelanoma
p642
I1321
sVphelan
p643
I797
sVcardiology
p644
I5498
sVgenerally
p645
I4360
sVoestrogen
p646
I2513
sVcomposite
p647
I1604
sVserous
p648
I2139
sVrole
p649
I251
sVdigital
p650
I1346
sV29,797
p651
I3596
sVmri
p652
I2020
sVvariably
p653
I3713
sVmodels
p654
I762
sVdiet
p655
I1454
sValleviated
p656
I2223
sVglucocorticoids
p657
I4401
sVfabry
p658
I1638
sVmeningoencephalomyelitis
p659
I4612
sVtemporality
p660
I4398
sVvariable
p661
I5114
sVtransporter
p662
I1088
sVsphingosine
p663
I4776
sVprogresses
p664
I1178
sVdisruption
p665
I1935
sVdaily
p666
I1132
sVgalectin-3
p667
I171
sVtime
p668
I106
sVurinary
p669
I283
sVchain
p670
I456
sVdissecting
p671
I3489
sVactivated
p672
I2347
sVmild
p673
I1074
sVasymptomatic
p674
I5517
sVskin
p675
I3660
sVosa
p676
I3324
sVderepression
p677
I4925
sVmyelofibrosis
p678
I3387
sVamplification
p679
I5085
sVdepend
p680
I4169
sVdisorders
p681
I37
sVpolyunsaturated
p682
I3657
sVtechnique
p683
I3314
sVparenchyma
p684
I3016
sVrecurrence
p685
I1700
sV0
I3143
sVfinally
p686
I3985
sVligand-1
p687
I3630
sVhepg2
p688
I5315
sVmd
p689
I3735
sVpathologist
p690
I4855
sVadenocarcinomas
p691
I4218
sVexact
p692
I5597
sVdio
p693
I3669
sVdid
p694
I1755
sVdie
p695
I4499
sVunderlain
p696
I3570
sVaugmenting
p697
I4423
sVleave
p698
I3036
sVeosinophilia
p699
I4700
sVepilepticus
p700
I162
sV1128
p701
I3939
sVprevent
p702
I1872
sVunexpected
p703
I1794
sVoccurrence
p704
I2768
sVfindings
p705
I189
sVstec
p706
I5553
sVintronic
p707
I4865
sVprediction
p708
I1277
sVimprinting
p709
I1034
sVfkbp2
p710
I1562
sVbacterial
p711
I935
sVtargets
p712
I209
sVadds
p713
I468
sVcremaster
p714
I2998
sVacidosis
p715
I2094
sVaxes
p716
I2596
sVastroglial
p717
I5183
sVcurrent
p718
I411
sVtnf
p719
I4383
sVh3k27
p720
I3649
sVbrachial
p721
I2679
sVprocessing
p722
I4010
sVblunted
p723
I4760
sVunderstanding
p724
I254
sVisoflavones
p725
I4193
sViarc
p726
I4116
sVsplice
p727
I4245
sVaddress
p728
I2656
sValone
p729
I827
sValong
p730
I2495
sVtachyarrhythmic
p731
I5538
sVbox
p732
I504
sVdiagnoses
p733
I622
sVphosphorylates
p734
I3683
sVstudied
p735
I566
sVcommonly
p736
I2165
sVsomatic
p737
I835
sVineffective
p738
I870
sVthroughput
p739
I4327
sVdiagnosed
p740
I1069
sVbiopsies
p741
I3528
sVhbv
p742
I3276
sVstudies
p743
I247
sVipa
p744
I4763
sVipf
p745
I2232
sVipd
p746
I2486
sVmscs
p747
I2382
sVregeneration
p748
I4874
sVlovo
p749
I4172
sVatp6v1h
p750
I2390
sVips
p751
I2381
sVhnscc
p752
I2277
sVsympathetic
p753
I3919
sVallogeneic
p754
I4235
sVundergone
p755
I537
sVadditive
p756
I2395
sVworking
p757
I4183
sVpositive
p758
I834
sVvisit
p759
I5544
sVanatomical
p760
I4998
sVretinopathy
p761
I4461
sVopposed
p762
I1269
sV31.90%13.31%
p763
I4160
sVresuscitation
p764
I4705
sVtheoretical
p765
I4282
sVplatonin(200
p766
I1296
sVacetylated
p767
I1433
sVapparent
p768
I938
sVantigens
p769
I2108
sVvisual
p770
I1877
sVtandem
p771
I3128
sVdznep
p772
I5631
sVshedding.
p773
I2559
sVsophoridinic
p774
I2765
sVbehalf
p775
I4184
sVpolypeptide
p776
I1512
sVtp53
p777
I1923
sVabcg2
p778
I4195
sVnlrp3
p779
I4761
sVhydrochloride
p780
I1531
sVoriginally
p781
I4459
sVcutaneous
p782
I2841
sVligase
p783
I4879
sVvegf
p784
I395
sVbelieved
p785
I4530
sVrepressing
p786
I3254
sVmultifactorial
p787
I4292
sVpredict
p788
I753
sVmicrobiota
p789
I5178
sVagent
p790
I1373
sVsample
p791
I958
sV1.43
p792
I3288
sVunveiled
p793
I2595
sVallowed
p794
I3437
sVapigenin
p795
I4845
sV231
p796
I4586
sVflavonoids
p797
I4191
sVmonitoring
p798
I2669
sVseptic
p799
I2812
sVstrikingly
p800
I4569
sVimmune
p801
I894
sVccr7/cxcr4
p802
I2921
sVhypersensitivity
p803
I4023
sVoptimal
p804
I3521
sVmicronuclei
p805
I3424
sVparameter
p806
I384
sVpathway
p807
I559
sV146
p808
I1785
sVreassortants
p809
I4457
sV140
p810
I5410
sVmay
p811
I911
sVepidemiologic
p812
I4395
sVspot
p813
I4907
sVexplored
p814
I2938
sVdesigned
p815
I3632
sVsnp
p816
I3043
sVcardiac
p817
I612
sVsuch
p818
I604
sVrevealed
p819
I819
sVtimes
p820
I3048
sVstress
p821
I308
sVnatural
p822
I4097
sVneck
p823
I2276
sVcorrelate
p824
I4250
sVss
p825
I5028
sVsr
p826
I5075
sVovaria
p827
I4229
sVsclerosis
p828
I1100
sVsu
p829
I5106
sVst
p830
I3273
sVsk
p831
I1107
sVsi
p832
I1173
sVsh
p833
I3055
sVso
p834
I2465
sVblock
p835
I3434
sVunleash
p836
I3923
sVsb
p837
I4842
sVpresurgical
p838
I3174
sVhematopoietic
p839
I312
sVibsm
p840
I4824
sVlsd
p841
I5121
sVshrna
p842
I2443
sV80.7
p843
I1969
sVneferine
p844
I4096
sV092
p845
I1711
sVepilepsy
p846
I39
sVdamage
p847
I1128
sVstability
p848
I1903
sVcourse
p849
I1834
sVepisodes
p850
I2369
sVexperiments
p851
I2750
sVunfavorable
p852
I5606
sVobservational
p853
I809
sVadhesive
p854
I2950
sVderive
p855
I3731
sVgroup
p856
I1208
sVmonitor
p857
I2602
sVaplastic
p858
I2079
sVencompasses
p859
I5067
sVsensitizes
p860
I5006
sV939
p861
I4812
sVsuspicion
p862
I3494
sVovariectomized
p863
I2570
sVdecreased
p864
I282
sVmain
p865
I642
sVuptake
p866
I435
sVym-155
p867
I4508
sVchromatin
p868
I2242
sVnsc
p869
I3418
sVthereby
p870
I1879
sVenclave
p871
I4373
sVperioperative
p872
I4688
sVaspirations
p873
I4920
sVlocus
p874
I3490
sVmatched
p875
I572
sVbiomolecular
p876
I3107
sVtroponin
p877
I4753
sV14.2
p878
I631
sVquercetin
p879
I4192
sVproteins
p880
I202
sVrock
p881
I234
sVinstability
p882
I4164
sVquarter
p883
I600
sVpg545
p884
I477
sVhrtv
p885
I2429
sVbreakthrough
p886
I5004
sVowing
p887
I694
sVmethotrexate
p888
I5271
sVoedema
p889
I5623
sVhfmd
p890
I3088
sVhcs
p891
I5525
sVthymoma
p892
I26
sVhct
p893
I3379
sVinterference
p894
I5156
sVp<0.001
p895
I5441
sVhcc
p896
I317
sVinvestigation
p897
I2888
sVtrauma
p898
I606
sVrae1
p899
I2511
sVinternet
p900
I4982
sVsuggesting
p901
I1197
sVcorrect
p902
I2623
sVtransmigration
p903
I2994
sVclustering
p904
I5547
sVearlier
p905
I670
sVcooperatively
p906
I5207
sVmechanisms
p907
I786
sVpossibility
p908
I1404
sVegcg
p909
I4304
sV6-minute
p910
I4633
sVhspc
p911
I3357
sVlipodystrophy
p912
I4897
sVnf-b
p913
I4506
sV5/6nx
p914
I3920
sVmassive
p915
I2614
sVplasminogen
p916
I2273
sVfrequent
p917
I1155
sVfirst
p918
I984
sVromo1
p919
I2640
sVdwelling
p920
I1967
sVreveals
p921
I2310
sVnutritional
p922
I5622
sVparkinson
p923
I2659
sVone
p924
I599
sVspanish
p925
I3012
sVcarry
p926
I4391
sVmethodological
p927
I640
sVopen
p928
I1361
sVeae-
p929
I5551
sVfmri
p930
I2566
sVlittle
p931
I1589
sVgenotype
p932
I343
sVsmoothened
p933
I5304
sVlap
p934
I3593
sVbite
p935
I4828
sVburst
p936
I3698
sVavian
p937
I1266
sVindicate
p938
I1900
sV2
I969
sVadenocarcinoma
p939
I1356
sVnsclc
p940
I1287
sVstructures
p941
I3621
sVanus
p942
I4658
sVeyes
p943
I4730
sVinefficient
p944
I462
sVapoptotic
p945
I1431
sVvav3
p946
I2685
sVvav2
p947
I2675
sVproving
p948
I2125
sVsiha
p949
I4974
sVbetanodavirus
p950
I1665
sVadministered
p951
I233
sVrepresenting
p952
I3363
sV11
p953
I4338
sV10
p954
I3391
sV12
p955
I3145
sV15
p956
I1380
sVctla-4
p957
I4507
sV17
p958
I2972
sV16
p959
I3216
sV19
p960
I3635
sV18
p961
I5479
sV0.871
p962
I3600
sVnsti
p963
I2230
sVprotected
p964
I3292
sV1%
p965
I5172
sVwere
p966
I96
sV.0046
p967
I2978
sVablation
p968
I1648
sVdiastolic
p969
I2680
sVmcao)/1
p970
I768
sVillness
p971
I603
sVsclerosing
p972
I4642
sVsam
p973
I5615
sVhgsoc
p974
I2140
sVsaa
p975
I5552
sVlocations
p976
I3267
sVpubmed
p977
I4187
sVinhibiting
p978
I557
sVmodality
p979
I4290
sVheterotypic
p980
I2990
sVefficient
p981
I501
sVpromotors
p982
I2533
sVmultisystem
p983
I4299
sVpotential
p984
I194
sVtake
p985
I4035
sVperformance
p986
I1308
sVclbalf
p987
I1928
sV200
p988
I3395
sVpain
p989
I2322
sVtrace
p990
I1976
sVnormal
p991
I1071
sVtrack
p992
I4552
sVbetz
p993
I3085
sVincidence
p994
I2762
sVmolecule
p995
I3510
sVtelomere
p996
I565
sVbeta
p997
I2543
sVwm-266
p998
I3132
sVtract
p999
I2297
sVpair
p1000
I3950
sVknee
p1001
I5600
sVhematologist
p1002
I5012
sVinhibitory
p1003
I2473
sVd-12
p1004
I4542
sVchemoradiotherapy
p1005
I2942
sVespecially
p1006
I1089
sVsurprising
p1007
I2326
sVaverage
p1008
I99
sVinfections
p1009
I1238
sVdrive
p1010
I2141
sVparkinsonism
p1011
I2970
sVredirected
p1012
I3444
sVsals
p1013
I3081
sVsalt
p1014
I1688
sVib
p1015
I1719
sVprecise
p1016
I5286
sVobstructive
p1017
I2233
sVwalking
p1018
I4634
sVshow
p1019
I304
sVmerit
p1020
I2585
sVfibrotic
p1021
I2946
sVbtzo-1
p1022
I4521
sVsurgically
p1023
I3364
sVthreshold
p1024
I2433
sVaggressive
p1025
I319
sVdata
p1026
I166
sVsuccinylome
p1027
I2005
sVpathomechanisms
p1028
I1097
sVslow
p1029
I3764
sVn=86
p1030
I4604
sVreadmission
p1031
I4691
sVanalytic
p1032
I5387
sVmaculopapular
p1033
I4024
sVlipids
p1034
I2767
sVduchenne
p1035
I2028
sVsensitivities
p1036
I1750
sVextracellular
p1037
I1631
sVawareness
p1038
I5093
sVhippo
p1039
I558
sVompa2
p1040
I3804
sVhistone
p1041
I1434
sVmorphological
p1042
I4063
sVuninvolved
p1043
I5255
sVhailed
p1044
I5003
sVdistinctly
p1045
I5245
sV-tcr
p1046
I2909
sVmsx1
p1047
I4085
sVcernas
p1048
I3931
sVrecombinant
p1049
I2965
sVsecondary
p1050
I1235
sVpd-1
p1051
I1282
sVparasitic
p1052
I1123
sVmedian
p1053
I4211
sVyield
p1054
I3491
sVsummary
p1055
I735
sVsubtype
p1056
I1265
sVesophageal
p1057
I2715
sV-h2ax
p1058
I2522
sVuncover
p1059
I1588
sVwhere
p1060
I546
sVvision
p1061
I5243
sVmrp1
p1062
I4199
sVattenuated
p1063
I4747
sVj4
p1064
I3512
sVtrem2
p1065
I4364
sVrelative
p1066
I2579
sVsurgery
p1067
I126
sVmibc
p1068
I2183
sVcis
p1069
I3475
sVsatisfying
p1070
I3285
sVatrophic
p1071
I2354
sVcompounds
p1072
I200
sVopscc
p1073
I2859
sVsites
p1074
I825
sVlabel
p1075
I3381
sVvaccines
p1076
I1271
sV0.020
p1077
I1823
sVbehind
p1078
I2529
sVcytoprotective
p1079
I3882
sV0.024
p1080
I355
sV0.026
p1081
I3529
sVaffecting
p1082
I1630
sVacross
p1083
I516
sVdeletions
p1084
I3823
sVparent
p1085
I4886
sVparental
p1086
I143
sVcaag
p1087
I2356
sVscreen
p1088
I2594
sVsuppresses
p1089
I5274
sVkilling
p1090
I3456
sVje
p1091
I4785
sVmultivariable
p1092
I3147
sVcervical
p1093
I378
sVsuppressed
p1094
I3377
sVnondiabetic
p1095
I2756
sVcircumference
p1096
I5618
sVtractable
p1097
I3571
sVmany
p1098
I941
sVaccording
p1099
I424
sVs
I577
sVvulvovaginal
p1100
I2549
sVkdm6b
p1101
I3509
sVexpression
p1102
I191
sVamong
p1103
I1258
sVforecasting
p1104
I499
sVcancer
p1105
I72
sVannual
p1106
I5024
sVrseeg
p1107
I4733
sVanti
p1108
I476
sVexhibits
p1109
I5599
sVarticle
p1110
I2119
sVperpetuating
p1111
I5167
sVadults
p1112
I2252
sVconsidering
p1113
I4059
sVtumour
p1114
I1795
sVlncrna
p1115
I2827
sVnoninfarction
p1116
I5543
sVcapable
p1117
I4622
sVwest
p1118
I520
sVlocally
p1119
I2387
sV1.745
p1120
I5463
sVtdp-43-positive
p1121
I3407
sVcombined
p1122
I1428
sV1.323.14
p1123
I1729
sVbraf-
p1124
I4356
sVestimated
p1125
I1400
sVflavonoid
p1126
I3906
sVenable
p1127
I4829
sVbmd
p1128
I2419
sVformed
p1129
I4137
sVmir-1299
p1130
I3588
sVherc2
p1131
I3659
sVbayesian
p1132
I5546
sVcreb
p1133
I2574
sVthose
p1134
I24
sVjuveniles
p1135
I1679
sVmir-205
p1136
I5162
sVconsultant
p1137
I4854
sVdemethylase
p1138
I3508
sVprofiles
p1139
I3249
sVadipocyte
p1140
I1640
sVsplenomegaly
p1141
I2615
sV158n
p1142
I1254
sVpromising
p1143
I668
sVsituation
p1144
I242
sVhdl
p1145
I2482
sVpeptidebased
p1146
I3807
sVglial
p1147
I4407
sVive
p1148
I5213
sVendothelial
p1149
I1046
sVpahs
p1150
I1141
sVprevalence
p1151
I3524
sVcharacteristics
p1152
I562
sVrad3-related
p1153
I1816
sVmiddle
p1154
I764
sVbron
p1155
I2156
sVambient
p1156
I425
sVscavenger
p1157
I5104
sVprotein
p1158
I505
sVactivity
p1159
I709
sVtechnology
p1160
I680
sVerlotinib
p1161
I1429
sVdebilitating
p1162
I2235
sVremission
p1163
I5497
sVsame
p1164
I1931
sVsurveillance
p1165
I5053
sVprevented
p1166
I1619
sVpaf
p1167
I3255
sVpah
p1168
I5051
sVsubunit
p1169
I1942
sVpan
p1170
I5045
sVbreakdown
p1171
I5239
sVextended
p1172
I4302
sVedged
p1173
I2815
sVgc
p1174
I1962
sVnac
p1175
I3682
sVtwist1
p1176
I4168
sVdka
p1177
I1595
sVstructurally
p1178
I3974
sVbim
p1179
I3997
sVccrcc
p1180
I2314
sVachieving
p1181
I3574
sVtracking
p1182
I2331
sVintermittent
p1183
I4629
sVerk
p1184
I1467
sVallocated
p1185
I5335
sVcelecoxib
p1186
I1897
sV217
p1187
I4752
sVgwas
p1188
I751
sVsulindac
p1189
I1898
sVreconstruction
p1190
I5408
sVbeing
p1191
I2672
sVresp
p1192
I3602
sVrest
p1193
I4628
sVgdd
p1194
I4105
sVmultiplex
p1195
I5571
sVgated
p1196
I2731
sVjak1
p1197
I3385
sVadrenal
p1198
I1598
sVunderling
p1199
I4914
sVketamine
p1200
I3419
sVmacular
p1201
I2109
sVinterstitial
p1202
I1051
sVf]-ge180
p1203
I4943
sV4
I1363
sVprominently
p1204
I4652
sVfunctionality
p1205
I3035
sVextensive
p1206
I3028
sVgenome
p1207
I749
sVgd1
p1208
I5345
sVaspects
p1209
I2968
sVpolymorphonuclear
p1210
I3834
sVproviding
p1211
I4820
sVpbmc
p1212
I2986
sVnsp15
p1213
I4715
sVinhibition
p1214
I1844
sVworld
p1215
I3534
sVhnha
p1216
I4204
sVvgcc
p1217
I2732
sVidentifying
p1218
I1745
sVmalignancy
p1219
I320
sVserves
p1220
I4269
sVeither
p1221
I4961
sVneuronal
p1222
I1303
sVserved
p1223
I5415
sVintestinal
p1224
I2555
sV5010
p1225
I3389
sVclassified
p1226
I3864
sVlearning
p1227
I3515
sVa66
p1228
I3498
sVcatalytic
p1229
I3348
sVcd9
p1230
I4198
sVspecified
p1231
I3679
sVinterleukin
p1232
I2542
sVadenoid
p1233
I1585
sVgeltamo
p1234
I3013
sVdimensions
p1235
I4992
sVconfirm
p1236
I1862
sVstages
p1237
I79
sVextensively
p1238
I3908
sVpathogenesis
p1239
I1050
sVcritical
p1240
I250
sVexpressing
p1241
I2890
sVthalamocortical
p1242
I4770
sVintravenous
p1243
I2131
sVdgla
p1244
I2437
sVpower
p1245
I3603
sVuterine
p1246
I4273
sVindustrialized
p1247
I4600
sVnotable
p1248
I5605
sVnotably
p1249
I787
sVpancytopenia
p1250
I2616
sVratios
p1251
I3227
sVacc
p1252
I3763
sVaca
p1253
I5078
sVacd
p1254
I2155
sV68.8%
p1255
I3400
sVdevelops
p1256
I2171
sVside
p1257
I3776
sVacs
p1258
I5354
sVacr
p1259
I3718
sV84%
p1260
I4872
sVmounting
p1261
I165
sVmixed
p1262
I1761
sVmulticompartment
p1263
I3208
sVstrem2
p1264
I4365
sVwidowed
p1265
I4258
sVtreg
p1266
I4349
sVafforded
p1267
I1161
sVimplantation
p1268
I3774
sVimage
p1269
I5478
sV\u000a
I134
sVstrip
p1270
I4964
sVaccumulated
p1271
I1195
sVvaluable
p1272
I2469
sVbioassays
p1273
I2304
sVhypertrophic
p1274
I5539
sVoesophagus
p1275
I3164
sVbrazilian
p1276
I691
sVoligodendrocyte
p1277
I3898
sVgsdmb
p1278
I5211
sVtyrosine
p1279
I4778
sVplatelets
p1280
I1705
sVpanc-1
p1281
I2716
sVcomplete
p1282
I112
sVsecreted
p1283
I3549
sVstressors
p1284
I1135
sVfollicular
p1285
I5329
sVheptamethine
p1286
I2939
sVfoxo3a
p1287
I3996
sVtechnologies
p1288
I5147
sVmarital
p1289
I4366
sVwith
p1290
I49
sVregimen
p1291
I3991
sVrage
p1292
I5165
sVattenuate
p1293
I3783
sVdoxorubicin
p1294
I4765
sVht-29/b6
p1295
I5294
sVpolymorphisms
p1296
I1826
sV5-year
p1297
I321
sVaa
p1298
I4330
sVac
p1299
I4351
sVae
p1300
I3349
sVad
p1301
I43
sVag
p1302
I4432
sVaf
p1303
I1439
sVai
p1304
I1600
sVkinetics
p1305
I4620
sVal
p1306
I4389
sVdeep
p1307
I2865
sVglucose-6-phosphate
p1308
I1569
sVmdr
p1309
I2638
sVas
p1310
I116
sVar
p1311
I5418
sVhypertension
p1312
I1410
sVat
p1313
I74
sVmaldi
p1314
I1528
sVlaboratory
p1315
I2225
sVlifetime
p1316
I5019
sVsva
p1317
I2622
sVassessing
p1318
I1262
sVakaike
p1319
I3714
sVdrivers
p1320
I5149
sVhybrid
p1321
I2210
sVaromatic
p1322
I1139
sVtight
p1323
I4278
sVprism
p1324
I3566
sVantimicrobial
p1325
I3504
sV5-flurouracil
p1326
I2498
sVmonocyte
p1327
I5282
sVm
I1921
sVa.
p1328
I4561
sVdnd1
p1329
I4555
sV488
p1330
I4567
sVtackle
p1331
I4322
sVnash
p1332
I5413
sVgastric
p1333
I91
sVremote
p1334
I1333
sVcasts
p1335
I1416
sVacids
p1336
I1693
sVhaving
p1337
I1972
sVinhibited
p1338
I1172
sVmass
p1339
I327
sVbehavioral
p1340
I3887
sVdyes
p1341
I1405
sVoral
p1342
I985
sVsplicing
p1343
I3186
sVinfluenza
p1344
I1237
sVconsider
p1345
I2246
sVcaused
p1346
I1124
sVpapilloma
p1347
I4946
sVporcine
p1348
I1468
sVmacroglobulinemia
p1349
I5333
sVexpressions
p1350
I5384
sVparapneumonic
p1351
I4225
sVcauses
p1352
I1471
sVscr
p1353
I4798
sVmir-199a-3p
p1354
I4873
sVcontent
p1355
I695
sVtz
p1356
I5306
sVratio=11.00
p1357
I2881
sVadhesion
p1358
I2144
sVtt
p1359
I920
sVgp
p1360
I3725
sVts
p1361
I5442
sVdiffuse
p1362
I1633
sVpembrolizumab
p1363
I1284
sVto
p1364
I23
sVautosomal
p1365
I4107
sVxenografts
p1366
I2889
sVintravital
p1367
I2988
sVtg
p1368
I4675
sVheterogeneity
p1369
I436
sVtb
p1370
I1749
sVendogenous
p1371
I732
sVdegeneration
p1372
I2033
sVwgs
p1373
I1499
sVfals
p1374
I3080
sVblockade
p1375
I2918
sVmyeloperoxidase
p1376
I3788
sVplce1
p1377
I2714
sVtranscriptome
p1378
I1475
sVfall
p1379
I3092
sVdifference
p1380
I587
sVupregulated
p1381
I2027
sVmicrornas
p1382
I1341
sVcondition
p1383
I892
sVneurological
p1384
I36
sVtropomyosin
p1385
I3210
sVhydronephrosis
p1386
I3865
sVageing
p1387
I4756
sVt2
p1388
I4597
sVapplicable
p1389
I2377
sVphosphorylation
p1390
I1539
sVt1
p1391
I1625
sVlarge
p1392
I245
sVsaudi
p1393
I5038
sVsmall
p1394
I368
sVbiological
p1395
I3686
sVperiodontal
p1396
I3808
sVglioma
p1397
I956
sVbvd
p1398
I4285
sV190
p1399
I5170
sVcerebrovascular
p1400
I1019
sVprevents
p1401
I3122
sVdiscriminated
p1402
I3195
sVnivolumab
p1403
I1283
sV19%
p1404
I1971
sVfurther
p1405
I244
sVhypertrophy
p1406
I4479
sVleukoencephalopathy
p1407
I4427
sVtumorigenicity
p1408
I1344
sVhormonal
p1409
I2862
sV-based
p1410
I2822
sVabi
p1411
I4625
sVhematologic
p1412
I1664
sVghq-12
p1413
I3142
sVgi
p1414
I4090
sVscientists
p1415
I5542
sVongoing
p1416
I5148
sVmethod
p1417
I494
sVcontrast
p1418
I1934
sVcohorts
p1419
I2711
sVfull
p1420
I3930
sVmalaria
p1421
I1503
sVgenotyping
p1422
I1426
sVcomponent
p1423
I2811
sVimmunosuppression
p1424
I4314
sVoperating
p1425
I4233
sVsubclinical
p1426
I2162
sVinvestigating
p1427
I1010
sVpooled
p1428
I4128
sVtransformation
p1429
I1660
sVsearch
p1430
I2466
sVstriatum
p1431
I3470
sVmyelinate
p1432
I3071
sVoscc
p1433
I256
sVexperience
p1434
I4344
sVprior
p1435
I2022
sVsocial
p1436
I1133
sVaction
p1437
I4611
sVtoxicity
p1438
I30
sVpathological
p1439
I2318
sVcystic
p1440
I1586
sVvia
p1441
I414
sVfollowed
p1442
I814
sVmdacc
p1443
I3678
sVegfr
p1444
I1403
sVc5b-9
p1445
I5496
sVc33a
p1446
I4977
sVregimens
p1447
I3482
sVestablish
p1448
I4539
sVdetecting
p1449
I3892
sVselect
p1450
I3641
sVrelaxometry
p1451
I4594
sVeye
p1452
I2650
sVdistinct
p1453
I4177
sVmim#166260
p1454
I4106
sVtwo
p1455
I815
sV0.83
p1456
I588
sVcancerogenesis
p1457
I2208
sV6
I3144
sV0.007
p1458
I3702
sVltbi
p1459
I1743
sVmetformin
p1460
I2845
sV0.002
p1461
I4208
sV0.001
p1462
I1730
sVmore
p1463
I239
sVproliferative
p1464
I3576
sVlymphovascular
p1465
I3871
sVtestes
p1466
I3200
sVsubstances
p1467
I4737
sVrelevant
p1468
I3585
sVchemotherapeutics
p1469
I2861
sVemission
p1470
I441
sVicariside
p1471
I3905
sVtested
p1472
I2896
sV17-estradiol
p1473
I1131
sVparticular
p1474
I214
sVtswv
p1475
I4910
sVatc
p1476
I5234
sV6-member
p1477
I3810
sVanticoagulated
p1478
I1436
sV-methyladenosine
p1479
I3272
sVstrain
p1480
I2903
sVcanavan
p1481
I3752
sVremain
p1482
I3726
sVsudden
p1483
I4298
sVindicating
p1484
I4178
sVprevention
p1485
I2102
sVknocked
p1486
I2442
sVstrategies
p1487
I703
sVmale
p1488
I1456
sVspecialized
p1489
I490
sVdiabetic
p1490
I1593
sVantagonists
p1491
I147
sVcytomatrix
p1492
I5595
sVneglected
p1493
I1122
sVdays
p1494
I3439
sVstates
p1495
I1762
sVunbiased
p1496
I5526
sVnumbers
p1497
I1551
sVmolecularly
p1498
I5094
sVaxis
p1499
I102
sVnarrowly
p1500
I1763
sVinformation
p1501
I1185
sVneovascular
p1502
I5180
sVmapk
p1503
I394
sVcsf
p1504
I5523
sVcsc
p1505
I2286
sVpolyangiitis
p1506
I3101
sVmapp
p1507
I5489
sVcdc42
p1508
I3605
sVm1gas
p1509
I3745
sVcss
p1510
I3751
sVcontinues
p1511
I4646
sVintended
p1512
I3441
sVhemangiogenesis
p1513
I4272
sVvariant
p1514
I3868
sVmapping
p1515
I1626
sVconnectivity
p1516
I4727
sVpropanoate
p1517
I3733
sVbioinformatics
p1518
I2807
sVlanka
p1519
I5198
sVresponse
p1520
I869
sVpdac
p1521
I1357
sVcrystallin
p1522
I3497
sVdispensable
p1523
I4638
sVcox)-catalyzed
p1524
I4020
sVextramedullary
p1525
I3844
sVcoad
p1526
I1188
sVmortem
p1527
I3078
sVimmunosuppressed
p1528
I4430
sVameliorates
p1529
I173
sVpredisposes
p1530
I4021
sVmicropapillary
p1531
I3870
sVpaper
p1532
I1578
sVthrough
p1533
I854
sVtauopathies
p1534
I2969
sVsigns
p1535
I5258
sVnephritis
p1536
I5467
sVsuffer
p1537
I2256
sVgsk3
p1538
I3646
sVits
p1539
I62
sVnfat
p1540
I4248
sV24
p1541
I3403
sV26
p1542
I3983
sVarteries
p1543
I1994
sV20
p1544
I2045
sV22
p1545
I4912
sVtermed
p1546
I2558
sVallo
p1547
I5438
sVgerald
p1548
I4850
sV28
p1549
I1613
sV29
p1550
I1080
sVpct
p1551
I5474
sVmicroenvironment
p1552
I946
sVsymptoms
p1553
I1042
sV2%
p1554
I4839
sVdetected
p1555
I58
sVpci
p1556
I3299
sVmicroscopic
p1557
I570
sVproteomics
p1558
I3130
sVpclo
p1559
I5596
sVpca
p1560
I402
sVki67expression
p1561
I5395
sVfocussed
p1562
I4819
sVgood
p1563
I1063
sVnephrin
p1564
I5222
sVpropose
p1565
I2393
sVpathologically
p1566
I534
sVmales
p1567
I3463
sVwalls
p1568
I5237
sVrank
p1569
I578
sVcompound
p1570
I144
sVcrohn
p1571
I2193
sVassociation
p1572
I338
sValways
p1573
I4259
sVinflammasome
p1574
I4762
sVdedifferentiation
p1575
I2287
sVharbor
p1576
I5113
sVperitumoral
p1577
I4500
sV2a
p1578
I3744
sVbasophils
p1579
I3873
sVfound
p1580
I598
sVpmns
p1581
I3835
sVphysiologically
p1582
I4062
sVstatus
p1583
I161
sVengland
p1584
I4862
sVenergy
p1585
I1448
sVreduce
p1586
I1465
sVidea
p1587
I1061
sV27.6%
p1588
I1786
sVmeasurement
p1589
I4945
sVoperation
p1590
I5434
sVov202
p1591
I3058
sVdeaminase
p1592
I2384
sVstandard
p1593
I4502
sVfts
p1594
I1116
sV20.9
p1595
I5449
sVresearch
p1596
I1917
sVparticipants
p1597
I1068
sVftd
p1598
I2662
sVurgent
p1599
I3947
sVpathophysiological
p1600
I2789
sVevaluation
p1601
I1913
sVoccurs
p1602
I5031
sVprins
p1603
I2829
sVlocalization
p1604
I663
sVprogranulin
p1605
I3404
sV70%80%
p1606
I5287
sVmembers
p1607
I3670
sVairway
p1608
I1682
sVmmd
p1609
I4044
sVschistosomiasis
p1610
I718
sVretained
p1611
I2933
sVxenograft
p1612
I1196
sVheparanase
p1613
I473
sVpfic2
p1614
I1724
sVconducted
p1615
I248
sVparg1
p1616
I2974
sVexhibited
p1617
I1323
sVpyelonephritis
p1618
I1244
sVmajor
p1619
I1312
sVnumber
p1620
I199
sVpreservation
p1621
I4836
sVsunitinib
p1622
I4548
sVutilized
p1623
I3779
sVdone
p1624
I5392
sVapproximately
p1625
I4838
sVpde10a
p1626
I4551
sVunexplained
p1627
I3001
sVjev
p1628
I4786
sVintroduction
p1629
I5521
sVthreatening
p1630
I3644
sVdfs
p1631
I4151
sVregulation
p1632
I255
sVemperipolesis
p1633
I3011
sV185
p1634
I2893
sV76%/68%/84%
p1635
I2932
sVmajority
p1636
I5360
sVmolecular
p1637
I1152
sVobservations
p1638
I2530
sVbrca1
p1639
I5440
sVnci-60
p1640
I2521
sVrelationship
p1641
I1684
sV1.873.74
p1642
I3047
sVcapsular
p1643
I2488
sVmyofibroblasts
p1644
I2947
sVsensitization
p1645
I5098
sVantibodies
p1646
I1281
sVimmediate
p1647
I2600
sVpart
p1648
I853
sVdifferentiate
p1649
I3066
sVparp
p1650
I1112
sVfocusing
p1651
I2336
sVprogenitors
p1652
I4074
sVb
I1364
sVcritically
p1653
I3072
sVaal
p1654
I4557
sVcyclin
p1655
I1543
sVlargely
p1656
I664
sV0.0070.74
p1657
I3701
sVlavage
p1658
I805
sVdetermined
p1659
I1440
sV0.98
p1660
I4377
sVlectin
p1661
I5531
sV86%
p1662
I4835
sV0.015
p1663
I352
sV0.017
p1664
I5466
sVages
p1665
I2148
sVdefect
p1666
I3755
sVp75ntr
p1667
I2204
sVdirect
p1668
I205
sVtertiary
p1669
I2101
sVdendritic
p1670
I2176
sVcategorized
p1671
I3244
sVaged
p1672
I3215
sVpenetrant
p1673
I4311
sVself
p1674
I571
sVonset
p1675
I1614
sValso
p1676
I898
sVinternal
p1677
I2733
sVk6
p1678
I280
sVchanghua
p1679
I3953
sVplay
p1680
I1933
sVendometrioid
p1681
I445
sVbiophysical
p1682
I4881
sVphosphoprotein
p1683
I3802
sVmost
p1684
I187
sVvirus
p1685
I1007
sVsignificant
p1686
I904
sVplays
p1687
I1049
sVmediastinal
p1688
I1606
sVdystrophy
p1689
I2030
sVactionable
p1690
I3893
sVcarcinoembryonic
p1691
I4968
sVelucidating
p1692
I2790
sVccc
p1693
I3547
sVeloreta
p1694
I4728
sVangiopathy
p1695
I1777
sVchorioamnionitis
p1696
I3832
sVraav
p1697
I1798
sVmcdermid
p1698
I798
sVparticularly
p1699
I1997
sVsomewhat
p1700
I2624
sVgold
p1701
I4780
sV1,067
p1702
I4813
sVscattered
p1703
I3009
sVcorresponded
p1704
I5550
sVmalignant
p1705
I2642
sVdnbs
p1706
I5231
sVfine
p1707
I2609
sVfind
p1708
I3197
sVimpact
p1709
I1359
sVindicator
p1710
I2226
sVnervous
p1711
I993
sVdistributed
p1712
I3412
sVenzyme
p1713
I1044
sVcassette
p1714
I1087
sVsymptom
p1715
I3934
sVfactor
p1716
I1146
sV8
I4064
sVintractable
p1717
I5137
sVdependent
p1718
I2107
sVcholera
p1719
I1940
sVcdk11
p1720
I5407
sVbreast
p1721
I71
sVclosely
p1722
I2299
sVuntreated
p1723
I1597
sVinducible
p1724
I4138
sVrfs
p1725
I4692
sVcrp
p1726
I2777
sVcontagious
p1727
I3089
sV0.045
p1728
I2449
sV2.42
p1729
I3158
sVtumors
p1730
I361
sVl02
p1731
I5316
sVremove
p1732
I5071
sVcrc
p1733
I1516
sVrfa
p1734
I2008
sVcommon
p1735
I621
sVlogistic
p1736
I5458
sVjak2
p1737
I3933
sVset
p1738
I959
sVseq
p1739
I818
sV316
p1740
I3956
sVpotent
p1741
I474
sVsex
p1742
I1773
sVcollectively
p1743
I1445
sVmitogen
p1744
I2852
sVgenomic
p1745
I2124
sVanalog
p1746
I2633
sV2.44
p1747
I4129
sVcg200745
p1748
I1083
sVmatter
p1749
I4927
sVguinea
p1750
I1259
sVpositivity
p1751
I2879
sVcurrently
p1752
I2187
sVpd1
p1753
I3642
sVtuberculoid
p1754
I918
sVepidermal
p1755
I2854
sVvascular
p1756
I44
sVmaspin
p1757
I3483
sVmyopathy
p1758
I2366
sVmymensingh
p1759
I5499
sVshank3
p1760
I2586
sVn-3
p1761
I3656
sVcellularity
p1762
I1422
sVavailable
p1763
I1347
sVhippocampus
p1764
I5136
sVresponses
p1765
I929
sVwildtype
p1766
I4621
sVtargeted
p1767
I1181
sVenolase
p1768
I4966
sVlipocalin
p1769
I4049
sVdeath
p1770
I124
sVselectively
p1771
I3455
sVikk
p1772
I5206
sVasthma
p1773
I4417
sV3.4-fold
p1774
I3791
sValters
p1775
I3201
sVftpd-17
p1776
I2973
sVimproved
p1777
I1096
sVreverse
p1778
I1870
sVpdx
p1779
I1521
sVpdw
p1780
I5512
sVpdt
p1781
I4288
sVassociations
p1782
I1757
sVwhole
p1783
I875
sVhealing
p1784
I4632
sVpoint
p1785
I1314
sVdownregulated
p1786
I5208
sVcommunity
p1787
I1966
sVdimensional
p1788
I5253
sVhbv)-related
p1789
I2040
sVagents
p1790
I1311
sVovca432
p1791
I3760
sVzeta
p1792
I2883
sVimprovement
p1793
I3038
sVsuppressing
p1794
I3558
sVexpensive
p1795
I488
sVplatinum
p1796
I5339
sVautophagic
p1797
I2775
sVsplenic
p1798
I860
sVscreened
p1799
I1556
sVmicrofluidic
p1800
I5252
sVinitiation
p1801
I4103
sVrett
p1802
I3181
sVmeeting
p1803
I5025
sVresting
p1804
I2565
sVmodern
p1805
I4816
sVorlistat
p1806
I5593
sVnrm
p1807
I4952
sVradiofrequency
p1808
I2007
sVil-1
p1809
I2249
sVrdw
p1810
I3773
sVgap
p1811
I3486
sVgal
p1812
I784
sVunderstand
p1813
I3248
sVsystematic
p1814
I3432
sVgad
p1815
I3242
sVligands
p1816
I3053
sVbile
p1817
I1687
sVct(desct
p1818
I3554
sVsolid
p1819
I4071
sVreliable
p1820
I2506
sVexpanded
p1821
I5492
sVempirical
p1822
I702
sVcluster
p1823
I3743
sVmedically
p1824
I3175
sVreplaced
p1825
I1770
sVfuc
p1826
I284
sVevaluating
p1827
I4393
sVinvolved
p1828
I1343
sVmanner
p1829
I3353
sVreal
p1830
I4068
sVlarger
p1831
I346
sVhyperactivity
p1832
I2254
sVbinding
p1833
I278
sVocclusive
p1834
I2964
sVimmunomodulatory
p1835
I5049
sVitself
p1836
I2073
sVtriple
p1837
I1176
sVmediating
p1838
I3525
sVunaffected
p1839
I5401
sV16-positive
p1840
I4975
sVfibers
p1841
I3826
sVmigraine
p1842
I2578
sVrheumatism
p1843
I4859
sVjanus
p1844
I3932
sVelevated
p1845
I540
sVshorter
p1846
I5091
sVbenign
p1847
I4194
sV8-nitroguanine
p1848
I4136
sVsubcutaneous
p1849
I4889
sVfibrosis
p1850
I914
sVdevelopment
p1851
I907
sVattenuation
p1852
I2784
sVcomprehensive
p1853
I4971
sVkill
p1854
I2621
sVpalmoplantar
p1855
I269
sVosteoarthritis
p1856
I5601
sVlevels
p1857
I76
sVpurpose
p1858
I755
sVatheroprotector
p1859
I5076
sVinfused
p1860
I4536
sVher2-positive
p1861
I1653
sVfocal
p1862
I2143
sVrecent
p1863
I188
sVampk
p1864
I3268
sVgene
p1865
I219
sVinfertility
p1866
I3205
sV0.58
p1867
I3293
sVaccumulate
p1868
I3438
sVnold
p1869
I4724
sVspent
p1870
I2084
sV64.4%
p1871
I3399
sVregulating
p1872
I2313
sVki-67
p1873
I2979
sVy
I503
sVentry
p1874
I1944
sVcomprise
p1875
I916
sVldd
p1876
I3194
sVhypothesized
p1877
I3710
sVlds
p1878
I3062
sVapoptosis
p1879
I311
sVusing
p1880
I724
sValternative
p1881
I3202
sVdpp4
p1882
I4623
sVinjuries
p1883
I1337
sVcontradicting
p1884
I4950
sVimplicate
p1885
I1867
sVsplenectomy
p1886
I2074
sVtranscriptase
p1887
I3346
sVconclusions
p1888
I4794
sVreactivity
p1889
I5435
sVdc
p1890
I4830
sVsignals
p1891
I866
sVsource
p1892
I4252
sVlocation
p1893
I4736
sVtc83
p1894
I2907
sVdysfunctions
p1895
I5244
sVretinoblastoma
p1896
I1541
sVemergency
p1897
I125
sVlymphocytic
p1898
I3616
sVcouple
p1899
I5128
sVpolycyclic
p1900
I1138
sVsuffering
p1901
I601
sVspermatogenesis
p1902
I3203
sVknock
p1903
I4641
sVmutants
p1904
I4444
sVcognitive
p1905
I1075
sVketoacidosis
p1906
I1594
sVfibroblasts
p1907
I3661
sVflux
p1908
I2782
sVindividuals
p1909
I1815
sVbsep
p1910
I1691
sVerythematosus
p1911
I4698
sVcollective
p1912
I1582
sVamyotrophic
p1913
I1098
sVoften
p1914
I1420
sVmetabolic
p1915
I1537
sVspring
p1916
I3091
sVb.
p1917
I5432
sVautophagy
p1918
I1118
sVb4
p1919
I4645
sV0.721.41
p1920
I649
sVb6
p1921
I5298
sVb7
p1922
I1978
sV1,25(oh)2d3
p1923
I4483
sVb1
p1924
I1544
sVb3
p1925
I4421
sVsmoking
p1926
I654
sVmrsa
p1927
I1395
sVscale
p1928
I3431
sVrbm3
p1929
I3860
sVglycosylation
p1930
I1252
sVpet
p1931
I538
sVaffects
p1932
I2588
sV8-hydroxyoctanoic
p1933
I2434
sVinvade
p1934
I3912
sVbe
p1935
I6
sVpatient
p1936
I1377
sVbb
p1937
I5462
sVbc
p1938
I545
sVbm
p1939
I761
sVbo
p1940
I3858
sVbi
p1941
I5611
sVbt
p1942
I4758
sVbv
p1943
I2548
sVbiomarkers
p1944
I669
sVnasopharyngeal
p1945
I4123
sVrelating
p1946
I2975
sVbx
p1947
I4336
sV30%
p1948
I2046
sVgynecologic
p1949
I2874
sVratio=7.48
p1950
I2913
sVdeserved
p1951
I5144
sVreticulum
p1952
I1222
sVdifferentially
p1953
I4066
sVoptimized
p1954
I1799
sVepitope
p1955
I725
sVconsequently
p1956
I2325
sVcoculture
p1957
I5424
sVinto
p1958
I1151
sVaml-3
p1959
I5632
sVtcpo
p1960
I4627
sVnse
p1961
I4967
sVnsg
p1962
I3989
sVnras-
p1963
I4357
sVmitochondrial
p1964
I454
sVcontroversies
p1965
I3326
sVprimarily
p1966
I4001
sValbuminuria
p1967
I1414
sVpapillomavirus
p1968
I4118
sVpathogenicity
p1969
I3803
sVpathologic
p1970
I2687
sVintracerebroventricularly
p1971
I4537
sVmmp-2
p1972
I2534
sV1.5%
p1973
I5171
sVmmp-9
p1974
I2454
sVspecifically
p1975
I1194
sVinfected
p1976
I524
sVmyoclonus
p1977
I1026
sVprobnp
p1978
I4127
sV:
I98
sVsuppression
p1979
I1896
sVprocedures
p1980
I5308
sVconsiderably
p1981
I2512
sVintraperitoneal
p1982
I4802
sVzikv
p1983
I2406
sVsyndromic
p1984
I4091
sVadjusting
p1985
I423
sVretina
p1986
I5240
sVnotch1
p1987
I2737
sVmechanistic
p1988
I3023
sVapps.
p1989
I2724
sVlink
p1990
I3578
sVline
p1991
I734
sVlinc
p1992
I5603
sVconsiderable
p1993
I2259
sVzika
p1994
I2405
sVdirected
p1995
I2357
sVmycn
p1996
I204
sVblockage
p1997
I5204
sVzhx
p1998
I4471
sVinteractomes
p1999
I1191
sVrnas
p2000
I2002
sVup
p2001
I1016
sVus
p2002
I4041
sVnscs
p2003
I4678
sVum
p2004
I1154
sVpaired
p2005
I3981
sVmature
p2006
I3104
sVrmg1
p2007
I3759
sVloewi
p2008
I4851
sVuc
p2009
I3944
sVbronchopulmonary
p2010
I5176
sVtranscriptional
p2011
I3544
sVezrin
p2012
I5425
sVdefined
p2013
I1211
sVcd44
p2014
I2929
sVinfluence
p2015
I2455
sVcafs
p2016
I4467
sVglobally
p2017
I3311
sVsingle
p2018
I366
sVcure
p2019
I5052
sVserological
p2020
I5175
sVelement-
p2021
I4524
sVdefines
p2022
I2392
sV%
I629
sVpuzzling
p2023
I4469
sVpathologists
p2024
I3691
sVmicheliolide
p2025
I2809
sVmtdna
p2026
I2371
sVpreventing
p2027
I4751
sVadjuvant
p2028
I1841
sVb12
p2029
I2461
sV\u000a\u000a\u000a
p2030
I93
sVb10
p2031
I4145
sV95%
p2032
I592
sVprinciple
p2033
I3890
sVpilocarpine
p2034
I696
sVelements
p2035
I1907
sVly1
p2036
I5109
sVrabies
p2037
I2955
sVviral
p2038
I1671
sV70%
p2039
I5620
sVly8
p2040
I5111
sVlens
p2041
I5221
sVrestoration
p2042
I3761
sVcoagulopathy
p2043
I619
sVanticancer
p2044
I2671
sVworsened
p2045
I2221
sVage
p2046
I1772
sVthrombosis
p2047
I3303
sVrs4678680
p2048
I4994
sVpresenting
p2049
I4230
sV2004
p2050
I5390
sVenrolled
p2051
I1968
sV2008
p2052
I4606
sVags
p2053
I2802
sVenrichment
p2054
I5102
sV-amyloid
p2055
I4253
sVpartial
p2056
I1376
sVillustrates
p2057
I3891
sVtov21
p2058
I3762
sVresults
p2059
I1166
sVexisting
p2060
I5353
sVillustrated
p2061
I4057
sVfungal
p2062
I178
sVerythropoiesis
p2063
I3845
sVamplified
p2064
I3183
sVcenters
p2065
I5397
sVspion
p2066
I2332
sVsubstrates
p2067
I5143
sVradical
p2068
I3925
sVyoung
p2069
I3090
sVeffectors
p2070
I1889
sVoesophageal
p2071
I266
sVatlas
p2072
I957
sVfatal
p2073
I1670
sVgliomas
p2074
I960
sVresources
p2075
I3243
sVdeficit
p2076
I1304
sVmultibacillary
p2077
I5256
sVbv2
p2078
I1986
sV  
p2079
I5559
sVhypomethylating
p2080
I4922
sVassay
p2081
I2508
sVp5cr1
p2082
I5263
sVcyclooxygenase
p2083
I4019
sVphenotypes
p2084
I1685
sVdevelopmentally
p2085
I4072
sVfasudil
p2086
I236
sVvlp
p2087
I1943
sVinfrared
p2088
I1650
sVcategories
p2089
I3719
sVentire
p2090
I348
sVtrk
p2091
I210
sVtransmission
p2092
I991
sVclassifications
p2093
I5047
sVshock
p2094
I509
sVevd
p2095
I515
sVoptica
p2096
I3225
sVmarried
p2097
I4497
sVobesity
p2098
I153
sVneoplasia
p2099
I3098
sVbleeding
p2100
I119
sVantigen
p2101
I2057
sVmaintain
p2102
I4708
sVtumoral
p2103
I5393
sVvideo
p2104
I5152
sVelisa
p2105
I757
sVdepression
p2106
I2010
sVindex
p2107
I328
sViims
p2108
I4384
sVassisted
p2109
I1524
sVexpressed
p2110
I73
sVhereditary
p2111
I881
sVconsistently
p2112
I2217
sVr-18
p2113
I4543
sVcmbs
p2114
I1780
sV3d
p2115
I5250
sVbody
p2116
I326
sVhpv16
p2117
I2199
sVproliferation
p2118
I556
sVled
p2119
I1255
sV-substituted
p2120
I2764
sVrespectively
p2121
I2500
sV1.45
p2122
I3151
sVsink
p2123
I3903
sVothers
p2124
I3977
sVoxidative
p2125
I1888
sVtremor
p2126
I4768
sVneuromyelitis
p2127
I3224
sVphysiology
p2128
I4321
sV39
p2129
I1081
sVepigenetics
p2130
I2857
sVreceive
p2131
I5361
sV32
p2132
I3393
sV31
p2133
I4221
sV30
p2134
I4224
sV37
p2135
I5312
sV35
p2136
I3992
sV34
p2137
I5534
sVresulting
p2138
I2154
sVinsulin
p2139
I2849
sV3-
p2140
I3190
sVctc
p2141
I5146
sVimplement
p2142
I2015
sV1.42
p2143
I3170
sVhonor
p2144
I5016
sVinvolves
p2145
I5301
sVcomposed
p2146
I2688
sVnamed
p2147
I131
sV67.0
p2148
I5068
sVimpulsivity
p2149
I4990
sVoutcomes
p2150
I85
sVoverestimating
p2151
I4799
sVdecrease
p2152
I3658
sVlimb
p2153
I2116
sVtools
p2154
I2376
sVcausal
p2155
I2126
sVlime
p2156
I5399
sVconfidence
p2157
I647
sVtdp
p2158
I3410
sVchd
p2159
I2477
sVanticoagulation
p2160
I5116
sVnext
p2161
I3317
sVemerges
p2162
I4267
sVscreening
p2163
I259
sVcomparison
p2164
I567
sVattenuates
p2165
I2949
sVpfs
p2166
I4181
sVpin1
p2167
I738
sViii
p2168
I56
sVtccc3
p2169
I3454
sVresection
p2170
I110
sVaccount
p2171
I1887
sVanimals
p2172
I2092
sVf
I433
sVthis
p2173
I169
sVchallenge
p2174
I2524
sVhexanucleotide
p2175
I4866
sVphosphoinositide-3
p2176
I2703
sVurethral
p2177
I2290
sVprompts
p2178
I3263
sV1.48
p2179
I3150
sVbrd4
p2180
I1492
sV1.47
p2181
I3162
sVbrd2
p2182
I3674
sVbrd3
p2183
I3675
sVe.g.
p2184
I152
sVdesorption
p2185
I1526
sVprocess
p2186
I671
sVpelvic
p2187
I5487
sVloci
p2188
I974
sVpurinergic
p2189
I5325
sVhigh
p2190
I288
sVeffectively
p2191
I3207
sVbones
p2192
I2159
sVnative
p2193
I3300
sVlysine
p2194
I2004
sVtumor
p2195
I15
sVeducational
p2196
I4238
sVheg2
p2197
I5217
sVdestroying
p2198
I2266
sVregions
p2199
I824
sVlamp
p2200
I492
sVattachment
p2201
I2142
sVanimal
p2202
I2721
sVestablishment
p2203
I2504
sVadynamic
p2204
I3696
sVrelapsing
p2205
I1484
sVblocks
p2206
I1712
sVurological
p2207
I1699
sVcd34
p2208
I3355
sVleukemia
p2209
I1275
sVnpc
p2210
I1566
sVleukemic
p2211
I3362
sVhs746
p2212
I2803
sVpigs
p2213
I1260
sVdemonstrating
p2214
I2698
sVmultiplication
p2215
I925
sVhemostatic
p2216
I617
sVmarrow
p2217
I2054
sVkurunegala
p2218
I5195
sVprostate
p2219
I291
sVnps
p2220
I4306
sVefficiently
p2221
I2958
sVoverexpression
p2222
I1291
sVintraepithelial
p2223
I3097
sVbind
p2224
I4176
sVcounter
p2225
I867
sVlines
p2226
I1119
sVsynthase
p2227
I2472
sVsorafenib
p2228
I4205
sVp=0.036
p2229
I4265
sVp=0.033
p2230
I903
sV8-hydroxyguanosine
p2231
I4135
sVallow
p2232
I934
sVaddiction
p2233
I1384
sVp=0.038
p2234
I5454
sVsimilarities
p2235
I4609
sVvaccinated
p2236
I3095
sVinsight
p2237
I1554
sVtranscriptionally
p2238
I4475
sVgestational
p2239
I2744
sVlg
p2240
I4045
sVlc
p2241
I3448
sVrabv
p2242
I2953
sVchosen
p2243
I1164
sVchemotherapeutic
p2244
I3342
sVhypothesize
p2245
I3922
sVvaries
p2246
I4031
sVlabor
p2247
I3838
sVmellitus
p2248
I1616
sV2015
p2249
I5023
sVderivative
p2250
I129
sV2016
p2251
I4188
sVsuppressor
p2252
I2239
sV<
I324
sV2013
p2253
I4607
sVforest
p2254
I2515
sVjunction
p2255
I4667
sVdescriptive
p2256
I5386
sVdisrupted
p2257
I4885
sVsynaptic
p2258
I792
sVflail
p2259
I5582
sVhallmarks
p2260
I512
sVidentified
p2261
I1865
sVcorrelative
p2262
I5320
sVl1
p2263
I3631
sVaccompanied
p2264
I1385
sVidentifies
p2265
I2983
sVsubset
p2266
I2103
sVmets
p2267
I1884
sVpleurisy
p2268
I4223
sVunresectable
p2269
I2943
sVprogrammed
p2270
I1315
sVdeficiency
p2271
I172
sVnpc1
p2272
I3112
sVfrequency
p2273
I217
sVintrinsic
p2274
I1239
sVthirteen
p2275
I3446
sVeqtls
p2276
I3476
sVprogrammes
p2277
I4239
sVsexual
p2278
I5080
sVvacuoles
p2279
I2776
sVleukocyturia
p2280
I5609
sVautoimmunity
p2281
I4004
sVmediates
p2282
I3770
sVmatrix
p2283
I1523
sVborderline
p2284
I4375
sVemt
p2285
I1846
sVmediated
p2286
I851
sVmotifs
p2287
I3041
sVadaptive
p2288
I4639
sVred
p2289
I2077
sVprogressing
p2290
I1748
sVinteractions
p2291
I2951
sVretrieved
p2292
I4379
sVcolorectum
p2293
I3154
sVnpcs
p2294
I4679
sVclarify
p2295
I4140
sVapproaches
p2296
I641
sVcollection
p2297
I3449
sVregulatory
p2298
I868
sVintegrating
p2299
I3935
sVpdl1
p2300
I3640
sVcould
p2301
I1261
sVcompulsive
p2302
I4986
sV's
p2303
I383
sVdavid
p2304
I3237
sVlength
p2305
I100
sVassumed
p2306
I5238
sVstimulate
p2307
I3280
sVsouth
p2308
I4028
sVarterial
p2309
I3368
sVsacc
p2310
I1587
sVwt1
p2311
I4173
sVthird
p2312
I2911
sVcollagen
p2313
I1496
sVstrategic
p2314
I4509
sVihc
p2315
I3693
sVihd
p2316
I5468
sVnstemi
p2317
I5371
sVchemotoxic
p2318
I3888
sVsystem
p2319
I994
sVrealistically
p2320
I240
sVintermediate
p2321
I78
sVperipheral
p2322
I1481
sVscans
p2323
I539
sVintegrins
p2324
I2136
sVstomach
p2325
I2934
sVmethyl--cyclodextrin
p2326
I1937
sV2xctses
p2327
I830
sVcompleted
p2328
I3401
sVsecretion
p2329
I1692
sVhct-116
p2330
I1680
sValterations
p2331
I2298
sVenvironmental
p2332
I1136
sVrecurrences
p2333
I3765
sVt4a
p2334
I3867
sVlymphangiogenesis
p2335
I4271
sVobserved
p2336
I906
sVtransduced
p2337
I2380
sVfrontotemporal
p2338
I2661
sVmir-548b-5p
p2339
I3590
sVexcitotoxicity
p2340
I850
sVinversely
p2341
I2701
sVassays
p2342
I4742
sVnegatively
p2343
I1494
sVpertussis
p2344
I2344
sVmethicillin
p2345
I1394
sVhave
p2346
I148
sV.0345
p2347
I2982
sVdementia
p2348
I41
sVapparently
p2349
I4870
sVclearly
p2350
I1790
sVoverexpressing
p2351
I4202
sVpreterm
p2352
I3837
sVfemoral
p2353
I1993
sVstudying
p2354
I3848
sVmid
p2355
I5617
sVmechanism
p2356
I1808
sVmif
p2357
I4522
sV321
p2358
I5084
sVck2
p2359
I3913
sVkorean
p2360
I4995
sVmir
p2361
I3312
sV1.34
p2362
I3166
sV1.36
p2363
I5591
sVaccuracy
p2364
I589
sVworldwide
p2365
I2464
sVco-1
p2366
I1108
sVproinflammatory
p2367
I5033
sVuseful
p2368
I1355
sVeight
p2369
I947
sVpreliminary
p2370
I1288
sVsegment
p2371
I4562
sVsubsequently
p2372
I2185
sVdorsal
p2373
I4545
sVa3243
p2374
I2372
sVckd
p2375
I1398
sVaffymetrix
p2376
I1474
sVdisease
p2377
I122
sVface
p2378
I4013
sVikaros
p2379
I4932
sVfact
p2380
I1596
sVselection
p2381
I1574
sVsurvived
p2382
I3371
sVtext
p2383
I1348
sVcd20
p2384
I2832
sVclones
p2385
I3619
sVinflammations
p2386
I3723
sVcyclase
p2387
I4342
sVmice
p2388
I996
sVtrefoil
p2389
I5293
sVknowledge
p2390
I2502
sVjaw
p2391
I2129
sVmalabsorption
p2392
I2463
sVnephrectomy
p2393
I4489
sVcontrols
p2394
I1954
sVshould
p2395
I5
sVterminal
p2396
I2851
sVentities
p2397
I4307
sVoct-4
p2398
I4196
sVmolecules
p2399
I1558
sVrge
p2400
I1905
sVinferior
p2401
I1279
sVregularly
p2402
I662
sVcvb3-induced
p2403
I4422
sVbiogenesis
p2404
I3530
sVcrosstalk
p2405
I2000
sVpeptide
p2406
I2066
sVgemcitabine
p2407
I1085
sVlobe
p2408
I5138
sVneuroimaging
p2409
I965
sVpathophysiology
p2410
I1213
sVbeam
p2411
I5476
sVfamilial
p2412
I1722
sVextraplacental
p2413
I3829
sVpreclinical
p2414
I223
sVfak)-dependent
p2415
I2145
sVfollowing
p2416
I94
sVcerebrospinal
p2417
I5522
sVdeterminants
p2418
I2418
sVdensities
p2419
I3413
sVorgan
p2420
I1336
sVedaravone
p2421
I5103
sVh
I763
sVgbm
p2422
I1189
sVcomprising
p2423
I4894
sVgbs
p2424
I3840
sV1.382.55
p2425
I656
sVfavoring
p2426
I4929
sVdkr-1051
p2427
I3052
sVuromodulin
p2428
I1821
sVenhances
p2429
I309
sVcorrelations
p2430
I4147
sVadriamycin
p2431
I2693
sVjnk
p2432
I1446
sVintensity
p2433
I1977
sVenhanced
p2434
I1084
sVddrgk1
p2435
I306
sVqtl
p2436
I3478
sViecs
p2437
I2556
sV139
p2438
I5560
sVmidline
p2439
I5063
sVphases
p2440
I225
sVhemolytic
p2441
I5376
sVinteracting
p2442
I1557
sVccrf
p2443
I2398
sVnuclear
p2444
I560
sVcarcinomas
p2445
I4219
sVproof
p2446
I3889
sVmembrane
p2447
I4308
sVends
p2448
I4989
sVleukodystrophy
p2449
I3753
sVlesion
p2450
I103
sVshanghai
p2451
I3638
sVimpairments
p2452
I2257
sVdorfman
p2453
I3008
sVketo
p2454
I4142
sV-2,6
p2455
I4453
sVdeficits
p2456
I4312
sVattributed
p2457
I4662
sVtransplantation
p2458
I2597
sVpredispose
p2459
I3426
sVccr7
p2460
I2875
sVplacebo
p2461
I4399
sVll
p2462
I927
sVchest
p2463
I5507
sVdetailed
p2464
I800
sVadjusted
p2465
I643
sVinflammatory
p2466
I626
sVco
p2467
I730
sVcm
p2468
I910
sVconclude
p2469
I4276
sVcc
p2470
I2870
sVinvasive
p2471
I409
sVca
p2472
I1219
sVcg
p2473
I4800
sVsy5y
p2474
I3861
sVce
p2475
I1062
sVcd
p2476
I1805
sVataxia
p2477
I888
sVcr
p2478
I115
sVcq
p2479
I2510
sVcu
p2480
I4960
sVct
p2481
I444
sV8.2
p2482
I1970
sV8.6
p2483
I3231
sVcopies
p2484
I885
sVgenetic
p2485
I879
sVcontralateral
p2486
I5400
sVcompensating
p2487
I3440
sVutilizing
p2488
I2520
sVfudan
p2489
I3636
sV>
I2049
sVarises
p2490
I1948
sVadipokine
p2491
I1639
sVcop
p2492
I1461
sVlocalising
p2493
I4997
sVild
p2494
I4404
sVlge
p2495
I5537
sVbulk
p2496
I5115
sVmcf-7/adr
p2497
I2695
sVldlr
p2498
I5072
sVhypothesised
p2499
I2817
sV2014
p2500
I5391
sVc3
p2501
I4249
sVbulb
p2502
I5219
sVc1
p2503
I3111
sVan
p2504
I318
sVmulti
p2505
I4902
sVhepatocellular
p2506
I315
sVlaser
p2507
I1525
sVimmunoprecipitation
p2508
I5139
sVhfos
p2509
I637
sVmicrosatellite
p2510
I4163
sVappearance
p2511
I11
sVexamine
p2512
I3772
sVpromoter
p2513
I563
sVrbp
p2514
I3800
sVderegulation
p2515
I220
sVpromoted
p2516
I554
sVensuing
p2517
I2291
sVcvd
p2518
I2182
sV2012
p2519
I2898
sVsirna
p2520
I3853
sVkoreans
p2521
I4029
sVu87mg.egfr
p2522
I2403
sValmost
p2523
I2069
sVvl
p2524
I862
sVsite
p2525
I1253
sVconditioning
p2526
I5436
sVvs
p2527
I882
sVaggressiveness
p2528
I3506
sVpartner
p2529
I279
sVregression
p2530
I2444
sVgreater
p2531
I335
sVcerna
p2532
I3937
sVcohort
p2533
I349
sVfabp
p2534
I1643
sVcortices
p2535
I3077
sVadministration
p2536
I1460
sVperivascular
p2537
I1052
sVcjd
p2538
I2665
sVcoronary
p2539
I2475
sVinfarction
p2540
I609
sVlengthening
p2541
I3352
sVoutbreak
p2542
I523
sVmrp3
p2543
I1093
sVmrp4
p2544
I1094
sVconflicting
p2545
I2544
sVkrox20
p2546
I3068
sVfna
p2547
I4921
sVbalf
p2548
I1912
sVupon
p2549
I2523
sVbalb
p2550
I1457
sVcensoring
p2551
I3139
sVion
p2552
I2096
sVproteome
p2553
I802
sVexpand
p2554
I665
sVdiabetes
p2555
I1615
sVofc
p2556
I3465
sVconcordance
p2557
I1065
sVargue
p2558
I3560
sVoff
p2559
I5186
sVcenter
p2560
I1617
sVneural
p2561
I2568
sVlepromatous
p2562
I926
sVlrinec)-score
p2563
I2229
sVthought
p2564
I2487
sVpatterns
p2565
I1387
sV1.29
p2566
I3159
sVsgc7901
p2567
I4711
sVautocrine
p2568
I3335
sV1.23
p2569
I3152
sV1.21
p2570
I3156
sVmuscle
p2571
I2032
sV1.27
p2572
I3044
sVsubgroup
p2573
I4939
sVstores
p2574
I2734
sVimmortalized
p2575
I3351
sVless
p2576
I1413
sVstorage
p2577
I5120
sVfront
p2578
I1583
sVclinic
p2579
I2710
sVunderlying
p2580
I785
sVvoltage
p2581
I2730
sVpredicts
p2582
I5428
sVstreptokinase
p2583
I3740
sVyears
p2584
I816
sVlocalize
p2585
I3622
sVhiv)/hepatitis
p2586
I1828
sVadr
p2587
I2694
sVfield
p2588
I496
sVectopic
p2589
I3031
sVarrest
p2590
I613
sVnirf
p2591
I1192
sVadc
p2592
I5607
sVtests
p2593
I1739
sVincreased
p2594
I64
sVincreases
p2595
I2284
sVfive
p2596
I3005
sVatrophy
p2597
I3709
sVtick
p2598
I2424
sV2]]~~
p2599
I27
sVplacenta
p2600
I4764
sVmho
p2601
I5284
sVincompletely
p2602
I1686
sVsuccess
p2603
I1310
sVmyocarditis
p2604
I1632
sVaccelerating
p2605
I4460
sVparasite
p2606
I2612
sVp=0.011
p2607
I5446
sVmir-9
p2608
I3460
sVp=0.015
p2609
I5445
sVctcf
p2610
I821
sVp=0.016
p2611
I5443
sVmhv
p2612
I4718
sVbecome
p2613
I1843
sVneutrophils
p2614
I1704
sVsoft
p2615
I5029
sVtherapeutic
p2616
I230
sVbifidobacterial
p2617
I2552
sVindications
p2618
I4340
sVmaternally
p2619
I1031
sVinfiltrates
p2620
I3026
sVclassical
p2621
I1608
sVunderwent
p2622
I1409
sVr388p
p2623
I4891
sVtamr
p2624
I5058
sVhemagglutinin
p2625
I4450
sVaeds
p2626
I196
sV253
p2627
I5433
sVproper
p2628
I1037
sVrecognition
p2629
I1038
sV0.28
p2630
I5585
sVtmv
p2631
I2307
sV0.27
p2632
I3295
sV0.22
p2633
I5590
sVmeier
p2634
I4443
sVdeacetylase
p2635
I2532
sVtmb
p2636
I3784
sVdoes
p2637
I486
sVbiology
p2638
I1153
sVlipid
p2639
I3060
sVmacrophages
p2640
I861
sVvertex
p2641
I5429
sVhemodialysis
p2642
I2150
sVpressure
p2643
I2681
sVhost
p2644
I2646
sVsimplex
p2645
I1006
sVaitl
p2646
I3798
sVabdominal
p2647
I3652
sVdcs
p2648
I2055
sVvs.
p2649
I2894
sVstage
p2650
I70
sVcd1d
p2651
I5073
sVlifestyle
p2652
I3609
sVpacap
p2653
I4343
sVanaplastic
p2654
I5233
sVimportant
p2655
I690
sVmg132
p2656
I4848
sVcurative
p2657
I114
sVpredictor
p2658
I4301
sVrevise
p2659
I451
sVstratification
p2660
I1442
sVfunctional
p2661
I386
sVdataset
p2662
I3604
sVassess
p2663
I363
sVchronic
p2664
I1018
sVcancerous
p2665
I1908
sVlung
p2666
I14
sVproteinuria
p2667
I1832
sVfemale
p2668
I2569
sVprotozoa
p2669
I2843
sVmilieu
p2670
I449
sVadni
p2671
I967
sVlarvae
p2672
I1678
sVimmunotherapy
p2673
I1272
sVpolycythemic
p2674
I2082
sVpolycythemia
p2675
I2086
sVtrigger
p2676
I4696
sVanthropometry
p2677
I5612
sVvenezuelan
p2678
I2904
sVspecimens
p2679
I3366
sV9.1
p2680
I5450
sVrcc
p2681
I1697
sVfunction
p2682
I192
sValcoholic
p2683
I3281
sVinterest
p2684
I3020
sVbasic
p2685
I1882
sVbut
p2686
I21
sVknockdown
p2687
I2493
sVconstruction
p2688
I2956
sVharony
p2689
I4386
sVediting
p2690
I2123
sVintermediate-
p2691
I3386
sVpartially
p2692
I2705
sVcount
p2693
I3388
sVevident
p2694
I5419
sVsociety
p2695
I3688
sVj
I3801
sVsmooth
p2696
I2294
sValdh1
p2697
I4197
sVformalized
p2698
I5370
sVexcitement
p2699
I5145
sVmeta
p2700
I4957
sVneurocognitive
p2701
I4993
sVdistribution
p2702
I5510
sVbearing
p2703
I1654
sVpil
p2704
I697
sVdeaths
p2705
I2708
sVcytarabine
p2706
I4701
sVrecognize
p2707
I3608
sVcontribute
p2708
I1294
sVdissemination
p2709
I936
sVs-100
p2710
I3010
sVtransfused
p2711
I5378
sVconfounding
p2712
I4372
sVepithelial
p2713
I1845
sV83
p2714
I2866
sVhematological
p2715
I3949
sVcpg
p2716
I3179
sVpit
p2717
I3
sVautism
p2718
I1204
sVcompared
p2719
I142
sVefficacy
p2720
I3382
sV48
p2721
I1078
sVnonetheless
p2722
I4619
sV46
p2723
I1073
sVtrials
p2724
I2948
sV45
p2725
I3392
sV42
p2726
I4047
sVhpv
p2727
I359
sV40
p2728
I4549
sVpreconditioning
p2729
I2479
sV4%
p2730
I4316
sVpredominant
p2731
I5331
sVcategory
p2732
I3896
sVtransfection
p2733
I1175
sVrepeat
p2734
I4867
sVneuroblastoma
p2735
I203
sVresembles
p2736
I4255
sVvariation
p2737
I2630
sVchk1
p2738
I3850
sVidiopathic
p2739
I2231
sVvein
p2740
I4463
sVcarcinogenic
p2741
I4115
sVpharmacologic
p2742
I5155
sVprevalent
p2743
I3375
sVstarting
p2744
I237
sVimmunocompetent
p2745
I1552
sV1363
p2746
I2658
sVaugmented
p2747
I5292
sVlimited
p2748
I1421
sV50.0%
p2749
I3398
sVrepresent
p2750
I3189
sVhypercholesterolemia
p2751
I5055
sVlacrimal
p2752
I2654
sVparacrine
p2753
I3336
sVfacilities
p2754
I5357
sVdysplasia
p2755
I3096
sVsleep
p2756
I3322
sVcontroversial
p2757
I1784
sVevolving
p2758
I4289
sVintegrity
p2759
I3886
sVcytokines
p2760
I5130
sVpoorly
p2761
I2112
sVrelationships
p2762
I4189
sV1.15
p2763
I4378
sVbrg1
p2764
I4918
sV1.13
p2765
I1736
sVphysiological
p2766
I3187
sVoverexpress
p2767
I2439
sVpth
p2768
I3695
sV1.18
p2769
I3149
sVrvvi
p2770
I2547
sVlsds
p2771
I5123
sVunder
p2772
I495
sVontological
p2773
I2023
sVdivergent
p2774
I2491
sVrisk
p2775
I336
sVrise
p2776
I1621
sVreplication
p2777
I932
sVevery
p2778
I4790
sVjacob
p2779
I2664
sVvastly
p2780
I3568
sVj4-mediated
p2781
I5005
sVperoxidation
p2782
I2438
sVanemia
p2783
I2080
sVcml
p2784
I1276
sVs5a
p2785
I3982
sVcause
p2786
I1332
sVcmd
p2787
I4896
sVrelentlessly
p2788
I2611
sVroadblock
p2789
I1791
sVguiding
p2790
I2468
sVindices
p2791
I1886
sVtnf-
p2792
I2814
sVsw-1990).these
p2793
I2717
sV8,645
p2794
I4331
sVinfancy
p2795
I2188
sVmortalin
p2796
I4201
sVconsistent
p2797
I625
sVguidelines
p2798
I2901
sVtlx1
p2799
I4080
sVtlx3
p2800
I4081
sVsurrounding
p2801
I3830
sVki67
p2802
I5383
sVlymphoblastic
p2803
I2880
sVbronchoalveolar
p2804
I804
sVspontaneously
p2805
I4979
sVestablished
p2806
I527
sVchemoprotective
p2807
I4610
sVclinicians
p2808
I5541
sVworsen
p2809
I1601
sV+
I1379
sVselected
p2810
I2824
sVirinotecan
p2811
I5340
sVchildren
p2812
I1592
sVbipolar
p2813
I1765
sVintrahepatic
p2814
I1723
sVscs
p2815
I3067
sVestablishes
p2816
I951
sVconduct
p2817
I632
sVphotodynamic
p2818
I4287
sVfrizzled
p2819
I3550
sVconsisting
p2820
I810
sVaih
p2821
I4291
sVcathepsin
p2822
I2786
sVsimultaneously
p2823
I831
sVgefitinib
p2824
I4779
sVresidual
p2825
I5088
sVionization
p2826
I1527
sVprotection
p2827
I1573
sVobtained
p2828
I1418
sVgli
p2829
I3967
sVapical
p2830
I3083
sVstudy
p2831
I81
sVquiescent
p2832
I4053
sVakt
p2833
I1160
sVaki
p2834
I2897
sVtgf-1-induced
p2835
I1871
sVstressed
p2836
I2220
sVxerostomia
p2837
I701
sVhsulf-1
p2838
I3057
sVchanges
p2839
I1538
sVdiameter
p2840
I4564
sV2-fold
p2841
I4067
sVvp1
p2842
I5288
sVmodulates
p2843
I3278
sVpc12
p2844
I4959
sVhighly
p2845
I1226
sVmodulated
p2846
I3995
sVsocioeconomic
p2847
I3134
sVtotal
p2848
I1184
sVbrb
p2849
I5241
sVhtert
p2850
I3347
sVwould
p2851
I481
sVhospital
p2852
I2779
sValkaloid
p2853
I698
sVsr3306
p2854
I3664
sVmediate
p2855
I5164
sVm1
p2856
I3748
sVredox
p2857
I1883
sVm2
p2858
I1713
sVassessment
p2859
I4689
sV2,4,6-trinitrobenzene
p2860
I4655
sVfractions
p2861
I61
sVogd)/24
p2862
I778
sVapc
p2863
I4648
sVnkl
p2864
I4078
sVaward
p2865
I5021
sVt160a
p2866
I1250
sVnfatc3
p2867
I708
sVecfcs
p2868
I2926
sViv
p2869
I5342
sVblocking
p2870
I1280
sVsupplemental
p2871
I1345
sVmust
p2872
I450
sVabundance
p2873
I3458
sVreceptor-1
p2874
I4486
sVmg
p2875
I299
sVma
p2876
I4405
sV1997
p2877
I2834
sVmm
p2878
I4513
sVml
p2879
I4214
sVwork
p2880
I156
sVphosphorylated
p2881
I3623
sVneoangiogenic
p2882
I5179
sVmammalian
p2883
I2847
sVmt
p2884
I2605
sVoxide
p2885
I2963
sVdeficiencies
p2886
I895
sVms
p2887
I988
sVccp5
p2888
I3828
sValdh1a1
p2889
I4608
sVccp1
p2890
I3809
sVtelomerase
p2891
I3345
sVencephalomyelitis
p2892
I999
sV2.80
p2893
I658
sVunilateral
p2894
I1533
sVindicated
p2895
I1167
sVindicates
p2896
I2324
sVvalidated
p2897
I721
sVmpc
p2898
I4227
sVendometrial
p2899
I332
sVend
p2900
I300
sVrecovery
p2901
I4494
sVprovide
p2902
I1792
sVniemann
p2903
I1564
sVrecovers
p2904
I1011
sVvery
p2905
I4587
sVlesions
p2906
I630
sVtoxin
p2907
I1941
sVadjacent
p2908
I2692
sVhbcatc
p2909
I837
sVtoxic
p2910
I4007
sVhbcatm
p2911
I844
sVmpm
p2912
I3321
sVdescription
p2913
I3433
sVarthritis
p2914
I2178
sVcontaining
p2915
I2133
sVcox-2
p2916
I2440
sVpolymerase
p2917
I4148
sVradiomics
p2918
I5471
sVlrrc2
p2919
I4472
sVarcl
p2920
I5262
sVlumb
p2921
I979
sVluma
p2922
I978
sVvera
p2923
I2087
sVelusive
p2924
I3724
sVcytogenetics
p2925
I2869
sVoncomine
p2926
I3816
sVultimately
p2927
I2617
sV0.879
p2928
I3601
sVhypotheses
p2929
I705
sVcomplexity
p2930
I1788
sVantimalarial
p2931
I5060
sVultimate
p2932
I4953
sVsensitizing
p2933
I4441
sVcorrelation
p2934
I579
sVorder
p2935
I1996
sVtriggering
p2936
I4363
sVhedgehog
p2937
I740
sVover
p2938
I525
sVsickle
p2939
I1707
sV6.5
p2940
I1378
sVinnovative
p2941
I2467
sVnets
p2942
I4693
sVpsoriatic
p2943
I5173
sVcll
p2944
I1365
sVbottleneck
p2945
I4832
sVcli
p2946
I2117
sVh5nx
p2947
I4456
sVhighlights
p2948
I3260
sVmultidisciplinary
p2949
I5488
sVencapsulated
p2950
I2804
sVmir-491
p2951
I2825
sVproduction
p2952
I463
sVcompensatory
p2953
I4237
sVplatonin
p2954
I1322
sVversus
p2955
I2645
sVeventually
p2956
I2170
sVthem
p2957
I2386
sVaffected
p2958
I1927
sVdiseases
p2959
I2181
sVchromatography
p2960
I3127
sVpyrosequencing
p2961
I4158
sVdihomo--linolenic
p2962
I4015
sVthey
p2963
I392
sVextrusion
p2964
I2554
sVlifelong
p2965
I4313
sVpreventable
p2966
I4791
sV1.01
p2967
I646
sVanion
p2968
I1510
sVoxygen
p2969
I426
sV1.06
p2970
I4376
sVroutines
p2971
I3341
sVbackgrounds
p2972
I3884
sVl
I4895
sVh5n1
p2973
I4446
sVfilling
p2974
I3485
sVmrna
p2975
I1035
sVeach
p2976
I4514
sVgnathodiaphyseal
p2977
I4104
sVclassifier
p2978
I2516
sVlasting
p2979
I4419
sVsepto
p2980
I5062
sVschemes
p2981
I1443
sVdiaphyseal
p2982
I4113
sVreached
p2983
I3587
sVfreeware
p2984
I4729
sVltbp-4
p2985
I5485
sVselectin
p2986
I1717
sVhyp
p2987
I4350
sVby
p2988
I176
sVnetwork
p2989
I1390
sVclade
p2990
I4447
sVvessels
p2991
I2999
sVadenylate
p2992
I4341
sVmedicine
p2993
I3910
sVnewly
p2994
I2423
sVntx
p2995
I5044
sVperception
p2996
I1876
sVbarrier
p2997
I2553
sVinos
p2998
I4139
sVfree
p2999
I458
sVcommercially
p3000
I3819
sVpalmitoleic
p3001
I2984
sVoncogenesis
p3002
I4431
sVformation
p3003
I2391
sVnmda
p3004
I2728
sVskeletal
p3005
I908
sVntc
p3006
I1947
sVntg
p3007
I2577
sVequine
p3008
I2905
sVcreated
p3009
I4714
sVc3a
p3010
I5494
sVvad.
p3011
I3250
sVmonogenic
p3012
I1224
sVrutaceae
p3013
I689
sVcooperating
p3014
I3572
sVpreoperative
p3015
I431
sValready
p3016
I3374
sVtrkb
p3017
I2573
sVtrka
p3018
I3211
sVresearches
p3019
I2195
sVcoding
p3020
I2001
sVprimary
p3021
I780
sVvascularization
p3022
I3034
sVanother
p3023
I712
sVstillbirth
p3024
I3839
sVimplicated
p3025
I510
sVcalorie
p3026
I4933
sVmechanistically
p3027
I1504
sVdysfunction
p3028
I1203
sV0.08
p3029
I5586
sV0.02
p3030
I3792
sVhapploinsufficiency
p3031
I2458
sV0.01
p3032
I4162
sV0.07
p3033
I3700
sV0.04
p3034
I4793
sV0.05
p3035
I2551
sVcemento
p3036
I4109
sVconfirming
p3037
I3493
sVrates
p3038
I107
sVmotility
p3039
I1990
sVtoc
p3040
I267
sVpercentage
p3041
I2977
sVtof
p3042
I4815
sVdogs
p3043
I4615
sVdamaging
p3044
I2670
sVglucose
p3045
I776
sVconsented
p3046
I3221
sVenhancing
p3047
I3354
sVmetabolites
p3048
I5351
sVtool
p3049
I1635
sVserve
p3050
I4270
sVgli1/pin1
p3051
I719
sVwestern
p3052
I4739
sV2.112.83
p3053
I4130
sVinjected
p3054
I2385
sVcolitis
p3055
I1902
sVaspartoacylase
p3056
I3754
sVtarget
p3057
I739
sVroles
p3058
I420
sVpi3k
p3059
I1159
sVkts
p3060
I4174
sVclasses
p3061
I820
sVmodulators
p3062
I5119
sVplasmid
p3063
I2063
sViron
p3064
I1636
sVher2e
p3065
I977
sVsolely
p3066
I3565
sVseminal
p3067
I5010
sVscleroderma
p3068
I5486
sVcubs
p3069
I5403
sVrat
p3070
I1532
sVsocio
p3071
I1812
sVras
p3072
I1466
sVadhd
p3073
I2255
sVbdnf
p3074
I2572
sVregulate
p3075
I3319
sVestrogens
p3076
I1130
sVrelatively
p3077
I4310
sVstrength
p3078
I4915
sVrelapse
p3079
I3017
sVpleural
p3080
I2641
sVthoroughly
p3081
I1979
sVlatter
p3082
I215
sV-
I55
sVisolated
p3083
I1706
sVthorough
p3084
I633
sVindexes
p3085
I3598
sVsubjects
p3086
I3079
sVrodents
p3087
I2584
sVcorrelating
p3088
I4783
sVisolates
p3089
I1267
sVeffectiveness
p3090
I716
sVdermal
p3091
I4347
sVthough
p3092
I2323
sVbst
p3093
I4565
sVglands
p3094
I2655
sVetiological
p3095
I4425
sVmycolipids
p3096
I4837
sVcomplexes
p3097
I4665
sV2.9%
p3098
I4317
sVinvolving
p3099
I2821
sVcarcinoma
p3100
I316
sVphase
p3101
I2085
sVassessed
p3102
I1612
sVftld
p3103
I3409
sVmanifested
p3104
I4277
sVkeratinocyte
p3105
I1059
sVheterodimeric
p3106
I2137
sVhct116p53
p3107
I2401
sVdevastating
p3108
I890
sVflow
p3109
I1186
sValveoli
p3110
I2995
sVdystonia
p3111
I1027
sVquantifying
p3112
I2666
sVsilencing
p3113
I3056
sVpoly(adp
p3114
I4936
sVpresymptomatic
p3115
I5247
sVlewis
p3116
I2052
sVrandom
p3117
I2514
sVpic1
p3118
I3787
sVcarotid
p3119
I1992
sVanalogue
p3120
I4774
sVoci
p3121
I5108
sVlatent
p3122
I1740
sVimplementation
p3123
I5355
sVhrt
p3124
I2283
sVfundus
p3125
I2360
sVocd
p3126
I4987
sVelucidated
p3127
I4101
sVhypocholesterolemia
p3128
I3615
sValdo
p3129
I4141
sVpten
p3130
I2700
sVsummarizing
p3131
I638
sVpolyposis
p3132
I4650
sVhre
p3133
I4868
sVocs
p3134
I3627
sVdn
p3135
I3618
sVdo
p3136
I930
sVdm
p3137
I3766
sVde
p3138
I4892
sVfluid
p3139
I807
sVdegradation
p3140
I2783
sVtuberculosis
p3141
I1741
sVdespite
p3142
I1095
sVreport
p3143
I2503
sVureteral
p3144
I1534
sVdr
p3145
I4462
sVagvhd
p3146
I5437
sVbeads
p3147
I2805
sVcountries
p3148
I530
sVheterocyclic
p3149
I1142
sVhypoxemia
p3150
I2236
sVtwice
p3151
I3394
sVimplication
p3152
I4493
sVfreshwater
p3153
I1676
sV418
p3154
I4899
sVdistinguishes
p3155
I952
sVhpv)-associated
p3156
I5228
sVdetection
p3157
I287
sVcytoplasmic
p3158
I5041
sVovalbumin
p3159
I2059
sVsporadic
p3160
I883
sVdepressive
p3161
I4875
sVt790
p3162
I4782
sVfrontline
p3163
I2499
sVtechniques
p3164
I491
sVcapacity
p3165
I2739
sVanalyze
p3166
I1581
sVnadph
p3167
I2172
sVunable
p3168
I5374
sVm2-associated
p3169
I4810
sVmuo
p3170
I4614
sVapproach
p3171
I1452
sV363
p3172
I3213
sVdiscovery
p3173
I736
sVnicolas
p3174
I4387
sVwe
p3175
I82
sVwd
p3176
I1855
sVterms
p3177
I3262
sVpositron
p3178
I440
sVadding
p3179
I4935
sVpurity
p3180
I1424
sVtryptanthrin
p3181
I1983
sVwm
p3182
I1369
sVhowever
p3183
I243
sVsupports
p3184
I1060
sVwt
p3185
I3617
sVoxidase
p3186
I2173
sVlinkage
p3187
I3223
sVimprove
p3188
I2952
sVreceived
p3189
I1370
sVprotect
p3190
I3924
sVu87mg
p3191
I2402
sVrhythms
p3192
I4734
sVcandidate
p3193
I1406
sVcov
p3194
I4717
sVcox
p3195
I382
sVbiologically
p3196
I5633
sVventricular
p3197
I5536
sVselective
p3198
I1651
sVbraf
p3199
I4354
sVreceiver
p3200
I4232
sVexpense
p3201
I5210
sVlenses
p3202
I3501
sVsupplementation
p3203
I5564
sVbehaviors
p3204
I3468
sVomega-3
p3205
I5118
sVmirnas
p3206
I390
sVcreutzfeldt
p3207
I2663
sVcodon
p3208
I4948
sVmutations
p3209
I262
sVviruses
p3210
I2039
sVhai-2
p3211
I4094
sVwider
p3212
I672
sVstrong
p3213
I2271
sV14.3%
p3214
I5087
sVlactic
p3215
I2368
sVneoplasm
p3216
I3842
sVexpected
p3217
I1577
sV5-diaminonaphthalene
p3218
I1530
sVfamilies
p3219
I3976
sVhospitalization
p3220
I5624
sV30-day
p3221
I2251
sVnucifera
p3222
I4099
sVdrugs
p3223
I1853
sVdroplets
p3224
I3061
sVconcerning
p3225
I190
sVbladder
p3226
I574
sVuncommon
p3227
I20
sV0.17
p3228
I5589
sV0.10
p3229
I5587
sV0.12
p3230
I5578
sVcatch
p3231
I3313
sVapplied
p3232
I704
sVcytotoxic
p3233
I4970
sVinhibit
p3234
I1901
sVreciprocal
p3235
I722
sVait
p3236
I4418
sVheartland
p3237
I2428
sVn
I1072
sVaim
p3238
I873
sVholoprotein
p3239
I4254
sVleprosy
p3240
I919
sVaid
p3241
I4598
sVproperty
p3242
I3022
sVprocedure
p3243
I105
sVpdacs
p3244
I4470
sVftmt
p3245
I4533
sVsting
p3246
I4465
sVtissue
p3247
I1982
sVexperts
p3248
I4182
sVcone
p3249
I5475
sVtumorigenesis
p3250
I741
sVpathology
p3251
I181
sVinteracts
p3252
I1054
sVimmunoprecipiations
p3253
I731
sVpercutaneous
p3254
I5202
sVdescent
p3255
I3941
sVsuggest
p3256
I849
sVrecurrent
p3257
I1286
sVth2
p3258
I928
sVth1
p3259
I922
sVmcm7/p
p3260
I5056
sVutilitarian
p3261
I5416
sVreprogramming
p3262
I412
sVphenotype
p3263
I1804
sVaccumulating
p3264
I1958
sVseveral
p3265
I35
sVarid1a
p3266
I2871
sVindependent
p3267
I1819
sVpick
p3268
I1565
sVcounterparts
p3269
I2891
sVhand
p3270
I2684
sVportal
p3271
I4382
sVimmunohistochemical
p3272
I1753
sVvvc
p3273
I2550
sVnormalization
p3274
I3417
sVcycle
p3275
I4286
sVddavp
p3276
I130
sVeq-5d
p3277
I3717
sVhypermucoviscous
p3278
I3305
sVbacterium
p3279
I4117
sVcompartments
p3280
I1926
sVeph
p3281
I1858
sVepi
p3282
I714
sVhearts
p3283
I2753
sVthe
p3284
I9
sVcataract
p3285
I3500
sVcytosine
p3286
I2383
sVtha
p3287
I3331
sVcisplatin
p3288
I1233
sVbackground
p3289
I880
sVproposed
p3290
I989
sVable
p3291
I2816
sVrodent
p3292
I2091
sVtransporting
p3293
I1511
sVscattering
p3294
I5297
sVmodulate
p3295
I990
sVfunctionally
p3296
I3849
sVthyroid
p3297
I4206
sVcervix
p3298
I4274
sVykl-40
p3299
I5524
sVstent
p3300
I3302
sVmcf-7
p3301
I2696
sV5p
p3302
I2826
sVevidences
p3303
I1881
sVpassive
p3304
I653
sVspread
p3305
I514
sVtransformed
p3306
I2309
sVevidenced
p3307
I4805
sVels
p3308
I4908
sVplasma
p3309
I1838
sVadvances
p3310
I2330
sVrna
p3311
I1174
sVkaplan
p3312
I4442
sVprogressed
p3313
I4408
sVfusion
p3314
I3358
sVconsisted
p3315
I3094
sVcape
p3316
I5097
sVlymphoma
p3317
I1605
sV1.32
p3318
I3148
sVadvanced
p3319
I323
sVbpd
p3320
I5177
sVmesothelioma
p3321
I3320
sV55
p3322
I5343
sV56
p3323
I2867
sVesrd
p3324
I4579
sV53
p3325
I4217
sVadiponectin
p3326
I4844
sVspecific
p3327
I354
sVinformative
p3328
I4821
sVbps
p3329
I2135
sVimmunosuppressive
p3330
I3117
sVmosquito
p3331
I2407
sVhoming
p3332
I2920
sVhepatic
p3333
I1043
sV5%
p3334
I5545
sVnude
p3335
I1458
sVtowards
p3336
I2358
sVimmunosorbant
p3337
I4741
sVsuccessfully
p3338
I1103
sV50
p3339
I5502
sVindirect
p3340
I206
sV52
p3341
I3591
sV17-dependent
p3342
I3881
sVich
p3343
I1549
sVcns
p3344
I995
sVmir-34a
p3345
I2709
sV/
I357
sVctgf
p3346
I5090
sVhydroxyurea
p3347
I2957
sVics
p3348
I3018
sVcortical
p3349
I782
sVicv
p3350
I4538
sVcord
p3351
I293
sVnonuniform
p3352
I5369
sVelucidate
p3353
I2364
sVcxcr4
p3354
I2885
sV0.931.38
p3355
I1737
sVpla
p3356
I3309
sVnotorious
p3357
I4234
sVcardiomyopathy
p3358
I4482
sVpost
p3359
I611
sVherpes
p3360
I1005
sVnelumbo
p3361
I4098
sVattacks
p3362
I2575
sVacquire
p3363
I3539
sVmonths
p3364
I3699
sVplus
p3365
I5630
sVhistorically
p3366
I5321
sVlogistical
p3367
I4826
sVconnected
p3368
I3569
sVefforts
p3369
I1866
sV50500
p3370
I1708
sVsubconjunctival
p3371
I4890
sVhbx
p3372
I3277
sVmantle
p3373
I5330
sVhaplotype
p3374
I3290
sVosteocalcin
p3375
I5043
sVhdacs
p3376
I2754
sVahr
p3377
I4518
sVrendering
p3378
I4451
sVprrsv
p3379
I1470
sVimmunization
p3380
I5289
sVpuncta
p3381
I3065
sVdehydrogenase
p3382
I1570
sVcategorization
p3383
I5527
sVcolchicine
p3384
I5598
sVthr367
p3385
I3685
sVcomparing
p3386
I3106
sVtranscript
p3387
I4268
sV21.8
p3388
I628
sVcausative
p3389
I1669
sVmutated
p3390
I4058
sVanderson
p3391
I3677
sVclinical
p3392
I193
sVway
p3393
I2607
sVgio
p3394
I4055
sVwas
p3395
I57
sVa-07
p3396
I4540
sVlowest
p3397
I4125
sVhead
p3398
I2275
sVattempted
p3399
I1893
sVheal
p3400
I4956
sV0.008
p3401
I5092
sVdll3-
p3402
I3338
sVencodes
p3403
I1656
sVmaxim
p3404
I3907
sVtaken
p3405
I1899
sVprofile
p3406
I876
sVdead
p3407
I5273
sVpyogenic
p3408
I3307
sVrituximab
p3409
I2830
sVencoded
p3410
I5264
sVtrue
p3411
I2628
sVvisceral
p3412
I1120
sVwaldenstrm
p3413
I5332
sV0.004
p3414
I5227
sVreproductive
p3415
I1469
sVcd45rc
p3416
I3986
sV0.003
p3417
I5226
sVmaximum
p3418
I4583
sVdifferent
p3419
I639
sVcancers
p3420
I544
sVc5a
p3421
I5495
sVmtb
p3422
I5100
sVmtc
p3423
I877
sV90%
p3424
I2050
sVifn-
p3425
I4806
sVmuscular
p3426
I2029
sVevidence
p3427
I1793
sV0.61
p3428
I5579
sV0.62
p3429
I3296
sV0.69
p3430
I5515
sVcheck
p3431
I1313
sVphysical
p3432
I4370
sVnk
p3433
I2742
sVinitiated
p3434
I4589
sVno
p3435
I586
sVwhereas
p3436
I2248
sVnd
p3437
I4593
sVne
p3438
I4034
sVng
p3439
I4213
sVfalsely
p3440
I4797
sVpolymyositis
p3441
I2987
sVinvestigations
p3442
I788
sVheterozygous
p3443
I356
sVnt
p3444
I4126
sVnode
p3445
I1732
sVil-8
p3446
I1353
sVil-4
p3447
I3876
sVil-6
p3448
I1351
sVil-7
p3449
I1924
sVepha3
p3450
I1754
sVtranscutaneous
p3451
I4626
sVconcurrent
p3452
I2941
sVscores
p3453
I747
sVhpv(
p3454
I5229
sVhippocampal
p3455
I4677
sVcorresponding
p3456
I3477
sVinterval
p3457
I648
sVtogether
p3458
I843
sVuncovered
p3459
I2389
sVcontrolling
p3460
I4371
sVangiogenesis
p3461
I1292
sVanalyzsed
p3462
I5558
sVestrogen-
p3463
I4190
sVconcept
p3464
I4888
sVlymphatic
p3465
I3639
sVremarkable
p3466
I1324
sVlls
p3467
I4909
sVtamoxifen
p3468
I5059
sVglobal
p3469
I2900
sVfocus
p3470
I2120
sVleads
p3471
I887
sVsupplement
p3472
I2496
sVmhi-148
p3473
I1505
sVremarkably
p3474
I1338
sVros
p3475
I1683
sV.01
p3476
I5580
sVlld
p3477
I2011
sVlayers
p3478
I406
sVrepression
p3479
I3914
sVgraph
p3480
I4281
sVenvironment
p3481
I1914
sVpromoting
p3482
I872
sVautophagosome
p3483
I2781
sVmonocytes
p3484
I5281
sVdiscovering
p3485
I3948
sVintercellular
p3486
I2996
sVmta-1
p3487
I2315
sValternations
p3488
I3793
sVdivision
p3489
I2024
sVcarbocyanine
p3490
I2940
sVprotective
p3491
I1117
sVadvantage
p3492
I4036
sVh19
p3493
I3643
sVfrequencies
p3494
I3425
sVaml1-eto
p3495
I3359
sVpgc-1.
p3496
I4477
sVemphasizes
p3497
I4573
sVnerve
p3498
I3825
sVperceived
p3499
I3564
sVrespiratory
p3500
I455
sVimpressive
p3501
I3562
sVprophylactic
p3502
I4823
sVpresented
p3503
I3301
sValtering
p3504
I2090
sVfragile
p3505
I517
sVp
I1716
sVmucosal
p3506
I1904
sVevades
p3507
I4928
sVaccumulation
p3508
I2538
sVbhlh
p3509
I3979
sVupper
p3510
I2876
sVpmv
p3511
I4687
sVhta
p3512
I1477
sVpms
p3513
I799
sVpore
p3514
I3453
sVdiscover
p3515
I1919
sVpiccolo
p3516
I5594
sVd
I770
sVpulldowns
p3517
I723
sVcost
p3518
I2507
sVpml
p3519
I4428
sVspectral
p3520
I3553
sVlrba
p3521
I4000
sVshares
p3522
I5081
sVhscs
p3523
I314
sVhsct
p3524
I2598
sVgleason
p3525
I289
sVsubdivided
p3526
I5549
sVpredicting
p3527
I1243
sVefficacious
p3528
I483
sVgenes
p3529
I684
sVmultidrug
p3530
I1090
sVdrug
p3531
I1502
sVgroups
p3532
I3251
sVhlbalf
p3533
I1930
sV[
I132
sVappears
p3534
I4637
sVchange
p3535
I3457
sVprecursor
p3536
I1960
sVmir-125b
p3537
I4743
sVpediatric
p3538
I4315
sVpigmentosa
p3539
I2796
sVusually
p3540
I1399
sVresonance
p3541
I2019
sVpathologies
p3542
I1629
sVpbx1
p3543
I5406
sVinvasiveness
p3544
I3582
sVmimicked
p3545
I4644
sVpancreatitis
p3546
I1040
sVregardless
p3547
I4940
sVoligodendrocytes
p3548
I3928
sVextra
p3549
I3266
sVinducing
p3550
I2006
sVrosai
p3551
I3007
sVethiopian
p3552
I5616
sVupf1-bound
p3553
I5140
sVmarked
p3554
I3843
sVmodifying
p3555
I986
sVucc2003
p3556
I2562
sVmarker
p3557
I286
sVrarely
p3558
I3027
sVinositol
p3559
I1215
sVare
p3560
I19
sVneuropsychiatric
p3561
I5124
sVprove
p3562
I482
sVca1
p3563
I838
sVtnbs
p3564
I4657
sVmss
p3565
I4170
sVframeshift
p3566
I5134
sVc4d
p3567
I5532
sVanginal
p3568
I5506
sVmsi
p3569
I1529
sVcriteria
p3570
I3680
sVtnbc
p3571
I1177
sVmsc
p3572
I2114
sVischemia
p3573
I775
sVmsa
p3574
I5042
sVischemic
p3575
I773
sVafrican
p3576
I4329
sVshare
p3577
I4175
sVngs
p3578
I3318
sVsymptomatic
p3579
I238
sVdismal
p3580
I1964
sVsulfur
p3581
I3734
sVcases
p3582
I813
sVinsights
p3583
I1150
sVderailed
p3584
I3730
sVcar
p3585
I252
sVreflux
p3586
I1247
sVmodified
p3587
I303
sVdistricts
p3588
I5196
sVlabeled
p3589
I2333
sVcan
p3590
I1168
sVsas-0132
p3591
I3051
sVcarcinogenesis
p3592
I1859
sVbrca
p3593
I1187
sVprotects
p3594
I3862
sVcaa
p3595
I1778
sVplatonin(510
p3596
I1309
sVstimulating
p3597
I4485
sVcad
p3598
I3516
sVmesothelin
p3599
I3315
sVheart
p3600
I2476
sV73.2%
p3601
I4568
sVfigure
p3602
I4671
sVdecember
p3603
I5501
sVchip
p3604
I817
sVstroke
p3605
I774
sVperformed
p3606
I575
sVcardio
p3607
I1644
sVserum
p3608
I758
sVinfantile
p3609
I4002
sV20132015
p3610
I522
sVmeans
p3611
I4822
sV1
I506
sVvital
p3612
I4556
sVcriterion
p3613
I3715
sVfourth
p3614
I2877
sVoropharyngeal
p3615
I2858
sVproduct
p3616
I4458
sVefficacies
p3617
I2497
sVcooperativity
p3618
I3344
sVdampened
p3619
I2105
sVoverall
p3620
I547
sVclone
p3621
I4570
sVclonally
p3622
I5082
sV0.71
p3623
I5519
sVproduce
p3624
I3746
sV0.74
p3625
I591
sVmb-
p3626
I4585
sVgoal
p3627
I3172
sV120
p3628
I4723
sVliquid
p3629
I3126
sVtaplow
p3630
I4861
sVinform
p3631
I5150
sVrepresentation
p3632
I4999
sVtypical
p3633
I5505
sVexclusive
p3634
I4808
sVtagged
p3635
I726
sVacts
p3636
I2635
sVglobe
p3637
I5421
sVlewy
p3638
I50
sVindeed
p3639
I2720
sVmainly
p3640
I1568
sVraised
p3641
I3146
sVbrain
p3642
I842
sVstatistical
p3643
I1759
sVcold
p3644
I508
sVstill
p3645
I1360
sVblocked
p3646
I2706
sVparadoxically
p3647
I2270
sVp2x7
p3648
I159
sVpresence
p3649
I1922
sVforms
p3650
I915
sVwindow
p3651
I4546
sVoffers
p3652
I1317
sVsnu-81
p3653
I1560
sVareas
p3654
I2261
sVnon
p3655
I1190
sVrapamycin
p3656
I2848
sVepiisopiloturine
p3657
I713
sVunveiling
p3658
I2374
sVprocesses
p3659
I2025
sVinvestigated
p3660
I150
sVbound
p3661
I823
sVwarranted
p3662
I4240
sVg985s
p3663
I5200
sVnot
p3664
I301
sVsialic
p3665
I4454
sVnow
p3666
I164
sVprovision
p3667
I1148
sVdiscuss
p3668
I186
sVnor
p3669
I3738
sVoverlap
p3670
I4410
sVsusceptibility
p3671
I2192
sVterm
p3672
I1115
sVnamd
p3673
I5181
sVcd133
p3674
I1726
sVppr
p3675
I4690
sVil17-
p3676
I3337
sVadvent
p3677
I1766
sVtnt
p3678
I4755
sVpossibilities
p3679
I2334
sVdinaciclib
p3680
I1520
sVentirely
p3681
I4818
sVhistopathological
p3682
I10
sVen
p3683
I108
sVsignificantly
p3684
I302
sVcoactivators
p3685
I3545
sVchallenged
p3686
I2992
sVed
p3687
I5079
sVndrg
p3688
I421
sVdirecting
p3689
I4807
sV0.0384
p3690
I2743
sVchallenges
p3691
I4827
sVex
p3692
I686
sVyear
p3693
I2021
sVtopics
p3694
I4186
sVer
p3695
I111
sVpd-1/pd
p3696
I5002
sVmultifunctional
p3697
I507
sVinfarct
p3698
I1300
sVfactors
p3699
I2417
sVhypovitaminosis
p3700
I790
sVfurthermore
p3701
I197
sVincrease
p3702
I1339
sVls513
p3703
I4171
sVanorexia
p3704
I5267
sVviable
p3705
I4955
sVshows
p3706
I16
sVabnormal
p3707
I2567
sVsftsv
p3708
I2427
sVpathogenic
p3709
I33
sVlmr
p3710
I5439
sVcart
p3711
I5625
sVdiagnostic
p3712
I88
sVmarine
p3713
I1675
sVk16
p3714
I272
sVmicrohematuria
p3715
I573
sVrearrangements
p3716
I3824
sVmethylation
p3717
I2089
sVamyloid
p3718
I1776
sVdeprivation
p3719
I777
sVtransition
p3720
I1047
sV0.836
p3721
I4264
sVpandemic
p3722
I1263
sVpsma
p3723
I4309
sVfactor-
p3724
I2813
sV512
p3725
I980
sVchildhood
p3726
I891
sVenteropathy
p3727
I3960
sVblood
p3728
I1482
sVorigin
p3729
I4613
sVhydrocarbons
p3730
I1140
sVsurviving
p3731
I4487
sVhif-2
p3732
I4529
sVvariables
p3733
I3595
sVhif-1
p3734
I417
sVnivt
p3735
I5372
sVdirectly
p3736
I2264
sVyb-1
p3737
I502
sVcomprises
p3738
I4871
sVarray
p3739
I1162
sVsize
p3740
I347
sVgiven
p3741
I216
sVfibrinogen
p3742
I3747
sVser9
p3743
I3647
sVstimulation
p3744
I3518
sVmutation
p3745
I564
sVproteinase-3
p3746
I5280
sVfinding
p3747
I4300
sVchemo
p3748
I3423
sViap
p3749
I4505
sVexploring
p3750
I4590
sVamines
p3751
I1143
sVcopd
p3752
I2234
sVthat
p3753
I18
sVbrains
p3754
I848
sVpns
p3755
I2349
sVerectile
p3756
I3909
sVcopy
p3757
I1515
sVchromosomes
p3758
I975
sVthan
p3759
I1506
sVpopulation
p3760
I3777
sVwide
p3761
I750
sVoatp
p3762
I1513
sVendoplasmic
p3763
I1221
sVrequire
p3764
I487
sVcytokeratin-14
p3765
I1579
sVoptimism
p3766
I479
sVmetabolism
p3767
I413
sVr
I1331
sVsera
p3768
I5409
sVoutcome
p3769
I1602
sVmedullary
p3770
I5326
sVpublished
p3771
I4185
sVand
p3772
I48
sVt(8;21)(q22;q22
p3773
I3360
sVangioplasty
p3774
I3275
sVprb
p3775
I4433
sVpro
p3776
I470
sVcsf-1
p3777
I3767
sVmeasure
p3778
I4150
sVprh
p3779
I2917
sVperitonitis
p3780
I1396
sVprp
p3781
I2591
sVprs
p3782
I748
sVabnormalities
p3783
I2044
sVany
p3784
I1210
sVconversion
p3785
I1840
sVbisphosphonates
p3786
I2134
sVanuradhapura
p3787
I5194
sVtranscription
p3788
I1657
sVequipment
p3789
I489
sVideal
p3790
I5455
sVfracture
p3791
I3729
sVepsilon
p3792
I2713
sVobjective
p3793
I5460
sVnew
p3794
I667
sVimpairment
p3795
I1076
sVbecoming
p3796
I3310
sVbegin
p3797
I4712
sVdifferences
p3798
I905
sVmultiple
p3799
I1486
sVfucosylated
p3800
I4576
sVimportantly
p3801
I1489
sV]
I136
sVdatabase
p3802
I3957
sVlscs
p3803
I4251
sVconsidered
p3804
I7
sVanca
p3805
I5278
sVlater
p3806
I5157
sVimplications
p3807
I2860
sVpeptides
p3808
I3496
sVcortex
p3809
I847
sVpattern
p3810
I4669
sVmre
p3811
I3177
sVsenior
p3812
I4852
sVduplication
p3813
I3182
sVtypically
p3814
I2026
sVvasculitides
p3815
I3099
sVmrc
p3816
I4858
sV3.77
p3817
I4131
sV3.75
p3818
I5576
sVcnps
p3819
I4326
sVnlc
p3820
I3129
sVsustained
p3821
I1802
sVtuberous
p3822
I1229
sVfifth
p3823
I5334
sVoverexpressed
p3824
I1868
sVincb039110
p3825
I3384
sVratio
p3826
I645
sVdocetaxel
p3827
I5337
sVpilus
p3828
I2209
sVproportion
p3829
I1906
sVquiescence
p3830
I3546
sVonly
p3831
I828
sVenriched
p3832
I3198
sVtransfusions
p3833
I5362
sVarachidonic
p3834
I4017
sVroutine
p3835
I1105
sVdye
p3836
I1193
sVdifferentiating
p3837
I2065
sVreveal
p3838
I1756
sVregarding
p3839
I706
sVhcas
p3840
I1144
sV1.8625.26
p3841
I2916
sVpreliminarily
p3842
I3703
sV0.971.66
p3843
I3045
sVextremity
p3844
I4682
sVpredicted
p3845
I2931
sVmapped
p3846
I4720
sVpituitary
p3847
I2456
sVdiscussing
p3848
I2337
sVrms
p3849
I3461
sVdice
p3850
I4412
sVmalformations
p3851
I5064
sVtsgs
p3852
I4719
sVunmarried
p3853
I4498
sVdeconvolution
p3854
I5484
sVlnm
p3855
I1998
sVactively
p3856
I1342
sVcollege
p3857
I3690
sVxenogeneic
p3858
I2388
sVlnc
p3859
I4439
sVeuropeans
p3860
I4026
sVdetect
p3861
I1925
sVankylosing
p3862
I3332
sVcd105
p3863
I3370
sVsubsequent
p3864
I5242
sVreview
p3865
I184
sVcirculating
p3866
I3794
sVinhibitors
p3867
I207
sVsnps
p3868
I2541
sV3
I1092
sVspermatogonia
p3869
I3199
sVzebrafish
p3870
I2459
sVtherapies
p3871
I1102
sVorchestrate
p3872
I4246
sV0.690.78
p3873
I596
sVcortisol
p3874
I1591
sV0.154
p3875
I4263
sVinclusions
p3876
I3408
sV1.106
p3877
I5464
sV-synuclein
p3878
I5039
sVanalyzed
p3879
I83
sVrapidly
p3880
I1179
sVpemetrexed
p3881
I5338
sVreaction
p3882
I4149
sVtransmissible
p3883
I3427
sVacquiring
p3884
I4574
sVregion
p3885
I840
sVsodium
p3886
I4088
sVligaments
p3887
I5565
sVpcr
p3888
I4070
sVvur
p3889
I1248
sVpcs
p3890
I5236
sVcomes
p3891
I4394
sVv2r
p3892
I2637
sVr)-induced
p3893
I772
sVcharacterization
p3894
I3259
sVwithin
p3895
I1950
sVoverview
p3896
I5426
sVcolony
p3897
I2924
sVperiod
p3898
I1618
sVcutis
p3899
I5260
sVwound/
p3900
I4631
sVcolon
p3901
I484
sVconfirmed
p3902
I1459
sV66
p3903
I4566
sVmoreover
p3904
I397
sVendeavor
p3905
I2470
sVa549
p3906
I1895
sVlate
p3907
I1079
sVakr1b10
p3908
I4102
sVneurogenesis
p3909
I3416
sVbevacizumab
p3910
I1623
sVescalated
p3911
I1372
sVimmunodeficiency
p3912
I1827
sVlipopolysaccharide
p3913
I2810
sVexanthema
p3914
I4025
sVcas9
p3915
I679
sVbigelovin
p3916
I3376
sVdirection
p3917
I3123
sVdiffered
p3918
I4560
sVstemi
p3919
I3274
sVp47phox/
p3920
I2342
sVsuspected
p3921
I812
sVsquaraine
p3922
I4581
sVprotocols
p3923
I3328
sVpilot
p3924
I2064
sVcase
p3925
I3006
sVdeveloping
p3926
I337
sVthese
p3927
I388
sVpremature
p3928
I5461
sVsyndromes
p3929
I1225
sVrefractory
p3930
I3176
sVirrespective
p3931
I2151
sVrs1892901
p3932
I3039
sVinterconnected
p3933
I3325
sVsox18
p3934
I4883
sVbabiloni
p3935
I4735
sVpneumococcal
p3936
I2485
sVdlg5
p3937
I553
sVcoupled
p3938
I3316
sVr102x
p3939
I1030
sVsectional
p3940
I1611
sVjawbones
p3941
I4111
sVconverts
p3942
I4014
sVmorphologic
p3943
I3707
sVnnv
p3944
I1668
sVupregulation
p3945
I2535
sVbsm
p3946
I2295
sVtrap5
p3947
I5634
sVdevelop
p3948
I616
sVproto
p3949
I5328
sVsupra
p3950
I2404
sVmicroarray
p3951
I2593
sVepoch
p3952
I3990
sVfosl1
p3953
I1490
sVconstructed
p3954
I3936
sVevents
p3955
I87
sVweek
p3956
I3402
sVlymphomas
p3957
I4840
sVcarboxypeptidase
p3958
I3811
sVdriver
p3959
I1864
sVdrives
p3960
I1058
sVdriven
p3961
I452
sVpersons
p3962
I5190
sVguillain
p3963
I2415
sVinvestigates
p3964
I636
sVdiscriminate
p3965
I2517
sVvalidate
p3966
I4559
sV1.024.16
p3967
I2448
sVnm
p3968
I1709
sV4150
p3969
I4056
sVinactivating
p3970
I5319
sVcytosolic
p3971
I3279
sVminimize
p3972
I4440
sVccp
p3973
I3812
sVccl
p3974
I4784
sVsevere
p3975
I605
sVwithout
p3976
I1209
sVcch
p3977
I3955
sValleviate
p3978
I4843
sVrelied
p3979
I5322
sVprc2
p3980
I2214
sVmodel
p3981
I141
sVbodies
p3982
I51
sVhaploinsufficiency
p3983
I2582
sVedema
p3984
I1302
sVwhen
p3985
I8
sVci
p3986
I593
sVactions
p3987
I942
sVstroma
p3988
I401
sVfoot
p3989
I3086
sVleishmaniasis
p3990
I1121
sVubiquitin
p3991
I4878
sVhyperreactivity
p3992
I4517
sVdifferentiation
p3993
I1727
sVelectrolyte
p3994
I5613
sVunivariate
p3995
I381
sVhomeostasis
p3996
I2727
sVblot
p3997
I4740
sVstaging
p3998
I3681
sVangiotensin
p3999
I3916
sVhct116
p4000
I5324
sVcl
p4001
I2842
sVseems
p4002
I2300
sVexcept
p4003
I3612
sVharrow
p4004
I4864
sVsetting
p4005
I3895
sVbloc
p4006
I109
sVtreatment
p4007
I84
sVsamples
p4008
I808
sVimmunosorbent
p4009
I4216
sVstemness
p4010
I3540
sVentitled
p4011
I1020
sVdisrupt
p4012
I3513
sVdisproportionate
p4013
I531
sVami
p4014
I791
sVglycaemia
p4015
I2689
sVaml
p4016
I1918
sVmaxillofacial
p4017
I2158
sVtopo1
p4018
I5444
sVpsc
p4019
I4051
sVpsa
p4020
I285
sVamd
p4021
I2110
sVleptomeningeal
p4022
I3015
sVtest
p4023
I597
sVamp
p4024
I2846
sVaccepted
p4025
I5459
sVsteatohepatitis
p4026
I4599
sVtoxicities
p4027
I2944
sVacute
p4028
I602
sVductal
p4029
I981
sVreduces
p4030
I1715
sVbenefit
p4031
I2599
sVt
I728
sVnosocomial
p4032
I3532
sVneurologic
p4033
I1856
sVoutput
p4034
I4709
sVqtls
p4035
I4901
sVreduced
p4036
I1299
sVtwelve
p4037
I3373
sVburdens
p4038
I3716
sVexposed
p4039
I660
sVcachexia
p4040
I2613
sVduration
p4041
I1381
sVsubtypes
p4042
I551
sVhemorrhage
p4043
I1548
sVintact
p4044
I404
sVchelator
p4045
I1851
sVwarranting
p4046
I2887
sVprovided
p4047
I2752
sVmicro
p4048
I408
sVhepatitis
p4049
I2038
sVdepletion
p4050
I305
sV57%
p4051
I1974
sVprovides
p4052
I457
sVmetabolomics
p4053
I5483
sVovaries
p4054
I2580
sVequivalent
p4055
I4283
sVglb1
p4056
I4981
sVck1.
p4057
I3854
sVnmd
p4058
I5133
sVck14
p4059
I1580
sVantiaggregation
p4060
I1327
sVsixty
p4061
I1837
sVnmo
p4062
I3226
sVkeratin
p4063
I277
sVon
p4064
I158
sVcentral
p4065
I992
sVastrocytes
p4066
I3900
sVof
p4067
I12
sVsri
p4068
I5197
sVdiscussed
p4069
I4415
sV75.5%
p4070
I4722
sVoa
p4071
I5602
sVthousands
p4072
I4788
sVchop
p4073
I1407
sVneurodegenerative
p4074
I3411
sVgreatly
p4075
I3836
sVconcentrations
p4076
I5218
sVov
p4077
I4122
sVos
p4078
I548
sVor
p4079
I224
sVprotease
p4080
I1056
sVcommunication
p4081
I3514
sVspinal
p4082
I292
sVaccounts
p4083
I3628
sVdetermine
p4084
I2452
sVhyperglycemia
p4085
I3994
sVlastly
p4086
I3879
sVgarp
p4087
I5422
sVintervention
p4088
I1449
sVeht
p4089
I3033
sVh82
p4090
I3705
sVremoving
p4091
I2629
sVthere
p4092
I163
sVcultured
p4093
I781
sVdetectable
p4094
I1110
sVlow
p4095
I528
sVnitric
p4096
I2962
sVfish
p4097
I1677
sVallergic
p4098
I4515
sVdiagnose
p4099
I5368
sVregard
p4100
I878
sVjun
p4101
I2850
sVdelayed
p4102
I118
sVerk1/2
p4103
I3918
sVlymph
p4104
I1731
sVmolecule-1
p4105
I2997
sVpromote
p4106
I1169
sVirreversible
p4107
I3265
sVlonger
p4108
I101
sVdemyelination
p4109
I4749
sVdatasets
p4110
I1916
sVapplying
p4111
I4519
sVcirculation
p4112
I1949
sVdefault
p4113
I1388
sVare-
p4114
I4525
sVcalgranulin
p4115
I1555
sVdefine
p4116
I5046
sVstrongly
p4117
I943
sVillnesses
p4118
I1835
sVautoimmune
p4119
I998
sV600
p4120
I3396
sVfusions
p4121
I3894
sVdoses
p4122
I5095
sVrvo
p4123
I4464
sVlandscape
p4124
I3131
sVcbz
p4125
I4022
sVcontrolled
p4126
I4400
sVconversely
p4127
I3911
sVhospitals
p4128
I5193
sVstatuses
p4129
I1833
sV4.4
p4130
I3234
sVinactivation
p4131
I884
sVdiarrhea
p4132
I3533
sVevent
p4133
I1444
sVigg
p4134
I5168
sVige
p4135
I3877
sVigd
p4136
I4984
sV5
I4083
sVtransfusion
p4137
I5359
sVobs
p4138
I1891
sVresidence
p4139
I4374
sVimmunity
p4140
I1202
sVpoor
p4141
I541
sVgermline
p4142
I5327
sVbriefly
p4143
I4242
sVnoncoding
p4144
I4438
sVeaec
p4145
I2211
sVteeth
p4146
I5566
sV60y
p4147
I5159
sVincludes
p4148
I5126
sVretrospectively
p4149
I532
sVcb1
p4150
I146
sVnucleus
p4151
I4039
sVserious
p4152
I2758
sVincluded
p4153
I1067
sVproteomic
p4154
I4591
sVpool
p4155
I5309
sVunresponsive
p4156
I2864
sVcytotoxicity
p4157
I2396
sVclinically
p4158
I3946
sVvalues
p4159
I2778
sVodds
p4160
I644
sVmitochondria
p4161
I4474
sVcurve
p4162
I585
sVhdac
p4163
I1427
sVsignalling
p4164
I212
sVhmms
p4165
I4324
sVall
p4166
I511
sValk
p4167
I211
sVchinese
p4168
I2041
sVali
p4169
I1335
sVald
p4170
I3282
sVlack
p4171
I1036
sVseals
p4172
I5185
sVsurgical
p4173
I3327
sVsystemic
p4174
I174
sVnitroglycerin
p4175
I4803
sV.0084
p4176
I2981
sVfollow
p4177
I2519
sVfaster
p4178
I899
sVdecisions
p4179
I5151
sVals
p4180
I1101
sVosteoporosis
p4181
I2420
sVsynthetic
p4182
I2106
sV 
I427
sV-mediated
p4183
I1218
sVcpg2216
p4184
I2341
sV1520%
p4185
I4931
sVbiliary
p4186
I1041
sVsafety
p4187
I3383
sVnodes
p4188
I2528
sVpresentation
p4189
I5557
sV1.71
p4190
I3153
sVweeks
p4191
I4003
sVactivities
p4192
I1450
sV28,600
p4193
I526
sVroc
p4194
I584
sVworse
p4195
I4157
sVfar
p4196
I3972
sVfas
p4197
I3103
sVfap
p4198
I2525
sVg6pd
p4199
I1571
sVfat
p4200
I3269
sVmpv
p4201
I5509
sVfak
p4202
I3624
sVprognostication
p4203
I5352
sVtreating
p4204
I699
sVsubsets
p4205
I4075
sVdeficient
p4206
I1408
sVissue
p4207
I3284
sV2.3.4.4
p4208
I4455
sVprolonged
p4209
I1129
sV-6
p4210
I4016
sV-8
p4211
I1352
sVrats
p4212
I2571
sVten
p4213
I4009
sVaberrantly
p4214
I4076
sVfragility
p4215
I4112
sVtranslating
p4216
I2186
sVrate
p4217
I322
sVdesign
p4218
I3806
sVenhancement
p4219
I1945
sVfunctioning
p4220
I2258
sVextremities
p4221
I5032
sVcanonical
p4222
I4478
sVsub
p4223
I3245
sVnano
p4224
I3125
sVtoledo
p4225
I5110
sVdisplaying
p4226
I4834
sVinduce
p4227
I2285
sVovarian
p4228
I2138
sVoverload
p4229
I1637
sVpublic
p4230
I3283
sVchristian
p4231
I3954
sVfty720
p4232
I4773
sVmodify
p4233
I1874
sVcaspase
p4234
I2774
sVh46a
p4235
I3742
sVprotease(s
p4236
I4095
sVcompartmentalization
p4237
I3246
sVrelaxation
p4238
I4596
sVmultiforme
p4239
I2808
sVcontributing
p4240
I4934
sVnkx3
p4241
I4084
sVnkx2
p4242
I4082
sVrbc
p4243
I5358
sVurokinase
p4244
I2279
sVlosses
p4245
I1674
sV~~[[2
p4246
I25
sV~~[[1
p4247
I2
sVamount
p4248
I3563
sVextremes
p4249
I917
sVstiffness
p4250
I4703
sVrs35705950
p4251
I4532
sVintratumoral
p4252
I432
sVoptions
p4253
I2100
sVrepressor
p4254
I1658
sVimaging
p4255
I1198
sVproatherogenic
p4256
I5077
sVpet)/computed
p4257
I443
sVfamily
p4258
I422
sVmediator
p4259
I2316
sV.41
p4260
I5577
sVpalmitic
p4261
I3653
sVanalyzing
p4262
I1915
sVaimed
p4263
I362
sVtrained
p4264
I2892
sVil]-1
p4265
I5034
sVaberrant
p4266
I2766
sVconventional
p4267
I2164
sVdiscriminative
p4268
I4231
sVpscs
p4269
I1493
sVcontains
p4270
I711
sVdemyelinating
p4271
I2798
sVmirna
p4272
I385
sVcadherin
p4273
I2537
sVgrafts
p4274
I3520
sVimmunomagnetic
p4275
I4962
sVnecrotising
p4276
I2227
sVrheumatoid
p4277
I2177
sVavp
p4278
I2634
sVunresolved
p4279
I5277
sVchemoembolization
p4280
I3369
sV1,166
p4281
I4814
sVknown
p4282
I796
sVmda-
p4283
I4584
sVgelatinase-
p4284
I4048
sVlipoprotein
p4285
I2481
sVequation
p4286
I4801
sVdebated
p4287
I3542
sVexamined
p4288
I97
sVnine
p4289
I4911
sVv
I133
sVspontaneous
p4290
I5158
sVhistory
p4291
I2608
sVspearman
p4292
I576
sVchallenging
p4293
I4647
sVchemoradiation
p4294
I5389
sVosteosarcoma
p4295
I3481
sVprofiled
p4296
I3522
sVradiotherapy
p4297
I2263
sVmethyl
p4298
I3178
sVscd
p4299
I3119
sVsarcoma
p4300
I5027
sVlacks
p4301
I1109
sVspecies
p4302
I693
sV5.3
p4303
I4900
sVearly
p4304
I69
sV5.5
p4305
I1822
sVrather
p4306
I933
sVnfe2l2/nrf2
p4307
I4353
sVinfluences
p4308
I1984
sVnoninvasive
p4309
I2937
sVactivator
p4310
I2274
sVmi
p4311
I610
sVderegulated
p4312
I4511
sVmesenchymal
p4313
I953
sVcytokine
p4314
I2224
sVprognostic
p4315
I429
sVser363
p4316
I3684
sVderived
p4317
I438
sVgerminal
p4318
I5007
sVreflect
p4319
I4392
sVfd
p4320
I5122
sVinvasion
p4321
I1171
sVphosl
p4322
I4558
sVfl
p4323
I1368
sVconcerns
p4324
I4397
sVa
I13
sVe26
p4325
I1659
sVshort
p4326
I183
sVenzymes
p4327
I3722
sVenvisioned
p4328
I4247
sVbiomarker
p4329
I260
sVheight
p4330
I5619
sV)
I47
sVards
p4331
I5540
sVpromotes
p4332
I1447
sVnsaids
p4333
I1847
sVscsd
p4334
I4093
sVegc
p4335
I92
sVegf
p4336
I3445
sVturnover
p4337
I5035
sVparaventricular
p4338
I4038
sVhelp
p4339
I2014
sVcopper
p4340
I1850
sVdeveloped
p4341
I128
sVfingolimod
p4342
I983
sV1.9%
p4343
I5086
sVscientist
p4344
I4853
sVhela
p4345
I4972
sV1.98
p4346
I2450
sVtff3-mediated
p4347
I2823
sVnkg2d
p4348
I1796
sVcardiovascular
p4349
I2180
sVif1
p4350
I2474
sVadverse
p4351
I86
sVlateral
p4352
I1099
sVcholestasis
p4353
I1694
sVfate
p4354
I3253
sVcomplex
p4355
I2244
sVabsence
p4356
I5174
sVupf1
p4357
I5135
sVsystems
p4358
I519
sVinterleukin-6
p4359
I1350
sVneuroprotective
p4360
I1325
sVmight
p4361
I1354
sValter
p4362
I3040
sVcea
p4363
I4969
sVfood
p4364
I2836
sVcem
p4365
I2399
sVbromodomain
p4366
I3671
sVframework
p4367
I1183
sVcer
p4368
I113
sVcommunities
p4369
I4334
sVmyocardiocytes
p4370
I3428
sVdownregulation
p4371
I274
sVgrowing
p4372
I5129
sVfully
p4373
I2432
sVlevel
p4374
I63
sVretinitis
p4375
I2795
sVangiogenic
p4376
I2749
sVintolerable
p4377
I2945
sVcharacterized
p4378
I268
sVreferred
p4379
I1666
sVweight
p4380
I3665
sVgeneration
p4381
I222
sVmir-3680
p4382
I3589
sVrecapitulate
p4383
I198
sVbeen
p4384
I149
sVcgvhd
p4385
I2647
sVloops
p4386
I3805
sV5fu
p4387
I3548
sVsubstrate
p4388
I3786
sVpolyglutamate
p4389
I3814
sValcohol
p4390
I3135
sVh3k36me3
p4391
I5482
sVconfounders
p4392
I3720
sVglycation
p4393
I2146
sVsynaptosomal
p4394
I5141
sVsince
p4395
I485
sVinduces
p4396
I307
sVviability
p4397
I2806
sVdiffer
p4398
I1955
sVhealth
p4399
I2761
sVsyb-1
p4400
I897
sV7
I769
sVmyocardium
p4401
I3694
sVinduced
p4402
I310
sVremodeling
p4403
I2243
sVdysregulation
p4404
I1340
sV-subunit
p4405
I1158
sVeosinophilic
p4406
I4516
sVcausally
p4407
I2410
sV2.3.4
p4408
I4448
sVribose
p4409
I4937
sVdipstick
p4410
I568
sVlesser
p4411
I3736
sV-2,3
p4412
I4449
sValzheimer
p4413
I841
sVasd
p4414
I1206
sVput
p4415
I2190
sVgenerate
p4416
I460
sVstellate
p4417
I3556
sVvillous
p4418
I4766
sVunique
p4419
I4504
sVcipn
p4420
I3049
sVbtms
p4421
I5036
sVamerican
p4422
I2838
sV.049
p4423
I5588
sVthreat
p4424
I2759
sVundergo
p4425
I3538
sVhodgkin
p4426
I1609
sVantibody
p4427
I2489
sVprobability
p4428
I4318
sVencoding
p4429
I1157
sVoncologist
p4430
I5013
sVhsv-1
p4431
I1008
sVreflected
p4432
I4767
sVlinking
p4433
I1809
sVenlarged
p4434
I3625
sVdefects
p4435
I1013
sVabrogated
p4436
I2919
sVolaparib
p4437
I1113
sVsubnetworks
p4438
I1953
sVleading
p4439
I1488
sVinteract
p4440
I1563
sVfibrillation
p4441
I1438
sVmosaic
p4442
I2306
sVhundred
p4443
I2191
sVheadache
p4444
I3075
sVmainstay
p4445
I4402
sVoption
p4446
I912
sVpump
p4447
I1690
sVbowel
p4448
I627
sVantitumor
p4449
I139
sVlupus
p4450
I4697
sVvilli
p4451
I2557
sVbasal
p4452
I976
sVnci
p4453
I3704
sVofa
p4454
I3817
sVsignaling
p4455
I400
sVauthors
p4456
I1053
sVrecourse
p4457
I5456
sVu-25
p4458
I4541
sVneuropathic
p4459
I3050
sV\u000a\u000a 
p4460
I2152
sVchmi
p4461
I4817
sVdouble
p4462
I829
sVneuropathy
p4463
I2093
sVaims
p4464
I1009
sV-mutant
p4465
I2873
sVil-23
p4466
I2492
sVpedf
p4467
I5300
sVrisks
p4468
I754
sVcbct
p4469
I5477
sVsts
p4470
I5030
sVtoward
p4471
I2397
sVnewborns
p4472
I2771
sVsirt1
p4473
I1869
sVquestionnaire
p4474
I3220
sVexert
p4475
I3938
sVurgently
p4476
I3073
sVglioblastoma
p4477
I954
sVlncrnas
p4478
I2003
sV7q
p4479
I4721
sVconcentration
p4480
I2471
sVorgans
p4481
I4527
sVvulnerable
p4482
I2755
sVrobustly
p4483
I1951
sVphenotypic
p4484
I3258
sVstapf
p4485
I685
sVpotentiated
p4486
I1232
sVtrimethylation
p4487
I3650
sVinterferes
p4488
I4777
sVrs895819
p4489
I5161
sVgenetically
p4490
I4390
sVdonor
p4491
I4488
sVproline
p4492
I358
sV7%
p4493
I4869
sVcaliber
p4494
I2683
sV64
p4495
I5341
sVneedle
p4496
I4919
sVretinal
p4497
I2682
sVmeasures
p4498
I5350
sVimprinted
p4499
I1032
sVmace
p4500
I2780
sVimpacting
p4501
I3264
sV72
p4502
I4949
sVimmunologic
p4503
I5061
sVadr5000
p4504
I2400
sVnothing
p4505
I2035
sValpha
p4506
I3105
sVmeasured
p4507
I330
sVapproved
p4508
I1285
sVmir-143
p4509
I3863
sVappear
p4510
I4436
sVvalue
p4511
I430
sVprostatic
p4512
I5008
sVmineral
p4513
I4153
sV5-fold
p4514
I3191
sVperformances
p4515
I1295
sVclear
p4516
I2735
sVfluidity
p4517
I1939
sVdelta-5-desaturases
p4518
I2441
sVtraditional
p4519
I2184
sVpostmenopausal
p4520
I5037
sVchemical
p4521
I4520
sVprototypic
p4522
I4716
sVelectrons
p4523
I459
sV2.06
p4524
I2447
sVnotch
p4525
I2707
sVinstitutions
p4526
I4337
sV2.03
p4527
I1728
sVsubpopulations
p4528
I4348
sVhyper
p4529
I3469
sVbrg1-deficient
p4530
I4916
sVphenomenon
p4531
I4037
sVreassembled
p4532
I3247
sVcdi
p4533
I3531
sVarea
p4534
I5199
sVcdr
p4535
I5629
sVneuroendocrine
p4536
I4033
sVifh
p4537
I437
sVcausality
p4538
I3137
sVparameters
p4539
I95
sVupar
p4540
I2280
sViec
p4541
I2564
sVhip
p4542
I3329
sVhis
p4543
I2794
sVdominant
p4544
I3002
sVhiv
p4545
I1892
sVproteasome
p4546
I3984
sVconnections
p4547
I2589
sVbiopsy
p4548
I1603
sVmcf-10a.
p4549
I4588
sVcd4
p4550
I1480
sV1.88
p4551
I655
sVdry
p4552
I2649
sVduring
p4553
I160
sVdose
p4554
I1371
sV69
p4555
I3492
sVhim
p4556
I5017
sVadulthood
p4557
I5363
sVcontinuum
p4558
I4369
sVtransgenic
p4559
I4674
sVlipogenesis
p4560
I5313
sVprogesterone
p4561
I2863
sVbatteries
p4562
I5323
sVacellular
p4563
I803
sVsurvivin
p4564
I1546
sVhypo
p4565
I3471
sVlyqb
p4566
I3291
sVtov2223
p4567
I3059
sVpluripotent
p4568
I4319
sVarq
p4569
I1710
sVbarr
p4570
I4120
sVart
p4571
I5348
sVneuroblasts
p4572
I4680
sVsupporting
p4573
I2272
sVhmkp
p4574
I3306
sVtrap-5
p4575
I5516
sVachieves
p4576
I1801
sVculture
p4577
I3414
sVschizophrenia
p4578
I682
sVpac-1
p4579
I3415
sVinjecting
p4580
I4654
sVpvd
p4581
I4683
sVmediators
p4582
I3711
sVchambers
p4583
I4547
sVpolymorphic
p4584
I4325
sVarm
p4585
I5583
sVbaldness
p4586
I5430
sVpvn
p4587
I3917
sVthrombocytopenia
p4588
I1663
sVdistinctive
p4589
I3304
sVtcga
p4590
I377
sVcoordination
p4591
I4279
sVplatelet
p4592
I2960
sVvarious
p4593
I393
sVprobably
p4594
I3586
sVconditions
p4595
I497
sVprofiling
p4596
I1479
sVrecently
p4597
I127
sVstatistically
p4598
I4624
sVmissing
p4599
I2627
sVinitially
p4600
I2833
sVattention
p4601
I2253
sVulcerative
p4602
I2194
sVpoorer
p4603
I745
sVuuo
p4604
I1536
sVrapid
p4605
I2509
sVdistinguish
p4606
I5048
sVpcas
p4607
I615
sVboth
p4608
I60
sVc
I54
sVdmn
p4609
I1391
sVsputum
p4610
I3789
sVcomponents
p4611
I2215
sVdensity
p4612
I2480
sVsensitive
p4613
I1111
sVcontext
p4614
I1764
sVexperimental
p4615
I997
sVphosphor(p)-erk
p4616
I3074
sVregulates
p4617
I1495
sVdistress
p4618
I3218
sVreasons
p4619
I5568
sVsepsis
p4620
I607
sVdecipher
p4621
I3543
sVhyperfiltration
p4622
I4491
sVregulated
p4623
I2351
sVcrispr
p4624
I678
sVvessel
p4625
I369
sVtgn
p4626
I1646
sVswi
p4627
I2240
sVdecline
p4628
I1831
sVcomplication
p4629
I2648
sVhistopathologically
p4630
I3833
sV288
p4631
I1249
sVdue
p4632
I465
sVstrategy
p4633
I2618
sVpb
p4634
I1910
sVpc
p4635
I2303
sVreduction
p4636
I1938
sVdescribes
p4637
I674
sVsirnas
p4638
I3581
sVpd
p4639
I2660
sVpe
p4640
I2747
sVcollected
p4641
I4958
sVgestalt
p4642
I4012
sVph
p4643
I2237
sVpi
p4644
I66
sVpn
p4645
I5225
sVadenomas
p4646
I1956
sVpm
p4647
I3721
sVgenerating
p4648
I3519
sVpenicillamine
p4649
I1848
sVrecapitulates
p4650
I3536
sVcovariance
p4651
I1818
sVdetermination
p4652
I4595
sVliver
p4653
I1695
sVbulbar
p4654
I5574
sVplants
p4655
I2308
sVllcs
p4656
I2053
sVtegumentary
p4657
I2839
sVevaluated
p4658
I229
sVunprecedented
p4659
I513
sVhealthy
p4660
I1909
sVwhile
p4661
I154
sVhxpa
p4662
I3286
sVbehavior
p4663
I5248
sVm.d.
p4664
I3676
sVhaplotypes
p4665
I3289
sVtranscripts
p4666
I5142
sVciliary
p4667
I5303
sVcomputed
p4668
I3555
sVlymphoproliferative
p4669
I3029
sVherein
p4670
I1522
sVobstacle
p4671
I3921
sVethnicity
p4672
I1775
sVconfirms
p4673
I3706
sVstimulates
p4674
I3484
sVlengths
p4675
I4563
sVbelong
p4676
I3973
sVdermoepidermal
p4677
I4666
sVstimulated
p4678
I1507
sVsimultaneous
p4679
I3820
sVmegaloblastic
p4680
I2462
sVwidely
p4681
I2966
sV9
I2340
sVneoadjuvant
p4682
I1839
sVhigher
p4683
I75
sVliterature
p4684
I635
sVfatty
p4685
I1641
sVoptic
p4686
I2799
sVphysiopathology
p4687
I5131
sVwilson
p4688
I1854
sVdomains
p4689
I5364
sVrobust
p4690
I273
sVdesmoplasia
p4691
I4466
sVlower
p4692
I353
sVabnormality
p4693
I4167
sV15.5
p4694
I5447
sVcystectomy
p4695
I3926
sVolder
p4696
I3217
sVmyeloma
p4697
I4512
sVanalysis
p4698
I387
sVobviously
p4699
I2222
sVakt1
p4700
I5205
sVedge
p4701
I3372
sVgse
p4702
I3961
sVgsk
p4703
I3511
sVaptamer
p4704
I5310
sVburden
p4705
I179
sVcvb3
p4706
I2769
sVcholangiocarcinoma
p4707
I4124
sVreviewed
p4708
I2478
sVeffector
p4709
I2620
sVinactive
p4710
I1055
sVquestions
p4711
I4713
sV0.0001
p4712
I5089
sVextracted
p4713
I5472
sVexclusively
p4714
I1268
sVfractionated
p4715
I5480
sV-acetylaspartate
p4716
I3756
sVprominent
p4717
I2118
sVremaining
p4718
I3196
sVbuild
p4719
I380
sVvaginosis
p4720
I3294
sVgvhd
p4721
I3987
sVhomozygous
p4722
I344
sVmicrorna
p4723
I2311
sVevaluate
p4724
I756
sVrbcs
p4725
I5379
sVunlimited
p4726
I3575
sVcatalan
p4727
I5346
sVrhbdf2
p4728
I1057
sVandrographolide
p4729
I4710
sV67%
p4730
I4414
sVlike
p4731
I2201
sVmodifications
p4732
I3610
sVaav2
p4733
I1003
sVshaped
p4734
I944
sVfnas
p4735
I1417
sVinterestingly
p4736
I1561
sVcompulsivity
p4737
I4991
sVelesclomol
p4738
I2872
sVmanifest
p4739
I3361
sVdeleterious
p4740
I2583
sVth17
p4741
I923
sVbyproduct
p4742
I4018
sVrearrangement
p4743
I2954
sVeeg
p4744
I5153
sVinjury
p4745
I1334
sVessential
p4746
I2751
sVtubular
p4747
I1415
sVfam60a
p4748
I4640
sVulcers
p4749
I4684
sVunderstood
p4750
I2113
sVexperienced
p4751
I651
sV3.2
p4752
I3229
sVadmitted
p4753
I5503
sV3.1
p4754
I901
sVcxcl10
p4755
I1163
sVresected
p4756
I3365
sVlobar
p4757
I3406
sVadoptive
p4758
I2218
sVser345
p4759
I3851
sVtends
p4760
I2157
sVminimal
p4761
I4165
sVlaxa
p4762
I5261
sVeating
p4763
I3467
sVremyelination
p4764
I5188
sVstem
p4765
I313
sVcaski
p4766
I4976
sVneurovisceral
p4767
I1567
sVnerves
p4768
I4746
sVc1q
p4769
I5493
sVvaccine
p4770
I2902
sVshine
p4771
I1023
sVglaucoma
p4772
I700
sVsmbl
p4773
I2546
sVleukaemia
p4774
I3168
sVrange
p4775
I673
sVinhibits
p4776
I2531
sVreplacement
p4777
I1800
sVidc
p4778
I982
sVgamma
p4779
I5296
sVcutoff
p4780
I4941
sVcas9-mediated
p4781
I2122
sVcarcinosarcoma
p4782
I3626
sV70
p4783
I2884
sVmutagenic
p4784
I2668
sVcdk1
p4785
I1540
sV73.8%
p4786
I5069
sVimmunotherapeutic
p4787
I4660
sVseasons
p4788
I3093
sVgaucher
p4789
I5344
sVca4
p4790
I839
sVburials
p4791
I4833
sVrenewal
p4792
I2288
sVtreated
p4793
I1622
sVosseous
p4794
I4110
sVplacing
p4795
I5377
sVlong
p4796
I1946
sVhepatocyte
p4797
I4086
sVachievement
p4798
I5020
sVmalat1
p4799
I4260
sVaberrations
p4800
I618
sVsections
p4801
I3951
sVrecord
p4802
I3222
sVgreat
p4803
I1318
sVmemory
p4804
I1240
sVsphingolipid
p4805
I4775
sVhyperphosphorylated
p4806
I2540
sVlibrary
p4807
I5311
sVwnt
p4808
I3422
sVkg
p4809
I1297
sVinjection
p4810
I3663
sVraising
p4811
I4396
sVfda
p4812
I2837
sVfdg
p4813
I434
sVcharacteristic
p4814
I4108
sVleukemogenesis
p4815
I4575
sVchemosensitivity
p4816
I4100
sVgrowth
p4817
I1464
sVheterogeneous
p4818
I1207
sVhighlight
p4819
I3173
sVsimilar
p4820
I22
sVescc
p4821
I2196
sVassociated
p4822
I40
sVestrogen
p4823
I1145
sVinterventions
p4824
I2016
sVmecp2
p4825
I3180
sVdhl-6
p4826
I5107
sVtomography
p4827
I442
sVdhl-8
p4828
I5112
sVkidney
p4829
I1397
sVtransmissibility
p4830
I1257
sVnaa
p4831
I3757
sVamounts
p4832
I3875
sVmannose
p4833
I5530
sVapplication
p4834
I675
sVtransport
p4835
I3442
sVincome
p4836
I529
sVdepartment
p4837
I5356
sV1.370
p4838
I4209
sVtreatments
p4839
I3480
sVatheromatous
p4840
I1991
sVbackbone
p4841
I4445
sVproblems
p4842
I1814
sVbreasts
p4843
I5402
sVglomerular
p4844
I1401
sVgenerated
p4845
I1024
sVallowing
p4846
I3577
sVhighlighting
p4847
I1860
sVrestrained
p4848
I3517
sVostp
p4849
I3340
sVindependently
p4850
I4261
sVcorrelated
p4851
I2702
sVe
I2536
sVfluorescence
p4852
I2936
sVocular
p4853
I2651
sVsvd
p4854
I370
sVrequired
p4855
I2301
sV84.1%
p4856
I5070
sVdepth
p4857
I1517
sVcorrelates
p4858
I2639
sVbroad
p4859
I3021
sVamyloidosis
p4860
I1634
sV2d.
p4861
I5251
sVrequires
p4862
I3488
sVonce
p4863
I3397
sVucpps
p4864
I5491
sVht-29
p4865
I3378
sVresistance
p4866
I1091
sVastrogliosis
p4867
I5182
sVeds
p4868
I5365
sVgd
p4869
I5347
sVimb-6
p4870
I2763
sV-protein
p4871
I2539
sVtumours
p4872
I950
sVnanobeads
p4873
I4963
sVadjustment
p4874
I1825
sVcontributions
p4875
I2373
sVammonia
p4876
I3732
sVissues
p4877
I2657
sVgh
p4878
I2745
sVprospectively
p4879
I5556
sVaric
p4880
I4335
sVstably
p4881
I2197
sVuninformative
p4882
I2868
sVradiological
p4883
I3551
sVesd
p4884
I89
sVstable
p4885
I1375
sVsuite
p4886
I4882
sVinclude
p4887
I3728
sVdramatically
p4888
I2738
sVsnail1
p4889
I2719
sVinflammation
p4890
I1797
sVoverlaps
p4891
I3473
sVionizing
p4892
I2267
sVg3
p4893
I2976
sVdelta-5-desaturase
p4894
I2494
sVengineered
p4895
I2051
sV-specific
p4896
I921
sVcellular
p4897
I1201
sVneurodevelopment
p4898
I3472
sVartery
p4899
I766
sVpolymeric
p4900
I4303
sVconnexin
p4901
I4200
sVexits
p4902
I2161
sVrtt
p4903
I4296
sVgender
p4904
I4241
sVbmi
p4905
I329
sVepstein
p4906
I4119
sVibd
p4907
I1957
sVmotoneurons
p4908
I294
sVdysregulated
p4909
I2365
sVgo
p4910
I968
sVacid
p4911
I1642
sVreclassification
p4912
I3897
sVfli
p4913
I3594
sVturn
p4914
I1293
sVtmem106b
p4915
I3537
sVmononuclear
p4916
I2985
sVnetworks
p4917
I2317
sVcell
p4918
I555
sVexperiment
p4919
I1165
sVthen
p4920
I2379
sVrelocate
p4921
I3436
sV;
I104
sVth22
p4922
I3795
sVpmbcl
p4923
I1607
sVmultivariate
p4924
I1824
sV/l.
p4925
I3390
sVfocuses
p4926
I2329
sVcyclooxygenase-2
p4927
I4926
sVphotothermal
p4928
I1647
sVdegree
p4929
I1064
sVtregs
p4930
I1932
sVradicals
p4931
I461
sVexplore
p4932
I249
sVfocused
p4933
I157
sVantiradical
p4934
I1329
sVperforation
p4935
I117
sVpreeclampsia
p4936
I2746
sVdmt2
p4937
I5610
sVipth
p4938
I4065
sVdistressed
p4939
I3141
sVgent
p4940
I4380
sVreminiscent
p4941
I2081
sVtelangiectasia
p4942
I889
sVcamkii
p4943
I4699
sVfasciitis
p4944
I2228
sVsuggests
p4945
I859
sVpreferentially
p4946
I3443
sVproducts
p4947
I2147
sVusability
p4948
I2610
sVserpine1
p4949
I2281
sValthough
p4950
I1358
sVegypt
p4951
I5385
sVpxr
p4952
I4367
sVapp
p4953
I1017
sV26%
p4954
I1975
sVconcertedly
p4955
I4409
sVapn
p4956
I1245
sVmotor
p4957
I3076
sVinfiltrating
p4958
I296
sVchemoprevention
p4959
I1149
sVapply
p4960
I1182
sVmanipulate
p4961
I681
sVuse
p4962
I1894
sVfrom
p4963
I439
sVconsumption
p4964
I3614
sVremains
p4965
I1487
sVneutrophil
p4966
I2959
sV1]]~~
p4967
I4
sVgerm
p4968
I833
sVfew
p4969
I1885
sVexamination
p4970
I5457
sVvehicle
p4971
I4550
sVpanel
p4972
I1234
sVpolyneuropathy
p4973
I5065
sVpsoriasis
p4974
I2828
sValloimmunized
p4975
I5373
sVstarted
p4976
I2619
sVtylosis
p4977
I265
sVabout
p4978
I2036
sVinfection
p4979
I1742
sVcooperate
p4980
I4437
sVvirulence
p4981
I5548
sVactual
p4982
I2631
sVdisabling
p4983
I4236
sVwomen
p4984
I650
sVparalleled
p4985
I4659
sVhomeobox
p4986
I4077
sVaugment
p4987
I3429
sV2.0060.62
p4988
I2882
sVmetastases
p4989
I760
sVinhibitor
p4990
I235
sVdropped
p4991
I1769
sVcontrol
p4992
I931
sVtau
p4993
I1961
sVmicrobleeds
p4994
I1779
sVcouncil
p4995
I4857
sV0.3
p4996
I1738
sVlysosomes
p4997
I3109
sVtaz
p4998
I2445
sVmoyamoya
p4999
I4043
sVtaa
p5000
I2058
sVdocumenting
p5001
I1590
sVher2/neu
p5002
I5382
sVspherogenesis
p5003
I2202
sVunited
p5004
I2835
sVsyndrome
p5005
I614
sVdefective
p5006
I3102
sVscarring
p5007
I5184
sVsix
p5008
I3003
sVinaugural
p5009
I5018
sVoccur
p5010
I1014
sVprognosis
p5011
I542
sVinstead
p5012
I4424
sVsii
p5013
I3758
sV\u000a\u000a          \u000a\u000a        \u000a\u000a          \u000a\u000a        
p5014
I4042
sVcircular
p5015
I5290
sVtuberculous
p5016
I4222
sVexpress
p5017
I2056
sVmaternal
p5018
I5563
sVmsdk
p5019
I3024
sVdemonstrates
p5020
I1289
sVhazard
p5021
I2446
sVhupt-3
p5022
I2773
sVp=0.047
p5023
I5453
sVcd5
p5024
I5083
sVlight
p5025
I258
sVmetastasis
p5026
I550
sVabmc
p5027
I4636
sVhealthcare
p5028
I518
sVlocomotor
p5029
I1306
sVleast
p5030
I852
sVkbm
p5031
I3256
sVfacilitated
p5032
I5520
sV133
p5033
I5336
sV130
p5034
I2922
sVincluding
p5035
I38
sV136
p5036
I1965
sVmentioned
p5037
I5431
sVkbp
p5038
I3257
sVsuperior
p5039
I3435
sVlongitudinal
p5040
I963
sVcd8
p5041
I1241
sVtemporal
p5042
I846
sV1.84
p5043
I3155
sVcscs
p5044
I1783
sVrestrain
p5045
I2346
sVh3
p5046
I1435
sVimbalance
p5047
I2748
sVdefining
p5048
I3559
sVmn
p5049
I295
sVfrontal
p5050
I845
sVcomprehensively
p5051
I3459
sVpractice
p5052
I2378
sVoxidizing
p5053
I3785
sVmetabolically
p5054
I5283
sVmicrocephaly
p5055
I2414
sVimpaired
p5056
I1200
sVdocumented
p5057
I2238
sVcmyc
p5058
I1545
sVcrt
p5059
I4503
sVprofound
p5060
I3082
sVuniversity
p5061
I3637
sVnfl
p5062
I5581
sVnfj
p5063
I5257
sVunpredictable
p5064
I5381
sVmagnitude
p5065
I1320
sVmode
p5066
I1389
sVreceptor
p5067
I170
sVsnf
p5068
I2241
sVcytogenetic
p5069
I2043
sVfilopodia
p5070
I3620
sVmap
p5071
I4898
sVlys27
p5072
I3507
sVmet
p5073
I4228
sVrelated
p5074
I123
sVconstitute
p5075
I4320
sV88
p5076
I3943
sVinterplay
p5077
I2483
sVhlh
p5078
I2072
sV82
p5079
I5535
sVour
p5080
I742
sV80
p5081
I3499
sVcholesterogenesis
p5082
I5314
sVtransitional
p5083
I2166
sV84
p5084
I3942
sVout
p5085
I4672
sV2.35
p5086
I4133
sVagnoprotein
p5087
I4435
sVcerebral
p5088
I765
sVmir-130b
p5089
I2690
sV2.39
p5090
I1733
sVinvestigate
p5091
I428
sVf]-florbetaben
p5092
I4944
sV20102013
p5093
I4903
sVinduction
p5094
I475
sVintegrated
p5095
I3818
sVexcess
p5096
I620
sVhomeobox-1
p5097
I5405
sVecg
p5098
I5367
sVimmunohistochemistry
p5099
I3634
sVecm
p5100
I4468
sVrecommendations
p5101
I3014
sVattending
p5102
I5191
sVcompletely
p5103
I3069
sVancestry
p5104
I4332
sVx
I1228
sVobliteration
p5105
I2928
sVcompositions
p5106
I3108
sVbasophil
p5107
I3880
sV0.73
p5108
I595
sVpancreatic
p5109
I1086
sVovertake
p5110
I3526
sVorganic
p5111
I1509
sVg
I1029
sVdiminished
p5112
I2293
sVfeasible
p5113
I677
sVcounterpart
p5114
I5230
sVelectroencephalographic
p5115
I4732
sVhence
p5116
I1836
sVdiminishes
p5117
I2989
sVlagged
p5118
I4726
sVprospective
p5119
I246
sVcmml
p5120
I2048
sVpowerful
p5121
I676
sVdate
p5122
I3430
sV-/-
p5123
I2910
sVdrinker
p5124
I5160
sVquality
p5125
I2760
sVbetween
p5126
I339
sVendemic
p5127
I1576
sVtherapeutics
p5128
I2115
sVmanagement
p5129
I4416
sVhematogenous
p5130
I1963
sVunknown
p5131
I2247
sVachieved
p5132
I1374
sVadopted
p5133
I2343
sVantiinflammatory
p5134
I1328
sVtheir
p5135
I1880
sVattack
p5136
I4804
sV0.242
p5137
I4262
sVigf-1r
p5138
I1230
sVanaemia
p5139
I2153
sVankle
p5140
I2678
sVchemotherapy
p5141
I1842
sVfinal
p5142
I2788
sVpathogen
p5143
I2770
sV99.3
p5144
I4212
sVrsk
p5145
I3741
sVreversed
p5146
I2718
sVfoliar
p5147
I4904
sVchemicals
p5148
I1137
sVreflecting
p5149
I241
sVsuitability
p5150
I3261
sVifn--induced
p5151
I855
sVsynergistic
p5152
I2160
sVjuly
p5153
I5500
sVctnt
p5154
I2592
sVmorbidity
p5155
I2169
sVinstitution
p5156
I4605
sVcirrhosis
p5157
I4759
sVarthroplasty
p5158
I3330
sVcongenital
p5159
I4092
sVjohnson
p5160
I4005
sVara
p5161
I4702
sVaspiration
p5162
I120
sVinfectious
p5163
I4114
sVdiscriminating
p5164
I1782
sVpatients
p5165
I68
sVdefense
p5166
I3505
sVpve
p5167
I4913
sVnaturally
p5168
I2484
sVbet
p5169
I3673
sVmigration
p5170
I1170
sVexhibit
p5171
I2563
sVenforced
p5172
I3350
sV1.0
p5173
I5572
sV1.1
p5174
I3233
sV1.2
p5175
I3230
sVasics
p5176
I2098
sVdelineated
p5177
I4592
sV2.2
p5178
I3232
sVneed
p5179
I1861
sVlinked
p5180
I2411
sVgluten
p5181
I3959
sVq
I135
sV2.0
p5182
I1478
sVppci
p5183
I5203
sVcxcl12/cxcr4
p5184
I3597
sVquartile
p5185
I2878
sVil-12
p5186
I2175
sVswitch
p5187
I5375
sVil-10
p5188
I858
sVpolarization
p5189
I4809
sVpivotal
p5190
I3998
sVwhich
p5191
I137
sVhs
p5192
I4754
sV=
I350
sVhp
p5193
I3613
sVqpcr
p5194
I3592
sVsequel
p5195
I2652
sVcombat
p5196
I3883
sVcentre
p5197
I4863
sVwho
p5198
I535
sVbiologic
p5199
I4750
sVcounterbalance
p5200
I415
sV5-aza
p5201
I5628
sVfuture
p5202
I2587
sVnucleotide
p5203
I3821
sVclass
p5204
I3978
sVconsequences
p5205
I2260
sVatypical
p5206
I1873
sVdenv
p5207
I4602
sVtff3
p5208
I2818
sVtkis
p5209
I1231
sVcoinfected
p5210
I1830
sVdiagnostics
p5211
I1066
sVdeletion
p5212
I1988
sVemerging
p5213
I469
sVmetaplasia
p5214
I2083
sVcognitively
p5215
I1070
sVoncology
p5216
I3689
sVcannabinoid
p5217
I145
sVcirrhotic
p5218
I4795
sVsynovial
p5219
I5026
sVplanning
p5220
I5473
sVdebate
p5221
I1362
sVleg
p5222
I5584
sVpartners
p5223
I3971
sVhighest
p5224
I1747
sVbased
p5225
I493
sV(
I45
sVpostioerative
p5226
I5388
sVreceptors
p5227
I1256
sVgra7
p5228
I3503
sVreactive
p5229
I1473
sVcandidates
p5230
I5099
sVinherited
p5231
I1662
sVemployed
p5232
I3124
sVbisphosphonate
p5233
I2127
sVlocal
p5234
I945
sVachieve
p5235
I3929
sVdemonstrated
p5236
I715
sVboris
p5237
I822
sVintranasal
p5238
I1236
sVubc1
p5239
I5604
sVdiagnosing
p5240
I1628
sVquantified
p5241
I2435
sVtbi
p5242
I2723
sVjoint
p5243
I3962
sVt(8;21
p5244
I3573
sVp47phox
p5245
I2174
sVmkt-077
p5246
I5096
sVconsecutive
p5247
I5555
sVentity
p5248
I1021
sVfactor-.
p5249
I2993
sVp=0.008
p5250
I5470
sVevolution
p5251
I4572
sVtobacco
p5252
I2305
sVdpp
p5253
I5169
sVnumerous
p5254
I3420
sVpc-3
p5255
I4032
sV-catenin
p5256
I3421
sVprocessed
p5257
I5569
sVcontain
p5258
I4484
sVshh
p5259
I5302
sVdpn
p5260
I5066
sVcells
p5261
I298
sVpredictive
p5262
I1744
sVshedding
p5263
I2560
sVnitrogen
p5264
I2132
sVacquired
p5265
I964
sVvariations
p5266
I1920
sVhumans
p5267
I1875
sVebv
p5268
I4121
sVp21
p5269
I467
sVusefulness
p5270
I1911
sVprogressive
p5271
I1199
sVdlb
p5272
I52
sVantiarrhythmic
p5273
I3118
sVreperfusion
p5274
I771
sVphospholipase
p5275
I2712
sVvip
p5276
I707
sVstate
p5277
I2078
sVidentification
p5278
I2012
sVclosed
p5279
I4731
sVquartiles
p5280
I2912
sVtens
p5281
I4787
sVkras-
p5282
I4358
sVinfiltration
p5283
I2886
sVcomplement
p5284
I5528
sVspeed
p5285
I3708
sVvariability
p5286
I3945
sVcomparable
p5287
I1411
sVability
p5288
I2207
sVimportance
p5289
I2791
sVremitting
p5290
I1485
sVneonatal
p5291
I2412
sVefficiency
p5292
I3450
sVhypothesis
p5293
I744
sVnchs
p5294
I5621
sVkey
p5295
I32
sVvte
p5296
I5427
sVproblem
p5297
I4152
sVbarrett
p5298
I3856
sVundetermined
p5299
I5132
sVhits
p5300
I3487
sVj4-induced
p5301
I5105
sVstat3
p5302
I857
sVlimits
p5303
I924
sVlxqb
p5304
I3287
sVbronj
p5305
I2130
sVhiv-1
p5306
I4653
sVpresentations
p5307
I1857
sVstrains
p5308
I2213
sVmanifestations
p5309
I2422
sVuniprot
p5310
I3236
sVendmt
p5311
I1048
sVhacat
p5312
I4980
sVsequenced
p5313
I3000
sVunclear
p5314
I341
sVpolygenic
p5315
I746
sVpii
p5316
I77
sVwall
p5317
I2292
sVantioxidant
p5318
I4523
sVptx3
p5319
I3782
sV1.098.95
p5320
I902
sVsequences
p5321
I2328
sVrespect
p5322
I3885
sVpulmonary
p5323
I913
sVelectrocardiogram
p5324
I5366
sVkca3.1
p5325
I5117
sVi.e.
p5326
I2013
sVaddition
p5327
I1441
sVnontumorigenic
p5328
I4978
sVyap
p5329
I561
sVresponds
p5330
I3712
sVp=0.003
p5331
I5469
sVtreat
p5332
I2603
sVnonalcoholic
p5333
I5411
sVhai)-2
p5334
I4087
sVmonoclonal
p5335
I2831
sVdeterminant
p5336
I1820
sVgeneral
p5337
I3219
sVretrospective
p5338
I3297
sVsufficient
p5339
I3901
sVmcao
p5340
I1305
sVarginine
p5341
I345
sVchemoresistance
p5342
I2205
sVexogenous
p5343
I5101
sVlast
p5344
I5127
sVpresent
p5345
I80
sVmultimodal
p5346
I3479
sVnovel
p5347
I195
sVunlike
p5348
I3188
sVccpr
p5349
I4706
sVelectrocardiographic
p5350
I5508
sVemotional
p5351
I1813
sVwill
p5352
I185
sVsynergistically
p5353
I4849
sVwild
p5354
I1412
sVmedicinal
p5355
I692
sVpleiotropic
p5356
I939
sValloimmunization
p5357
I5380
sVmutant
p5358
I1575
sVneuron
p5359
I4965
sVthus
p5360
I1701
sV.10
p5361
I5592
sVsurface
p5362
I2740
sVavs
p5363
I3063
sVdraining
p5364
I2527
sVlonely
p5365
I5220
sVproperties
p5366
I472
sVdual
p5367
I3552
sV4.54
p5368
I3160
sVfto)-dependent
p5369
I3270
sVautoantibodies
p5370
I4670
sVorbital
p5371
I3464
sVhypochlorhydria
p5372
I2361
sVintranasally
p5373
I4744
sVc57bl/6
p5374
I5232
sVtransmembrane
p5375
I4256
sVcross
p5376
I1610
sVglutamate
p5377
I29
sVmember
p5378
I4144
sVpropensity
p5379
I4154
sVparts
p5380
I5420
sVlargest
p5381
I4578
sVdifficult
p5382
I2421
sVsmad4
p5383
I5163
sVeffect
p5384
I231
sVrenin
p5385
I3915
sVctcf&boris
p5386
I832
sVfrequently
p5387
I1519
sVdestruction
p5388
I1652
sVpolymorphism
p5389
I2677
sV1.623.52
p5390
I1734
sVi
I1497
sVmodeled
p5391
I5249
sVwell
p5392
I729
sVfever
p5393
I2426
sVcrizotinib
p5394
I227
sVdeadly
p5395
I5235
sVsensing
p5396
I2095
sVrs602990
p5397
I2676
sVexcessive
p5398
I2653
sVgastritis
p5399
I2355
sVincreasingly
p5400
I752
sVaccurate
p5401
I500
sV5-azacitidine
p5402
I4923
sVdetail
p5403
I4011
sVneurodegeneration
p5404
I893
sVmanifestation
p5405
I3969
sVdistant
p5406
I549
sVps2app
p5407
I4411
sVcns)-hemophagocytic
p5408
I2070
sVtcd
p5409
I4772
sVtcc
p5410
I2167
sVrecapitulated
p5411
I4571
sVdisturbance
p5412
I1811
sVintracerebral
p5413
I1547
sVpanther
p5414
I3239
sVnhl
p5415
I3796
sVncr2
p5416
I2741
sVsig2r
p5417
I3054
sVezh2
p5418
I2216
sVattractive
p5419
I3968
sVnanoparticles
p5420
I4305
sVlymphopenia
p5421
I2104
sVlymphocytes
p5422
I3633
sVpossess
p5423
I4582
sVwarrant
p5424
I1781
sVinsertions
p5425
I3822
sVmurine
p5426
I1985
sVputative
p5427
I419
sVfacial
p5428
I5201
sVsequencing
p5429
I1498
sVvariants
p5430
I1366
sVbcl2
p5431
I4510
sVloss
p5432
I552
sVnecessary
p5433
I5246
sVinsufficiency
p5434
I1599
sVsubstitution
p5435
I1251
sVdietary
p5436
I3651
sVhosts
p5437
I1553
sVlinoleic
p5438
I3654
sVrepressed
p5439
I1491
sVlends
p5440
I478
sVglycoprotein
p5441
I1718
sVshed
p5442
I257
sVbecause
p5443
I453
sVsequence
p5444
I1514
sVneurites
p5445
I5040
sV1/programmed
p5446
I5001
sV20092015
p5447
I970
sVcertain
p5448
I5417
sV114
p5449
I5414
sV117
p5450
I2923
sV116
p5451
I3380
sVexport
p5452
I1689
sV110
p5453
I4146
sVhome
p5454
I657
sVesophagus
p5455
I3857
sVantineoplastic
p5456
I5627
sVleaf
p5457
I4906
sVlead
p5458
I793
sV0.700.78
p5459
I594
sVtraumatic
p5460
I2722
sVlean
p5461
I3666
sVmarkers
p5462
I367
sVmissense
p5463
I4362
sV?
I5285
sVlimitations
p5464
I2335
sVatherosclerotic
p5465
I4577
sVreductase
p5466
I4143
sVst266
p5467
I4745
sVanalysed
p5468
I1033
sVexpansion
p5469
I2076
sVpqtls
p5470
I3474
sVepidemiology
p5471
I1501
sVp38
p5472
I2853
sVtumorous
p5473
I3952
sVmuc5b
p5474
I4531
sVanalyses
p5475
I3750
sVrepair
p5476
I4880
sVafter
p5477
I340
sVrare
p5478
I1223
sVcarried
p5479
I2626
sVanchorage
p5480
I3778
sVduo
p5481
I3769
sVdependence
p5482
I1383
sVrecognized
p5483
I1147
sVcompatible
p5484
I1004
sVcarrier
p5485
I2673
sVmyeloid
p5486
I1274
sVbeige
p5487
I4617
sVupdate
p5488
I5349
sVbmbs
p5489
I3874
sVintracellular
p5490
I1125
sVadditionally
p5491
I1725
sVpreviously
p5492
I1114
sVosteonecrosis
p5493
I2128
sVuncertain
p5494
I5318
sVh4
p5495
I5209
sVh5
p5496
I1264
sVspecificity
p5497
I582
sVultrasound
p5498
I1995
sVpromise
p5499
I1319
sVradioresistance
p5500
I2206
sVutility
p5501
I666
sVspheroids
p5502
I4203
sVtumorigenic
p5503
I471
sVadditional
p5504
I1807
sVwhom
p5505
I4368
sVtransfer
p5506
I2219
sV2.59
p5507
I3165
sVvad
p5508
I46
sVuniting
p5509
I1212
sVdm2
p5510
I2352
sVpa
p5511
I1849
sVexposure
p5512
I652
sVrecruited
p5513
I5396
sVkegg
p5514
I3238
sVef
p5515
I3737
sVmaintenance
p5516
I3799
sVtriggered
p5517
I3993
sVvasculitis
p5518
I5279
sVhr
p5519
I900
sVea
p5520
I4333
sVeac
p5521
I3859
sVeae
p5522
I1000
sVglomeruli
p5523
I4668
sVgait
p5524
I374
sVvolume
p5525
I1301
sVhh
p5526
I399
sVgain
p5527
I261
sVcandidiasis
p5528
I175
sVhc
p5529
I3780
sVha
p5530
I3781
sVhg
p5531
I4046
sVhd
p5532
I4553
sVtruncation
p5533
I4651
sVw100
p5534
I1028
sVmade
p5535
I623
sVdmd
p5536
I2031
sVwhether
p5537
I364
sVphleboviruses
p5538
I2425
sVdescribe
p5539
I4244
sVlvd
p5540
I4284
sVexerts
p5541
I5275
sVglioblastomas
p5542
I961
sVdemonstrate
p5543
I2590
sVganglion
p5544
I4748
sVlvi
p5545
I3872
sVdisplay
p5546
I4695
sVstrengthens
p5547
I2490
sVprkf
p5548
I4495
sVsetd2
p5549
I5481
sVinadequate
p5550
I2363
sVtissues
p5551
I2691
sVcorrection
p5552
I3899
sV---
p5553
I2203
sVmtor
p5554
I4673
sVet
p5555
I4388
sVrestraining
p5556
I4811
sVmyc
p5557
I416
sVeducation
p5558
I3133
sVhumanized
p5559
I3988
sVchromosome
p5560
I2971
sVclinicopathological
p5561
I533
sVfunctions
p5562
I940
sVcaspase-3
p5563
I1432
sVimproving
p5564
I2899
sVsilenced
p5565
I2245
sVpercent
p5566
I4180
sVnonrelapse
p5567
I4951
sVcd20-
p5568
I4841
sVother
p5569
I1270
sVsimvastatin
p5570
I5054
sVconclusion
p5571
I281
sVnsaid
p5572
I3561
sVdiagnosis
p5573
I333
sVliving
p5574
I2262
sVjune
p5575
I5554
sVshown
p5576
I1002
sVsbe
p5577
I624
sVinsults
p5578
I4528
sVcrosslink
p5579
I3878
sVpathways
p5580
I213
sVautophagosomal
p5581
I2793
sVmetabolizes
p5582
I3813
sVhcv
p5583
I1829
sVhomolog
p5584
I3966
sVmacrophage
p5585
I865
sViodo
p5586
I4580
sVdescribed
p5587
I4603
sVnecrosis
p5588
I1667
sVpersistent
p5589
I2908
sVlc3b
p5590
I3064
sVvolumes
p5591
I4501
sVrankl
p5592
I5514
sVvalidation
p5593
I3815
sVindirectly
p5594
I2265
stRp5595
sbsS'dropout'
p5596
F0.25
sS'max_len'
p5597
I100
s.