(dp1
S'dim'
p2
I50
sS'word_dict'
p3
ccopy_reg
_reconstructor
p4
(csnorkel.learning.disc_models.rnn.utils
SymbolTable
p5
c__builtin__
object
p6
NtRp7
(dp8
S'unknown'
p9
I1
sS's'
I5445
sS'd'
g4
(cfuture.types.newdict
newdict
p10
c__builtin__
dict
p11
(dp12
V
I659
sVsecondly
p13
I2529
sVsystematic
p14
I3760
sVpowdery
p15
I1698
sVlocalizes
p16
I2473
sVfour
p17
I1781
sVobstruction
p18
I5024
sVcircuitry
p19
I3015
sVneurodevelopmental
p20
I1911
sVil-33
p21
I934
sVconsists
p22
I2259
sVpluripotency
p23
I4884
sVhcht
p24
I2854
sVlocalized
p25
I2446
sVwhose
p26
I2511
sVauc
p27
I4871
sVaug
p28
I1375
sVthoracal
p29
I4956
sVsegments
p30
I4959
sVsimilarity
p31
I3583
sVimmature
p32
I3887
sVcys360tyr
p33
I3700
sVcytochrome
p34
I5204
sVosteoblastic
p35
I1502
sVhormone
p36
I2557
sVshielding
p37
I3063
sVrescue
p38
I201
sVdownstream
p39
I1921
sVactivation
p40
I85
sVregional
p41
I4983
sVintriguing
p42
I4301
sVosteoblast
p43
I4211
sVpigment
p44
I3939
sVprobability
p45
I4245
sVaffect
p46
I2616
sVpycr1
p47
I3772
sVdifferentiated
p48
I5168
sVpersister
p49
I3113
sVsolution
p50
I3323
sVupa
p51
I3928
sVvector
p52
I666
sVenhance
p53
I1169
sVupr
p54
I496
sVuncovers
p55
I515
sVchloroplast
p56
I398
sVlysosomal
p57
I161
sV27%
p58
I1197
sVsenescence
p59
I1338
sVcytomegalovirus
p60
I548
sVjapanese
p61
I4122
sV270
p62
I5349
sVsecond
p63
I1318
sV278
p64
I1396
sVher2
p65
I707
sVeven
p66
I879
sVneo
p67
I4946
sVcontributed
p68
I1510
sVfingers
p69
I5235
sVasia
p70
I4129
sVliberated
p71
I5028
sVbeclin1-vacuolar
p72
I2495
sVnew
p73
I516
sVheterotrimeric
p74
I827
sVcontributes
p75
I2020
sVh&e
p76
I1090
sVniche
p77
I3646
sVmef
p78
I2039
sVreporter
p79
I2008
sVnever
p80
I5089
sVhere
p81
I232
sV10%
p82
I4652
sVreported
p83
I1916
sV108
p84
I2794
sVmev
p85
I767
sVmeq
p86
I1644
sVactive
p87
I2852
sV103
p88
I2287
sV100
p89
I2584
sV101
p90
I2793
sVherv
p91
I1133
sVinterpret
p92
I581
sVpancreas
p93
I2311
sVrecessive
p94
I3769
sVk
I1134
sVcatalyzes
p95
I5057
sVegcg
p96
I238
sVreports
p97
I4300
sVtransfected
p98
I1594
sVloop
p99
I2438
sV2.0627.17
p100
I4676
sVcomplicated
p101
I1454
sVsuitable
p102
I3698
sVoligonucleotide
p103
I3850
sVinterferon
p104
I3710
sVangelman
p105
I3122
sVmobility
p106
I2491
sVexplained
p107
I648
sVbrought
p108
I1844
sVchaperones
p109
I4493
sVerythroblast
p110
I1709
sVlandscape
p111
I1885
sV28.9%
p112
I3976
sVderivatives
p113
I2865
sVdna
p114
I114
sVole1
p115
I4307
sVe1
p116
I2643
sVmortality
p117
I2549
sVdni
p118
I1103
sVarms
p119
I4605
sVtherefore
p120
I1130
sVtype
p121
I1128
sVuntil
p122
I599
sV1-induced
p123
I4021
sVester
p124
I5332
sVlungs
p125
I3146
sVpopulations
p126
I2504
sVsuccessful
p127
I600
sV43
p128
I4538
sVris
p129
I5267
sVdisruption
p130
I2817
sVtetraploid
p131
I4340
sVdpcr
p132
I2313
sVtransiently
p133
I5107
sVadult
p134
I2603
sVucp1
p135
I5287
sV91
p136
I2717
sV90
p137
I5006
sVppgpp
p138
I3115
sValigned
p139
I5072
sVselex
p140
I4193
sVprrsv
p141
I34
sV96
p142
I266
sVsfrp1
p143
I2886
sVisgf3
p144
I4909
sVphosphoregulation
p145
I3196
sVdazl
p146
I3491
sVproteasomal
p147
I1567
sVexample
p148
I3857
sVorganized
p149
I4776
sVrgc-1066
p150
I2396
sVascites
p151
I1950
sVinvolve
p152
I3835
sVmir219-mescs
p153
I5361
sV8-ohdg
p154
I1202
sVisothermal
p155
I5261
sVabsolute
p156
I4083
sVkinetochore
p157
I3199
sVaging
p158
I2152
sVtripolymer
p159
I3367
sVpredictors
p160
I1248
sVturn
p161
I2679
sVdamage
p162
I137
sVhow
p163
I1969
sValdehyde
p164
I1773
sVsignificance
p165
I1986
sVanswer
p166
I4640
sVagglutination
p167
I385
sVclassify
p168
I340
sVmethionines
p169
I1379
sVundergoing
p170
I4850
sVmodulation
p171
I1528
sVova
p172
I664
sVinvolvement
p173
I4672
sVcarnitine
p174
I2049
sVs228i
p175
I4717
sVtypes
p176
I939
sVstimulates
p177
I36
sVeffective
p178
I2964
sVufm1
p179
I1694
sVmutagenesis
p180
I2381
sVrecombination
p181
I3043
sVfungi
p182
I1898
sVser135
p183
I4401
sVmaintain
p184
I596
sVfrequent
p185
I4869
sVmitofusin-2
p186
I2168
sVoperate
p187
I5049
sVicam-4
p188
I1714
sVrestriction
p189
I211
sVfeedback
p190
I2131
sVkappab
p191
I2215
sVantisense
p192
I2845
sVvary
p193
I1398
sVamphipathic
p194
I2112
sVneoangiogenesis
p195
I4361
sVresponsive
p196
I4108
sVactivating
p197
I2642
sVbefore
p198
I4226
sVscoring
p199
I3263
sVligand
p200
I4728
sVdirectional
p201
I5096
sVnsp8
p202
I2451
sVsurvivors
p203
I948
sVcrrna
p204
I4461
sVmatured
p205
I5374
sVdifferently
p206
I960
sVcreb
p207
I4110
sVovercome
p208
I4055
sVwidely
p209
I1346
sVinoculated
p210
I5125
sVfixation
p211
I5209
sVenrich
p212
I1326
sVdisturb
p213
I2615
sV9
I2297
sVhypoxia
p214
I3391
sVtherapy
p215
I189
sVeffects
p216
I467
sVbronchial
p217
I3162
sVmimicking
p218
I1856
sVsilver
p219
I712
sVstructural
p220
I309
sVrepresents
p221
I3302
sVmisrejoining
p222
I5165
sVphotosynthetic
p223
I3278
sVs5a
p224
I4557
sVscfv
p225
I4352
sVpreferential
p226
I2099
sVacms
p227
I3105
sVbona
p228
I4890
sVsham
p229
I5402
sVinterfering
p230
I2155
sVencephalitis
p231
I4123
sVbone
p232
I657
sVafforded
p233
I5436
sVnave
p234
I297
sV39%
p235
I1196
sVbioassays
p236
I4465
sVknockout
p237
I1977
sVplatelets
p238
I362
sVparasites
p239
I1745
sVlactic
p240
I2917
sVsubstantially
p241
I3387
sVextract
p242
I5325
sVring
p243
I2510
sVankyrin
p244
I4154
sVborne
p245
I4142
sVrt
p246
I1348
sVrv
p247
I4888
sVrs
p248
I2704
sVgradient
p249
I1734
sVrestricted
p250
I1881
sVcrucial
p251
I473
sVparticles
p252
I819
sVre
p253
I3883
sVcpgs
p254
I2317
sVra
p255
I863
sVrb
p256
I1800
sVsurprise
p257
I4091
sVdsb
p258
I706
sVphenolic
p259
I1469
sVlinear
p260
I698
sVsensory
p261
I4286
sVchromosomal
p262
I1010
sVr6
p263
I4512
sVm-83
p264
I2395
sVr3
p265
I4514
sVchemotactic
p266
I3708
sVatm
p267
I759
sVnox1
p268
I871
sVatr
p269
I1506
sVnox4
p270
I872
sVatp
p271
I727
sVsignature
p272
I3055
sVinbred
p273
I5007
sVbreed
p274
I5312
sVfeatures
p275
I3358
sVgrade
p276
I462
sV17%
p277
I1213
sVvitro
p278
I1640
sVp5c
p279
I5059
sVchannels
p280
I3062
sVcytoskeletal
p281
I434
sVsynthesizd
p282
I1110
sV179
p283
I4948
sVoncogenic
p284
I1863
sVdismutase
p285
I3070
sVbnsip1
p286
I2183
sVspeck
p287
I3561
sVmicrotube
p288
I2405
sVannotated
p289
I350
sVsimilarly
p290
I4767
sVneutralization
p291
I463
sVdsdna
p292
I972
sVrecruiting
p293
I4724
sVcodons
p294
I1374
sVcd205
p295
I2952
sVneeded
p296
I691
sVmaster
p297
I864
sVlisted
p298
I1791
sVsuppressive
p299
I2985
sVtestican-1
p300
I2972
sVmyelomonocytic
p301
I3796
sVaz20
p302
I4935
sVranging
p303
I3433
sV-tof
p304
I1444
sV0.067
p305
I4759
sVpositively
p306
I357
sVp53
p307
I761
sVdistance
p308
I4840
sVshowed
p309
I633
sVtree
p310
I1367
sVlikely
p311
I4978
sVmitogen
p312
I994
sVpreparation
p313
I692
sVmicroglial
p314
I5142
sVbiochemical
p315
I1080
sVkin-2
p316
I4282
sVadenomatous
p317
I801
sVacquisition
p318
I3271
sVmodulating
p319
I4404
sVhbv)-related
p320
I621
sVmembranes
p321
I822
sVpliocene
p322
I3662
sVprimordia
p323
I3544
sVantagonistic
p324
I3009
sVpsnps
p325
I5216
sVmodifiers
p326
I5313
sVhexose
p327
I2873
sV5-untranslated
p328
I4943
sVstents
p329
I3100
sVasxl3
p330
I4847
sVresponsible
p331
I1178
sVrecommended
p332
I5414
sVcausing
p333
I2687
sVdysregulate
p334
I5240
sV\u000a 
p335
I84
sVmachinery
p336
I3975
sVsugarcane
p337
I4365
sVmyseq
p338
I4613
sVipsb
p339
I1812
sVipsc
p340
I4741
sVcycloheximide
p341
I1520
sVentry
p342
I1861
sVretaining
p343
I4318
sVreleased
p344
I935
sVcams
p345
I4150
sVmedical
p346
I2223
sVcamp
p347
I3509
sVm
I2455
sVlpo
p348
I4608
sVimmunoreactivity
p349
I2606
sVpositional
p350
I259
sValars
p351
I5407
sVprinciple
p352
I5179
sVanticancer
p353
I1960
sV10-fold
p354
I3442
sVsignatures
p355
I586
sVnec
p356
I4660
sVpanc02
p357
I4843
sVsoluble
p358
I520
sVbim-3utr
p359
I1238
sVlethal
p360
I740
sVthirds
p361
I3978
sVflowers
p362
I4343
sVexplain
p363
I2179
sVnampt
p364
I1332
sVmaturation
p365
I2628
sVrich
p366
I316
sVmesendodermal
p367
I5390
sVrice
p368
I3279
sVestablishes
p369
I3612
sVstop
p370
I2092
sVpocket
p371
I4556
sVyfp
p372
I3741
sVctla-4
p373
I5378
sVsuperfamily
p374
I3716
sVincreasing
p375
I2046
sVvulvar
p376
I4920
sVmicrosomal
p377
I2044
sVmmp13
p378
I5321
sVrescues
p379
I3736
sVmicroscopy
p380
I3414
sVpatch
p381
I2235
sVbag
p382
I4285
sVmicroscope
p383
I3677
sVgrp78
p384
I446
sVrelease
p385
I601
sVepcam
p386
I505
sVwangshanqiao
p387
I1549
sVbak
p388
I2244
sVrespond
p389
I4131
sVwt1
p390
I2843
sVsobemoviruses
p391
I4176
sVvirological
p392
I1249
sVvps34
p393
I2497
sVreference
p394
I1056
sVclarified
p395
I2807
sVsensitivity
p396
I343
sVtesting
p397
I223
sValterations
p398
I391
sVtransferred
p399
I4093
sVcloning
p400
I260
sVencephalopathy
p401
I4561
sVfail
p402
I4966
sVapoa1
p403
I4631
sVsubject
p404
I4778
sVswga
p405
I2960
sVinappropriate
p406
I3811
sVgcy-9
p407
I4280
sVscore
p408
I720
sVtolerance
p409
I4422
sVpreserve
p410
I3071
sVpyrophosphate
p411
I4204
sVextend
p412
I3628
sVnature
p413
I4134
sVlymphocyte
p414
I3592
sVrestricting
p415
I2249
sVvitamin
p416
I4626
sVeukaryotic
p417
I1052
sV384
p418
I2316
sVmek
p419
I4971
sVextent
p420
I998
sVcarbon
p421
I4256
sVaahdr1
p422
I3678
sVsuggested
p423
I1523
sVtriggers
p424
I501
sVresistant
p425
I1277
sVderegulation
p426
I4289
sVdeposition
p427
I3989
sVagainst
p428
I173
sVdeveloping
p429
I2815
sVfna
p430
I3151
sVcartilage
p431
I4792
sVcontribution
p432
I2084
sVgenus
p433
I4121
sVand
p434
I39
sVmwcnts
p435
I4258
sVappeared
p436
I3484
sVpresumed
p437
I1076
sV25%
p438
I1199
sVt(8;21)(q22;q22
p439
I4065
sVatg5
p440
I3086
sVarsenic
p441
I4581
sVatg9
p442
I4308
sV256
p443
I2321
sV16s
p444
I882
sVscsch9
p445
I4735
sVtargeting
p446
I842
sVil)-10
p447
I334
sVkif4
p448
I3166
sVprb
p449
I5239
sVthree
p450
I330
sV107
p451
I2288
sVextraction
p452
I2402
sVtrigger
p453
I506
sVintegrin
p454
I374
sVbasic
p455
I278
sVcontraction
p456
I3657
sVderepression
p457
I4866
sVlocation
p458
I404
sVstresses
p459
I2186
sVlife
p460
I1340
sVlifa
p461
I987
sVsuppress
p462
I2422
sVpkac1
p463
I2129
sVdisulfide
p464
I4616
sVfibroblast
p465
I3462
sVh9c2
p466
I2936
sVgata2
p467
I3368
sVcentrosome
p468
I1023
sV162
p469
I3275
sVmirnas
p470
I1176
sV 
I2707
sVemploy
p471
I4324
sVcalcium
p472
I2934
sVil-1-induced
p473
I4805
sVmir)-30c
p474
I4951
sVbalance
p475
I1142
sVanchor
p476
I486
sVdemethylation
p477
I4409
sVix
p478
I382
sVseven
p479
I452
sVsupernatants
p480
I3702
sVis
p481
I254
sVir
p482
I1194
sVit
p483
I957
sViv
p484
I3476
sVii
p485
I317
sVcharacterize
p486
I2389
sVreceptor-2
p487
I2214
sVin
p488
I26
sVcurcumin
p489
I3480
sVib
p490
I381
sVmouse
p491
I183
sVid
p492
I4549
sVmischarge
p493
I5245
sVdamaged
p494
I781
sVseverity
p495
I5403
sV:
I963
sVmake
p496
I4567
sVany
p497
I4020
sVpotentially
p498
I1760
sVsplit
p499
I1113
sV675
p500
I4368
sVcolonies
p501
I4893
sVkarst
p502
I1797
sVeuropean
p503
I2330
sVtemplates
p504
I1980
sVangiopoietin
p505
I318
sVmyocardial
p506
I3334
sVhtr3a
p507
I5423
sVpharmacological
p508
I3222
sVgarlic
p509
I2929
sVi.
p510
I3195
sVbcas2
p511
I3487
sVweakly
p512
I5014
sVprograms
p513
I4906
sVstimuli
p514
I5333
sVsquamous
p515
I1660
sV808
p516
I3724
sVtranscription
p517
I589
sVquantitative
p518
I630
sVleft
p519
I4529
sVprotocol
p520
I3126
sVassigned
p521
I906
sVidentify
p522
I1175
sVsalivary
p523
I4867
sVhuman
p524
I392
sVyes
p525
I3448
sVyet
p526
I1077
sVprevious
p527
I1035
sVnicolas
p528
I1934
sVcatalytic
p529
I132
sVcandidate
p530
I1161
sVbnp
p531
I5441
sVcharacter
p532
I2866
sVaffinity
p533
I1153
sVeasy
p534
I5260
sV-induced
p535
I3738
sVallele
p536
I3547
sVhas
p537
I17
sVnrp2
p538
I3539
sVelevation
p539
I2624
sVsurvival
p540
I167
sVclonal
p541
I3793
sVposed
p542
I4476
sVpossible
p543
I2673
sVpossibly
p544
I4570
sVnatal
p545
I4025
sVcompaction
p546
I5309
sVbackground
p547
I1688
sVclustered
p548
I3072
sVtbp)-associated
p549
I4610
sVunique
p550
I3464
sVdegron
p551
I4731
sVvdr
p552
I4366
sVbn1
p553
I5272
sVlymphocytopenia
p554
I4148
sVfnas
p555
I2312
sVdengue
p556
I4398
sVsignal
p557
I87
sVeffusion
p558
I2710
sVbeneficial
p559
I466
sVold
p560
I1996
sVpeople
p561
I1941
sValtered
p562
I1648
sVlibrary
p563
I2499
sVflavivirus
p564
I5080
sVcirp
p565
I4440
sVrpgrip1n
p566
I4303
sVdense
p567
I3569
sVfor
p568
I117
sVnormal
p569
I634
sVsubclass
p570
I1888
sVrepression
p571
I2686
sV/16s
p572
I2030
sVshank3
p573
I1928
sVperiphery
p574
I1603
sVgenotypes
p575
I1465
sVepigenetic
p576
I390
sVenergy
p577
I699
sVcodifies
p578
I4341
sVcatalase
p579
I3068
sVpredicting
p580
I4534
sVcdt1
p581
I4734
sVmetastatic
p582
I1704
sVdiploid
p583
I4339
sVyap)-overexpressing
p584
I3449
sVsuper
p585
I4822
sVlentiviral
p586
I665
sVnutritiously
p587
I2769
sVccaat
p588
I4036
sVpredisposition
p589
I5280
sVadipose
p590
I2671
sVo
I848
sVastrocyte
p591
I5438
sVvaginal
p592
I4919
sVislands
p593
I1708
sVslightly
p594
I1764
sVhospital
p595
I3685
sVnerve
p596
I3456
sVleptin
p597
I1871
sVsob
p598
I5136
sVsod
p599
I2621
sVnegative
p600
I1425
sVdown
p601
I1527
sVsop
p602
I291
sVtranslocate
p603
I4527
sVattrition
p604
I4547
sVreducing
p605
I3927
sVmbp
p606
I5376
sVoften
p607
I2041
sVnovo
p608
I1473
sVprolactin
p609
I2410
sVk16
p610
I433
sVsodium
p611
I4259
sVsupport
p612
I5305
sVinitial
p613
I820
sVerythrocyte
p614
I1098
sVchristian
p615
I3684
sVfraction
p616
I4100
sVspring
p617
I5009
sVresulted
p618
I61
sVmb-231
p619
I5068
sVduodenum
p620
I4818
sVthrips
p621
I2776
sVfork
p622
I1209
sVhcmv
p623
I549
sVoffer
p624
I2525
sVanalyse
p625
I1426
sVfailure
p626
I1487
sVsafeguard
p627
I4506
sVendocytic
p628
I1286
sVtraits
p629
I4267
sVarrays
p630
I4116
sVprevents
p631
I561
sVinside
p632
I4183
sVhistochemical
p633
I4997
sVcomplications
p634
I2485
sVrtk)/ras
p635
I4965
sVstages
p636
I2755
sVcrosslinker
p637
I2094
sVmorphogenetic
p638
I3320
sV155
p639
I1829
sVexerting
p640
I2191
sVclassic
p641
I2958
sVmnkp46
p642
I2227
sVmelas
p643
I4565
sVproven
p644
I2493
sVgland
p645
I3758
sV15%
p646
I1189
sVicr3
p647
I5223
sVtosc
p648
I4607
sVhydrogen
p649
I4477
sVeffusions
p650
I2716
sVmarking
p651
I4907
sVmelanoma
p652
I3385
sVphelan
p653
I1913
sVgenerally
p654
I2371
sVmrn
p655
I3205
sVcomposite
p656
I5032
sVrole
p657
I25
sVdigital
p658
I4263
sVtrafficking
p659
I3059
sV's
p660
I1455
sVmodels
p661
I76
sVinteractome
p662
I5100
sVmtesr
p663
I3297
sVdiet
p664
I4644
sVcleaved
p665
I3845
sVpalmd
p666
I4078
sVfell
p667
I2104
sVmmp9
p668
I5109
sVvariable
p669
I5044
sVtransporter
p670
I1280
sVmmp3
p671
I5320
sV125
p672
I4041
sVmmp1
p673
I5319
sVimmunocompromised
p674
I2224
sVenhancers
p675
I3499
sVstamens
p676
I3542
sVglycosylated
p677
I2232
sVstatistical
p678
I4757
sVsiah2
p679
I456
sVtime
p680
I1439
sVrestored
p681
I502
sVchondrocytes
p682
I4804
sVurinary
p683
I4270
sVchain
p684
I53
sVactivated
p685
I301
sVsegs
p686
I1397
sVphysicochemical
p687
I5140
sVskin
p688
I3121
sVmorphology
p689
I3301
sVactivates
p690
I937
sV93
p691
I2331
sVretention
p692
I3403
sVamplification
p693
I709
sVdisorders
p694
I1320
sVtechnique
p695
I1172
sVrecurrence
p696
I615
sVfinally
p697
I2456
sVoligos
p698
I2831
sVhepg2
p699
I2694
sVpld1
p700
I4001
sVyeast
p701
I2518
sVadenocarcinomas
p702
I2713
sVhairpin
p703
I4679
sVfifty
p704
I3285
sVexact
p705
I1978
sVser616
p706
I106
sVdid
p707
I878
sVmb
p708
I547
sVepilepticus
p709
I5153
sVstiffer
p710
I2272
sVcaki-1
p711
I4964
sVprevent
p712
I4507
sVoccurrence
p713
I2859
sVfindings
p714
I2019
sVintronic
p715
I3240
sVprediction
p716
I2375
sVimprinting
p717
I4748
sVbacterial
p718
I1405
sVtargets
p719
I1327
sVacidosis
p720
I4562
sVreminiscent
p721
I703
sVdeficiencies
p722
I5279
sVtemplate
p723
I4265
sVhsp70
p724
I2471
sVunrestricted
p725
I2123
sVisoforms
p726
I2853
sV36b4
p727
I3882
sVremyelination
p728
I5367
sVblunted
p729
I2189
sVunderstanding
p730
I1968
sViarc
p731
I1738
sVsplice
p732
I5234
sVaddress
p733
I2087
sValone
p734
I849
sValong
p735
I1268
sVbox
p736
I1051
sVexemplified
p737
I2772
sVshift
p738
I4180
sVstudied
p739
I785
sVcommonly
p740
I5310
sVsomatic
p741
I584
sVaccomplished
p742
I3347
sVsimultaneous
p743
I4218
sVthroughput
p744
I4574
sVhbx
p745
I2266
sVboo
p746
I2552
sVbiopsies
p747
I3153
sVhbv
p748
I639
sVstudies
p749
I79
sVipf
p750
I443
sVipd
p751
I174
sVmerely
p752
I329
sVcoinciding
p753
I3426
sVlaxa
p754
I3771
sVsgrna
p755
I1415
sVperk
p756
I1668
sVpositive
p757
I1424
sVperi
p758
I2974
sV30%
p759
I3795
sVscenarios
p760
I5418
sVencode
p761
I3537
sVcooperated
p762
I4937
sVtheoretical
p763
I5099
sVhelix
p764
I4017
sVapparent
p765
I2130
sVantigens
p766
I179
sVvisual
p767
I3016
sVmicrotubules
p768
I2095
sVeffort
p769
I3450
sVpolypeptide
p770
I3671
sVnlrp3
p771
I3847
sVfacilitating
p772
I4002
sVligase
p773
I459
sVvegf
p774
I644
sV9947
p775
I2802
sVbelieved
p776
I5236
sVmaking
p777
I3545
sVrepressing
p778
I4050
sVdosage
p779
I4750
sVedna
p780
I1788
sVmicrobiota
p781
I4182
sVendonuclease
p782
I2978
sVagent
p783
I1842
sVsample
p784
I2135
sVunveiled
p785
I4685
sVevidently
p786
I4926
sVmonitoring
p787
I3305
sVanabolic
p788
I2629
sVseptic
p789
I3972
sVasmt
p790
I3374
sVtils
p791
I1617
sVchemical
p792
I2738
sVimmune
p793
I296
sVccr7/cxcr4
p794
I83
sVs.
p795
I2444
sVpure
p796
I5163
sVoptimal
p797
I4253
sVparameter
p798
I4942
sVpathway
p799
I1108
sVhydroperoxide
p800
I4478
sVmap
p801
I1632
sV145
p802
I1085
sVaberrations
p803
I1267
sVmay
p804
I756
sVpgc-1
p805
I5288
sVire1-xbp1
p806
I1667
sVaccessory
p807
I944
sVst2/il-1
p808
I943
sVtranslocase
p809
I4763
sVexplored
p810
I1945
sVsnr
p811
I2601
sVdesigned
p812
I228
sVsnp
p813
I2617
sVdate
p814
I2812
sVsuch
p815
I587
sVrevealed
p816
I365
sVstress
p817
I492
sVneck
p818
I1659
sVsr
p819
I3954
sVsp
p820
I471
sVelongation
p821
I1053
sVtriglyceride
p822
I2045
sV-acetylaspartate
p823
I5316
sVst
p824
I3762
sVq
I3340
sVr119
p825
I2365
sVsi
p826
I2592
sVsh
p827
I1746
sVafrican
p828
I2322
sVmisregulation
p829
I1042
sVpin1
p830
I5306
sVhematopoietic
p831
I1891
sVoutlet
p832
I5023
sVlsd
p833
I2906
sVshrna
p834
I4210
sVnoteworthy
p835
I4658
sVttr
p836
I4638
sV092
p837
I370
sVepilepsy
p838
I5159
sV14-kb
p839
I1070
sVfeature
p840
I5101
sVstability
p841
I1223
sVcourse
p842
I860
sVepisodes
p843
I4564
sVlsu
p844
I1906
sVmero-14
p845
I1255
sVheritable
p846
I3827
sVgroup
p847
I1003
sVmonitor
p848
I3897
sVdecreases
p849
I2009
sVdifferentiating
p850
I4215
sVdecreased
p851
I522
sVmain
p852
I3824
sVundermines
p853
I4028
sV-epoxycarotenoid
p854
I2877
sVcoincidental
p855
I4807
sVchromatin
p856
I3360
sVwithin
p857
I859
sVadjacent
p858
I617
sVthereby
p859
I2290
sVaxons
p860
I2640
sVnonsense
p861
I3534
sVrecords
p862
I3650
sVnbs1
p863
I5106
sVimmnosorbent
p864
I4481
sVmaintaining
p865
I1339
sVmatched
p866
I299
sVtroponin
p867
I3109
sVproteins
p868
I331
sVglutamyl
p869
I5327
sVtranslocation
p870
I109
sVgenotypically
p871
I4332
sVglial
p872
I2608
sVinstability
p873
I4508
sVglucoside
p874
I2582
sVabnormal
p875
I3189
sVbovine
p876
I996
sVbreakthrough
p877
I5386
sVowing
p878
I1768
sVspiking
p879
I4377
sVkras
p880
I4519
sVpredefined
p881
I903
sVliving
p882
I3517
sVhcv
p883
I1245
sVltsv
p884
I4174
sVinterference
p885
I649
sVhcc
p886
I395
sVcontained
p887
I5368
sVinvestigation
p888
I2413
sVtrauma
p889
I5029
sVrae1
p890
I3354
sVdioxide
p891
I4288
sVsuggesting
p892
I1560
sVpathogenicity
p893
I4521
sVsensor
p894
I1671
sVcorrect
p895
I3192
sVunivariate
p896
I4940
sVchemically
p897
I2881
sVneurotrophic
p898
I4104
sVafter
p899
I405
sV-glucosidase
p900
I4874
sVmechanisms
p901
I1540
sVpossibility
p902
I3007
sVplex
p903
I2804
sVinwardly
p904
I2147
sVhspc
p905
I4062
sVbesides
p906
I3529
sVlipodystrophy
p907
I1630
sVnf-b
p908
I1647
sVtraining
p909
I2459
sV5/6nx
p910
I5401
sVprogramming
p911
I4654
sVroutes
p912
I2202
sVcgrp
p913
I4046
sVsubstrates
p914
I2273
sVfirst
p915
I536
sVonh
p916
I3621
sVromo1
p917
I1019
sVdwelling
p918
I1793
sVirradiation
p919
I777
sVdistal
p920
I1270
sVone
p921
I388
sVhpscs
p922
I3295
sVamericans
p923
I2323
sVspecificity
p924
I344
sVcarry
p925
I1939
sVopen
p926
I3726
sVlittle
p927
I3405
sVrs12979860
p928
I1243
sVgenotype
p929
I3284
sVsmoothened
p930
I1232
sVavian
p931
I3214
sV1a
p932
I1553
sVindicate
p933
I2139
sV2
I455
sVadenocarcinoma
p934
I717
sVnsclc
p935
I460
sVparticipated
p936
I4578
sVtransgene
p937
I2173
sVmyoclonus
p938
I4742
sVapoptotic
p939
I1670
sVcontinuous
p940
I3495
sVproving
p941
I4087
sVbetanodavirus
p942
I1837
sVmeiotic
p943
I3197
sVrepresenting
p944
I2839
sV11
p945
I3885
sV10
p946
I4031
sV13
p947
I900
sV12
p948
I578
sV15
p949
I1997
sV14
p950
I3717
sV17
p951
I5220
sV16
p952
I407
sV18
p953
I3981
sVmycobacterial
p954
I4405
sVprotected
p955
I3968
sV1%
p956
I4386
sVglossy
p957
I5273
sVwere
p958
I115
sVknob
p959
I3591
sVsenescent
p960
I5265
sVsoil
p961
I4209
sVaddressing
p962
I2203
sVdeciphering
p963
I3833
sVhgsoc
p964
I1066
sVlocations
p965
I4816
sVinhibiting
p966
I1681
sVsaw
p967
I4212
sVharbored
p968
I3459
sVefficient
p969
I815
sVisolate
p970
I2832
sVconsortium
p971
I2806
sVmultisystem
p972
I1315
sVpotential
p973
I122
sVtranscribed
p974
I4973
sVtake
p975
I2913
sVswitching
p976
I4302
sVchannel
p977
I2144
sV200
p978
I721
sVchromosomes
p979
I2053
sVhaematopoietically
p980
I1032
sVopposite
p981
I3854
sVcorrelation
p982
I3143
sVhydroxyproline
p983
I3730
sVtelomere
p984
I2102
sVbeta
p985
I1571
sV20%
p986
I1191
sVtract
p987
I4271
sVpair
p988
I3048
sVinserted
p989
I3921
sVg0/g1
p990
I5073
sVradioactive
p991
I3894
sVespecially
p992
I892
sVsurprising
p993
I5243
sVaverage
p994
I3401
sVinfections
p995
I3327
sVparkinsonism
p996
I5219
sVrrm2
p997
I1452
sVrrm1
p998
I1451
sVdiffusional
p999
I2749
sVlactobacilli
p1000
I959
sV30,000
p1001
I893
sVsalt
p1002
I4421
sVrepeatedly
p1003
I2562
sVprecise
p1004
I1721
sVdissecting
p1005
I2666
sVstimulator
p1006
I3747
sVshot
p1007
I2093
sVregulated
p1008
I88
sVp<0.05
p1009
I3428
sVsynchronous
p1010
I1819
sVfecal
p1011
I4178
sVrep.
p1012
I3855
sVbtzo-1
p1013
I3963
sVaggressive
p1014
I4952
sVwnt/-catenin
p1015
I3315
sVatp6v1h
p1016
I2535
sVanalytic
p1017
I4516
sVactin
p1018
I1490
sVlipids
p1019
I4008
sVlactoferrin
p1020
I5149
sVextracellular
p1021
I86
sVhippo
p1022
I5435
sVpolyfunctional
p1023
I3054
sVompa2
p1024
I4449
sVhistone
p1025
I1679
sVmorphological
p1026
I3123
sVdecellularization
p1027
I2368
sVhailed
p1028
I5384
sVnearly
p1029
I1159
sVnphp4
p1030
I5428
sV-tcr
p1031
I4390
sVcernas
p1032
I1536
sVrecombinant
p1033
I992
sVgem
p1034
I3806
sVsecondary
p1035
I3325
sVconstituents
p1036
I2254
sVsettings
p1037
I1621
sVrecapitulates
p1038
I4688
sVyield
p1039
I4708
sVsummary
p1040
I1366
sVsubtype
p1041
I3219
sVnociceptive
p1042
I4112
sVesophageal
p1043
I3255
sVuncover
p1044
I1575
sVwhere
p1045
I2076
sVilers
p1046
I2761
sVkernel
p1047
I5042
sVattenuated
p1048
I465
sVnucleoplasm
p1049
I1601
sVrelative
p1050
I790
sVteg4
p1051
I4351
sVunaltered
p1052
I4530
sVsurgery
p1053
I4628
sV\u000a\u000a          \u000a\u000a        
p1054
I4712
sVmibc
p1055
I4417
sVum
p1056
I5432
sVchronically
p1057
I5364
sVmaturity
p1058
I4810
sVpalmitoyltransferase
p1059
I2050
sVagarito
p1060
I3665
sVsites
p1061
I439
sVvaccines
p1062
I1168
sVmetabolites
p1063
I2930
sVcytoprotective
p1064
I745
sV0.027
p1065
I3283
sVaffecting
p1066
I3691
sVreading
p1067
I3727
sVacross
p1068
I577
sVdeletions
p1069
I4221
sVrnaseq
p1070
I4225
sVlhx3
p1071
I4023
sVssea-4
p1072
I4885
sVuseful
p1073
I1964
sVlhx8
p1074
I2520
sVscreen
p1075
I2897
sVsuppresses
p1076
I3503
sVjp
p1077
I283
sV876880
p1078
I4760
sVonygenalean
p1079
I1903
sVje
p1080
I4124
sVcervical
p1081
I4938
sVsuppressed
p1082
I1678
sVja
p1083
I3630
sVjc
p1084
I1515
sVmany
p1085
I1319
sVaccording
p1086
I902
sVs
I563
sVconcentrates
p1087
I4149
sVexpression
p1088
I50
sVamong
p1089
I1330
sVcancer
p1090
I231
sV,
I102
sVmaintained
p1091
I2478
sVanti
p1092
I675
sVspans
p1093
I1341
sVarticle
p1094
I1544
sVtranscriptional
p1095
I1884
sVbetter
p1096
I1662
sVmonomethyl
p1097
I5331
sVlncrna
p1098
I1105
sVcapable
p1099
I3470
sVinterventions
p1100
I5210
sVincubation
p1101
I2992
sVbarre
p1102
I5086
sVenable
p1103
I814
sVbmd
p1104
I5129
sVformed
p1105
I4577
sViaps
p1106
I1683
sVdramatic
p1107
I3441
sV5q31.2
p1108
I2971
sVzh23
p1109
I1467
sVpolyketide
p1110
I2576
sVformer
p1111
I3951
sVthose
p1112
I1940
sVbmleb5
p1113
I3723
sVacr2
p1114
I2427
sVmtp18
p1115
I2461
sVjuveniles
p1116
I1852
sVmir-205
p1117
I1862
sVprofiles
p1118
I354
sVadipocyte
p1119
I2480
sVpromising
p1120
I2293
sVcancelled
p1121
I2098
sVprofiled
p1122
I2314
sVhdl
p1123
I3337
sVkinesin-3
p1124
I1226
sVendothelial
p1125
I671
sVcharacteristics
p1126
I628
sVconcatenation
p1127
I1362
sVstrain
p1128
I1218
sVblots
p1129
I3378
sVscavenger
p1130
I4007
sVprotein
p1131
I7
sVtechnology
p1132
I889
sVdebilitating
p1133
I5314
sVpas
p1134
I4311
sVverified
p1135
I4081
sVcombination
p1136
I2137
sVsame
p1137
I2651
sVsurveillance
p1138
I5152
sVfdr<5%
p1139
I2659
sVprevented
p1140
I5224
sVmicrodissection
p1141
I4395
sVpaf
p1142
I2724
sVepigenetically
p1143
I5263
sVdcl
p1144
I686
sVsubunit
p1145
I133
sVgfap
p1146
I4430
sVautonomously
p1147
I3041
sVextended
p1148
I233
sVadipocytes
p1149
I2522
sVstructurally
p1150
I4553
sVbim
p1151
I356
sVccrcc
p1152
I4953
sVchromodomain
p1153
I4167
sVlargely
p1154
I175
sVhydroxy
p1155
I5189
sVcrypt
p1156
I4691
sVconsisted
p1157
I5193
sVgwas
p1158
I215
sVthey
p1159
I4019
sVintein
p1160
I1115
sVbeing
p1161
I3469
sVadjustments
p1162
I3474
sVimb-6g
p1163
I3087
sVmultiplex
p1164
I4333
sVproximal
p1165
I1269
sVgwam
p1166
I4622
sVspatiotemporal
p1167
I4156
sVinterstitial
p1168
I524
sV4
I1713
sVrrn5
p1169
I4766
sVextensive
p1170
I2984
sVgenome
p1171
I212
sVaspects
p1172
I4321
sVcounteracting
p1173
I2967
sVproviding
p1174
I1866
sV2.02%
p1175
I4829
sVnsp15
p1176
I2431
sVlin-45
p1177
I4797
sVklf5
p1178
I2356
sVinhibition
p1179
I1038
sVjaks
p1180
I4908
sVnsp12
p1181
I2452
sVhnha
p1182
I5110
sVrrna
p1183
I1407
sVidentifying
p1184
I1894
sV175,882
p1185
I3586
sVelispot
p1186
I311
sVeither
p1187
I876
sVneuronal
p1188
I3451
sV64
p1189
I1419
sVinter
p1190
I1769
sVintestinal
p1191
I1733
sVsatisfactory
p1192
I1636
sVnrf2-keap1
p1193
I1646
sVreveals
p1194
I511
sVh5n1
p1195
I3209
sVlincrnas
p1196
I3819
sVracial
p1197
I3319
sVinterleukin
p1198
I333
sVdissociated
p1199
I2602
sVconfirm
p1200
I3355
sVcavity
p1201
I1824
sVddr
p1202
I2903
sV30-minute
p1203
I3953
sVextensively
p1204
I5238
sVpathogenesis
p1205
I4140
sV11,971
p1206
I1083
sVcritical
p1207
I1336
sVexpressing
p1208
I71
sVmoderate
p1209
I4619
sV1-bp
p1210
I4038
sVgrafting
p1211
I4358
sVmeasuring
p1212
I4298
sVdgla
p1213
I1920
sVk562
p1214
I2916
sVseedlings
p1215
I1390
sVtumour
p1216
I579
sVnotably
p1217
I3930
sVmir-4295
p1218
I2516
sVstandpoint
p1219
I4200
sVvhh6
p1220
I2631
sVaca
p1221
I2158
sVace
p1222
I337
sVisland
p1223
I3413
sVmeaning
p1224
I3294
sVtumor
p1225
I461
sVpolymorphic
p1226
I4336
sVact
p1227
I1531
sVreferenced
p1228
I1481
sVlytic
p1229
I5338
sVhomologous
p1230
I1150
sVpotentiate
p1231
I3810
sV\u000a
I126
sVaccumulates
p1232
I2233
sVqrt
p1233
I4575
sVaccumulated
p1234
I1600
sVantismash
p1235
I4593
sVhep
p1236
I4525
sVapolipoprotein
p1237
I4630
sVmissa
p1238
I3907
sVsampling
p1239
I292
sVsvts8
p1240
I5268
sVsecretion
p1241
I970
sVoligodendrocyte
p1242
I5369
sVtyrosine
p1243
I2899
sV-helix
p1244
I2113
sVmda
p1245
I5067
sVcomplete
p1246
I738
sVsecreted
p1247
I2521
sVmammals
p1248
I5174
sVcloned
p1249
I2310
sVat5g02890
p1250
I5270
sVnanotubes
p1251
I4257
sVclones
p1252
I4524
sVmice
p1253
I128
sVwith
p1254
I190
sVmica
p1255
I3364
sVamplify
p1256
I1901
sVregimen
p1257
I3807
sVcytology
p1258
I112
sVhscrp
p1259
I4446
sVattenuate
p1260
I5144
sVunveils
p1261
I4415
sVtransconjugant
p1262
I4453
sV500
p1263
I3380
sVcelecoxib
p1264
I4770
sVpolymorphisms
p1265
I3902
sVrescued
p1266
I2012
sVaa
p1267
I5115
sVae
p1268
I4064
sVad
p1269
I1653
sVag
p1270
I687
sVcertain
p1271
I2677
sVopcs
p1272
I5360
sVal
p1273
I1936
sVglucose-6-phosphate
p1274
I3130
sVimmunoprecipitation
p1275
I3361
sVas
p1276
I68
sVensuing
p1277
I4371
sVat
p1278
I105
sVmaldi
p1279
I1443
sVmelatonin
p1280
I3372
sVpmol
p1281
I3381
sVagain
p1282
I4394
sVassessing
p1283
I3699
sVhybrid
p1284
I2519
sVtight
p1285
I2181
sVspatial
p1286
I3648
sVantimicrobial
p1287
I3566
sVcathepsin
p1288
I162
sVmonocyte
p1289
I3707
sVa.
p1290
I3388
sVa1
p1291
I2145
sVdnd1
p1292
I355
sVa5
p1293
I4313
sVmv4
p1294
I4930
sVspermatozoa
p1295
I3404
sVresembled
p1296
I5297
sVgastric
p1297
I1750
sVrequires
p1298
I1590
sVacids
p1299
I1879
sVcpg
p1300
I1314
sVmimic
p1301
I1293
sVobserve
p1302
I5366
sVmass
p1303
I1441
sVresembles
p1304
I4061
sVcallosum
p1305
I5373
sVovary
p1306
I1882
sVoral
p1307
I5300
sVfacultative
p1308
I5050
sVsplicing
p1309
I2827
sVinfluenza
p1310
I3220
sVcaused
p1311
I1123
sVmns
p1312
I3521
sVnucleolar
p1313
I3300
sVpapilloma
p1314
I1656
sV6-methyl
p1315
I2577
sVmnk
p1316
I4927
sVcooperative
p1317
I1504
sVporcine
p1318
I90
sVexpressions
p1319
I2285
sVchildren
p1320
I4128
sVcauses
p1321
I94
sVduplicated
p1322
I2727
sVmir-199a-3p
p1323
I2505
sVsmo
p1324
I4305
sVtz
p1325
I1229
sVcopolymers
p1326
I690
sVtait
p1327
I1981
sVillustrates
p1328
I5180
sVtn
p1329
I3920
sVto
p1330
I20
sVtail
p1331
I5429
sVxenografts
p1332
I67
sVtj
p1333
I2034
sVtf
p1334
I591
sVtg
p1335
I3287
sVheterogeneity
p1336
I1273
sVcentromere
p1337
I3589
sVendogenous
p1338
I858
sVdegeneration
p1339
I2171
sVreturned
p1340
I3045
sVneonatal
p1341
I5082
sVsubunits
p1342
I4720
sVblockade
p1343
I3225
sVplce1
p1344
I3254
sVtranscriptome
p1345
I2390
sVrnapii
p1346
I3402
sVdifference
p1347
I1616
sVmicrornas
p1348
I916
sVstrand
p1349
I732
sValanyl
p1350
I5406
sVsant
p1351
I3774
sVtropomyosin
p1352
I2598
sVsmc
p1353
I2054
sVseedling
p1354
I4420
sVt3
p1355
I4714
sVphosphorylation
p1356
I104
sVpronuclear
p1357
I4458
sVlarge
p1358
I1045
sVthese
p1359
I30
sVsox18
p1360
I3238
sVsaudi
p1361
I4172
sVsmall
p1362
I243
sVbiological
p1363
I791
sVeconomically
p1364
I2768
sVglioma
p1365
I3614
sV196
p1366
I2329
sVtumours
p1367
I3599
sVphage
p1368
I4353
sVf344
p1369
I3889
sVpass
p1370
I4668
sVfurther
p1371
I349
sV74538
p1372
I5095
sVaba
p1373
I1392
sVcilia
p1374
I4374
sVclock
p1375
I3946
sV-based
p1376
I4594
sVsection
p1377
I3019
sVmeis2
p1378
I5425
sVtggp
p1379
I1573
sVpublic
p1380
I1299
sVcontrast
p1381
I2692
sVaccessions
p1382
I3141
sVcohorts
p1383
I3251
sVfull
p1384
I199
sVmalaria
p1385
I3132
sVgenotyping
p1386
I2800
sVcomponent
p1387
I1479
sVmule
p1388
I3597
sVoperating
p1389
I289
sVcommercially
p1390
I1412
sVmir219-opcs
p1391
I5362
sVnedd9
p1392
I2298
sV900
p1393
I2240
sVneocortical
p1394
I5000
sVoscc
p1395
I2337
sVoncogenesis
p1396
I5237
sVprior
p1397
I3632
sVpick
p1398
I5226
sVaction
p1399
I2674
sVformation
p1400
I730
sVtoxicity
p1401
I1649
sVpathological
p1402
I5217
sVtransglutaminase
p1403
I3984
sVemerin
p1404
I1607
sVvia
p1405
I483
sVfollowed
p1406
I3955
sVdrp1
p1407
I101
sVafrica
p1408
I5208
sVmethyltransferases
p1409
I3233
sVegfp
p1410
I2262
sVvip
p1411
I3145
sVestablish
p1412
I1953
sVntc
p1413
I4774
sVselect
p1414
I1729
sVheterotrimer
p1415
I4910
sVeye
p1416
I4202
sVtaf7l
p1417
I4612
sVdistinct
p1418
I812
sVpetroleum
p1419
I5138
sVr2r3
p1420
I3775
sVcomparing
p1421
I4171
sVcascade
p1422
I2566
sV6
I722
sV0.007
p1423
I3002
sV0.89
p1424
I4535
sVndc80
p1425
I3200
sV0.002
p1426
I2999
sV0.001
p1427
I1356
sVmore
p1428
I1582
sVproliferative
p1429
I4436
sVlrp5
p1430
I2533
sVemission
p1431
I2892
sVtested
p1432
I304
sVparticular
p1433
I1896
sVtswv
p1434
I2780
sVatc
p1435
I5112
sVh19
p1436
I1833
sVeqtl
p1437
I5230
sV-methyladenosine
p1438
I4410
sVcluster
p1439
I2165
sVnono
p1440
I1049
sVgliomas
p1441
I3615
sVremain
p1442
I1722
sVevolved
p1443
I550
sVisr
p1444
I3784
sVstrategies
p1445
I2810
sVdecitabine
p1446
I1581
sVmale
p1447
I2781
sVcompare
p1448
I5116
sVantagonists
p1449
I3095
sVimpacts
p1450
I2120
sVionizing
p1451
I2691
sVmyoblasts
p1452
I1498
sVdays
p1453
I3422
sVstates
p1454
I2551
sVnumbers
p1455
I2569
sVsense
p1456
I4287
sVaxis
p1457
I1271
sVinformation
p1458
I279
sVrespective
p1459
I689
sVvacuolar
p1460
I2536
sVpp150
p1461
I556
sVmapk
p1462
I1109
sVacts
p1463
I2782
sVpyd
p1464
I3560
sVcsc
p1465
I2502
sValpha-1-macroglobulin
p1466
I4625
sVmaps
p1467
I1087
sVkif13b
p1468
I1228
sVoccur
p1469
I3950
sViso
p1470
I2935
sVupregulation
p1471
I862
sVm1gas
p1472
I4897
sVensemble
p1473
I4689
sVplant
p1474
I2579
sVconfounding
p1475
I5417
sVintended
p1476
I1831
sVsftsv
p1477
I3864
sVvariant
p1478
I4599
sVmapping
p1479
I4033
sVconnectivity
p1480
I3649
sVshedders
p1481
I4823
sVbioinformatics
p1482
I4576
sVresponse
p1483
I495
sVtillering
p1484
I5043
sVcoat
p1485
I4177
sVdispensable
p1486
I2728
sVmmp-2/9
p1487
I4587
sVcox)-catalyzed
p1488
I1927
sVfundamental
p1489
I1619
sVhfd
p1490
I2362
sVspacers
p1491
I4974
sVinfant
p1492
I5002
sVcellular
p1493
I478
sVflorescence
p1494
I3675
sVthrough
p1495
I942
sVtauopathies
p1496
I5218
sVsigns
p1497
I2037
sVgsk3
p1498
I3204
sVits
p1499
I107
sVnfat
p1500
I3147
sV24
p1501
I1352
sV25
p1502
I4252
sV26
p1503
I4558
sVinterpro
p1504
I1304
sV20
p1505
I3794
sV21
p1506
I2239
sV23
p1507
I412
sVpcr
p1508
I1899
sVpcp
p1509
I4261
sV28
p1510
I4704
sV29
p1511
I2712
sVlate
p1512
I786
sVdetected
p1513
I616
sVmicroscopic
p1514
I4103
sVmitophagy
p1515
I40
sVpca
p1516
I256
sVpyrethroid
p1517
I5203
sVnlg-1
p1518
I4796
sVgood
p1519
I1638
sVsubclone
p1520
I4849
sVpropose
p1521
I2541
sVmales
p1522
I3282
sVcompound
p1523
I3688
sVeif4e
p1524
I4296
sVcrohn
p1525
I2669
sVhistidine
p1526
I315
sVmystery
p1527
I2730
sVmir-375
p1528
I2530
sVpregnant
p1529
I4993
sV8-hydroxy-2-deoxyguanosine
p1530
I4544
sVinflammasome
p1531
I3565
sVsynthesize
p1532
I1387
sVevents
p1533
I1860
sVtransmission
p1534
I4111
sV2a
p1535
I2197
sVfound
p1536
I268
sVharboring
p1537
I4455
sVrs2839698
p1538
I5251
sVphysiologically
p1539
I1388
sVclamp
p1540
I2236
sVweek
p1541
I4543
sVcost
p1542
I2770
sVgfr
p1543
I2488
sVcdc2/cdk1
p1544
I2040
sVfish
p1545
I1850
sVreduce
p1546
I2378
sVmeasurement
p1547
I3880
sVrepressive
p1548
I2257
sVflower
p1549
I2785
sVdapi
p1550
I1091
sV8-oh2dg
p1551
I4545
sVresearch
p1552
I1966
sVacting
p1553
I2626
sVftd
p1554
I3247
sVevaluation
p1555
I5164
sVoccurs
p1556
I4842
sVprins
p1557
I4598
sVtegument
p1558
I555
sVlocalization
p1559
I806
sVfl478
p1560
I4426
sVmmp
p1561
I4790
sV\u000a          \u000a\u000a        \u000a
p1562
I4721
sVatms
p1563
I4659
sVdifficulty
p1564
I3031
sVterminals
p1565
I4044
sVlc3-ii
p1566
I2154
sVimaging
p1567
I3892
sVmembers
p1568
I1886
sVmmd
p1569
I4029
sVbeginning
p1570
I3420
sVretained
p1571
I5389
sVcarboxy
p1572
I3562
sVxenograft
p1573
I2193
sVpfic2
p1574
I1993
sVconducted
p1575
I1828
sVparg1
p1576
I2005
sVexhibited
p1577
I2001
sVadduct
p1578
I1188
sVmajor
p1579
I389
sVc.
p1580
I3202
sVnumber
p1581
I694
sVsunitinib
p1582
I3389
sVutilized
p1583
I1411
sVangiogenic
p1584
I4346
sVguar
p1585
I2392
sVina-6
p1586
I4433
sVtlr9
p1587
I5027
sVpde10a
p1588
I4536
sVequi
p1589
I3638
sVjev
p1590
I4125
sV18%
p1591
I1203
sVmoderately
p1592
I5012
sVleast
p1593
I1058
sVtgf1
p1594
I529
sVcrispr)/crispr
p1595
I3075
sVgenetically
p1596
I1937
sVshow
p1597
I81
sVmajority
p1598
I4043
sVmolecular
p1599
I244
sVopening
p1600
I2146
sVtoo
p1601
I4667
sVnci-60
p1602
I4099
sVrelationship
p1603
I604
sVtgf-1
p1604
I2911
sVimmediate
p1605
I1524
sVpart
p1606
I2735
sVparsimonious
p1607
I327
sVparp
p1608
I754
sVfocusing
p1609
I1146
sVbelieve
p1610
I2672
sVcorpus
p1611
I5372
sVtraps
p1612
I5146
sVc)-challenged
p1613
I964
sVb
I295
sVdetermines
p1614
I3862
sVd1r
p1615
I2605
sVcyclic
p1616
I1111
sVcyclin
p1617
I558
sVpc
p1618
I1200
sV867
p1619
I5291
sV0.018
p1620
I3000
sVdetermined
p1621
I958
sVcontrary
p1622
I1551
sVaas
p1623
I2324
sVlectin
p1624
I4601
sVelaborate
p1625
I5145
sVtreated
p1626
I159
sV4-independent
p1627
I4098
sVdefect
p1628
I2419
sVdendritic
p1629
I2741
sVconjugate
p1630
I685
sVpenetrant
p1631
I2838
sVmountain
p1632
I3653
sVcfu
p1633
I4250
sVdepending
p1634
I557
sVdestabilizing
p1635
I594
sVself
p1636
I552
sVonset
p1637
I562
sValso
p1638
I120
sVinternal
p1639
I1378
sVbuild
p1640
I4939
sVchanghua
p1641
I3683
sVhgf
p1642
I464
sVcommentary
p1643
I3822
sVplay
p1644
I21
sVphosphoprotein
p1645
I4520
sVmost
p1646
I44
sVvirus
p1647
I42
sVsignificant
p1648
I23
sVtmem106b
p1649
I2151
sV3-utr
p1650
I5177
sVextremely
p1651
I2844
sVnced
p1652
I2879
sVkb
p1653
I4761
sVcause
p1654
I3244
sVtransplanted
p1655
I5359
sVdystrophy
p1656
I1627
sVko
p1657
I1999
sVactionable
p1658
I5181
sVmannose
p1659
I4600
sVresearchers
p1660
I4054
sVbcl-2
p1661
I2246
sVraav
p1662
I191
sVgaba
p1663
I3025
sVmcdermid
p1664
I1914
sVpd
p1665
I5383
sVparticularly
p1666
I1967
sVgold
p1667
I5119
sVcorresponded
p1668
I1732
sVpurity
p1669
I4385
sVhaematopoietic
p1670
I1036
sVaptamers
p1671
I4246
sVmalignant
p1672
I1179
sVentity
p1673
I2841
sVdnbs
p1674
I3129
sVfine
p1675
I4032
sVfind
p1676
I2680
sVstepwise
p1677
I1241
sVimpact
p1678
I583
sVcell
p1679
I166
sVindicator
p1680
I1501
sVdividing
p1681
I2218
sVurodynamically
p1682
I2550
sVnervous
p1683
I65
sVreprogrammed
p1684
I5388
sVosteocytes
p1685
I1075
sVhipsc
p1686
I4892
sVenzyme
p1687
I136
sVcassette
p1688
I1279
sVfactor
p1689
I590
sV8
I4437
sVtranslocated
p1690
I4471
sVmerged
p1691
I4835
sVintractable
p1692
I5157
sVgap43
p1693
I4692
sVmnks
p1694
I4929
sVdependent
p1695
I131
sVexpress
p1696
I661
sVconstituent
p1697
I4765
sVbreast
p1698
I1135
sVclosely
p1699
I2338
sVsilk
p1700
I3753
sVuntreated
p1701
I877
sVinducible
p1702
I3712
sVcrp
p1703
I1102
sVrfp
p1704
I4889
sVprogressive
p1705
I1989
sVtumors
p1706
I409
sVdehydration
p1707
I1393
sVagnoprotein
p1708
I5241
sVcommon
p1709
I1073
sVcre
p1710
I1069
sVdk1622
p1711
I3171
sVset
p1712
I1147
sVser
p1713
I4900
sVseq
p1714
I411
sVheterotopias
p1715
I3600
sV316
p1716
I3687
sVpotent
p1717
I744
sVsex
p1718
I2000
sVcollectively
p1719
I3870
sVindividual
p1720
I419
sVcdk1-independent
p1721
I1449
sVmigration
p1722
I121
sVk76
p1723
I5255
sVgenomic
p1724
I428
sVpkc.
p1725
I4016
sVanalog
p1726
I5188
sVregulator
p1727
I865
sVcg200745
p1728
I1275
sVtrihelix
p1729
I2110
sVcurrently
p1730
I1015
sVfission
p1731
I38
sVpericloacal
p1732
I3992
sVvascular
p1733
I3239
sVmaspin
p1734
I2264
sVacidic
p1735
I2164
sV3-yellow
p1736
I3740
sVcellularity
p1737
I4384
sVavailable
p1738
I1413
sVdtdp-43
p1739
I4687
sVhippocampus
p1740
I5156
sVresponses
p1741
I765
sVcomplementary
p1742
I4518
sVtargeted
p1743
I242
sVblot
p1744
I929
sVsip1
p1745
I2105
sVikk
p1746
I2263
sValters
p1747
I2676
sVftpd-17
p1748
I5221
sVenables
p1749
I2567
sVlast
p1750
I1324
sVreverse
p1751
I631
sVforeign
p1752
I2586
sVnkp46
p1753
I2229
sVplasmin
p1754
I3925
sVwhole
p1755
I1684
sVload
p1756
I3838
sVpoint
p1757
I399
sVsimple
p1758
I2961
sVdownregulated
p1759
I2296
sVcommunity
p1760
I1546
sVnewborn
p1761
I4655
sVpm
p1762
I3044
sVhhex
p1763
I1029
sVsimply
p1764
I1613
sVadaptation
p1765
I3017
sVzeta
p1766
I52
sVsuppressing
p1767
I4498
sVplatinum
p1768
I1961
sVconsuming
p1769
I1462
sVfused
p1770
I2261
sVmiocene
p1771
I3656
sVintracellular
p1772
I836
sVsplenic
p1773
I3956
sVinitiation
p1774
I1380
sVrett
p1775
I2275
sVcapsid
p1776
I3081
sVsnpforid
p1777
I2805
sVarabidopsis
p1778
I2883
sVmst1
p1779
I2655
sVgap
p1780
I2663
sVgal
p1781
I1357
sVunderstand
p1782
I4968
sVhypermethylation
p1783
I3091
sVpacemaker
p1784
I3947
sVgag
p1785
I810
sVgaf
p1786
I4914
sVubiquitination
p1787
I1401
sVct(desct
p1788
I2890
sVreliable
p1789
I3127
sVmedically
p1790
I1475
sVreplaced
p1791
I2443
sVevaluating
p1792
I4262
sVerror
p1793
I148
sVmanner
p1794
I4004
sVami
p1795
I3179
sVbinding
p1796
I559
sVencountered
p1797
I4473
sVxiap
p1798
I2507
sVsnai2
p1799
I3257
sVchromosomally
p1800
I988
sVchase
p1801
I1522
sVunaffected
p1802
I2051
sVmigraine
p1803
I5212
sVelevated
p1804
I881
sVbenign
p1805
I2715
sV8-nitroguanine
p1806
I3556
sV5.8s
p1807
I4276
sVresulting
p1808
I1758
sVproved
p1809
I4680
sVfibrosis
p1810
I525
sVfurin
p1811
I2163
sVdevelopment
p1812
I750
sVattenuation
p1813
I2187
sVsnail
p1814
I3256
sVcomprehensive
p1815
I899
sVlevels
p1816
I313
sVsyt
p1817
I1012
sVaggregate
p1818
I1457
sVhmc-1
p1819
I4238
sVampk
p1820
I4406
sVsurrogate
p1821
I5415
sVhlcs
p1822
I4945
sVpolyclonal
p1823
I968
sVregulating
p1824
I3435
sVki-67
p1825
I5013
sVy
I2072
sVorganization
p1826
I1492
sVmeanwhile
p1827
I4725
sVclearance
p1828
I956
sVprevention
p1829
I4299
sVhypothesized
p1830
I3860
sVser52
p1831
I3558
sVshape
p1832
I1759
sVamp
p1833
I2208
sValternative
p1834
I2528
sValignment
p1835
I1639
sVapple
p1836
I3375
sVcontradicting
p1837
I4922
sVcut
p1838
I4188
sVcrh-1
p1839
I4281
sVsignals
p1840
I3034
sVsource
p1841
I668
sVrgc
p1842
I2639
sVrge
p1843
I901
sVtc83
p1844
I4389
sVinput
p1845
I1370
sVhybridization
p1846
I714
sVdysfunctions
p1847
I1323
sVbik
p1848
I4586
sVprofilin
p1849
I4071
sVbladder
p1850
I1752
sV7211346
p1851
I2791
sVbid
p1852
I2248
sVdoses
p1853
I2032
sVphylogeny
p1854
I5066
sV-galactosidase
p1855
I2575
sVbir
p1856
I2508
sVprojects
p1857
I4783
sVknock
p1858
I3173
sVfibrillary
p1859
I2609
sVmutants
p1860
I1122
sVimposed
p1861
I553
sVd
I163
sVwgs
p1862
I2920
sVfibroblasts
p1863
I672
sVflux
p1864
I153
sVindividuals
p1865
I119
sVbsep
p1866
I1987
sVdisorder
p1867
I1912
sVmethods
p1868
I1464
sVmetabolic
p1869
I1316
sVb-
p1870
I3083
sVb.
p1871
I3365
sVautophagy
p1872
I921
sVtyrosyl
p1873
I2307
sVb1
p1874
I1801
sVapc
p1875
I804
sVoscillations
p1876
I3661
sVwnt7a
p1877
I4789
sVand/or
p1878
I760
sVrbm3
p1879
I3789
sVlamin
p1880
I1597
sVpet
p1881
I2895
sVaffects
p1882
I1970
sVthough
p1883
I880
sVphospho)protein
p1884
I588
sVintegration
p1885
I905
sVper
p1886
I3948
sV8-hydroxyoctanoic
p1887
I1925
sVautoantigens
p1888
I969
sVpeg
p1889
I681
sVinvade
p1890
I3785
sVt
I401
sVbd
p1891
I4944
sVbe
p1892
I647
sVpatient
p1893
I1067
sVbc
p1894
I2075
sVfed
p1895
I4657
sVbk
p1896
I3061
sVbt
p1897
I1942
sVbp
p1898
I3725
sVbiomarkers
p1899
I314
sVbuccal
p1900
I3778
sVchd
p1901
I3332
sVrelating
p1902
I4412
sVby
p1903
I46
sVratio=7.48
p1904
I4674
sVreticulum
p1905
I489
sVexaggerated
p1906
I2174
sVdifferentially
p1907
I2006
sVsaa1
p1908
I5318
sVepitope
p1909
I1157
sV8-isop
p1910
I1190
sVinvolving
p1911
I1957
sVconsequently
p1912
I1564
sVanterior
p1913
I4955
sVrepair
p1914
I138
sVcomputational
p1915
I571
sVinto
p1916
I1120
sVnsc
p1917
I5296
sVlocus
p1918
I263
sVappropriate
p1919
I2024
sVmitochondrial
p1920
I37
sVprimarily
p1921
I641
sVcoil
p1922
I2269
sVcontributor
p1923
I4185
sVantenatal
p1924
I4989
sVpackrats
p1925
I3651
sV95-bp
p1926
I2437
sVepidermal
p1927
I2213
sVinteracted
p1928
I2457
sVspecifically
p1929
I2184
sVinfected
p1930
I966
sVhnscc
p1931
I1661
sVlipopolysaccharide
p1932
I5345
sVopens
p1933
I3006
sVligation
p1934
I4363
sVzikv
p1935
I5078
sVretina
p1936
I4026
sVxcr1
p1937
I2949
sVnotch1
p1938
I5302
sVinactivation
p1939
I2539
sVlink
p1940
I4802
sVcarvacrol
p1941
I5200
sVline
p1942
I1059
sVphotosynthesize
p1943
I5047
sVpain
p1944
I4695
sVzika
p1945
I5077
sVdirected
p1946
I1156
sVcasein
p1947
I4845
sVsplenocytes
p1948
I4854
sVinteractomes
p1949
I4772
sVrnas
p1950
I1535
sVup
p1951
I868
sVnscs
p1952
I5295
sVcis
p1953
I2648
sVpaired
p1954
I885
sVmatrix-associated
p1955
I3605
sVmk2
p1956
I4242
sVmature
p1957
I294
sVcarbonyls
p1958
I4862
sVmnki-8e
p1959
I4928
sVuc
p1960
I5199
sVub
p1961
I5054
sVgra7-iii
p1962
I3999
sVarticular
p1963
I4803
sVattenuating
p1964
I47
sVdefined
p1965
I2453
sVcd44
p1966
I2501
sVinfluence
p1967
I5201
sVinferred
p1968
I3270
sVsingle
p1969
I261
sVdiverse
p1970
I2825
sVcoincided
p1971
I3440
sVelement-
p1972
I3966
sVgametes
p1973
I3410
sVcodes
p1974
I1089
sVjunctional
p1975
I2630
sVcyclization
p1976
I1116
sVmtdna
p1977
I2080
sVpreventing
p1978
I1163
sV\u000a\u000a\u000a
p1979
I3018
sVb10
p1980
I612
sV95%
p1981
I1308
sVcvb3-infected
p1982
I4094
sVexplaining
p1983
I1381
sVelements
p1984
I1731
sVrabies
p1985
I3310
sVdevelopmental
p1986
I3118
sVendocrine
p1987
I1869
sVaggregates
p1988
I2995
sVrestoration
p1989
I3505
sVsuppression
p1990
I2126
sVhemodynamic
p1991
I4370
sVage
p1992
I298
sVkinetics
p1993
I1519
sVrs4678680
p1994
I3286
sV91%
p1995
I5256
sVenrolled
p1996
I3680
sVoffspring
p1997
I4646
sVfresh
p1998
I4383
sVenrichment
p1999
I1148
sV-amyloid
p2000
I4057
sVpartial
p2001
I1905
sVrestraining
p2002
I4500
sVamplifies
p2003
I3942
sVexisting
p2004
I3884
sVillustrated
p2005
I1645
sV0.74-
p2006
I5397
sVaquatic
p2007
I4474
sVamplified
p2008
I2403
sVtracrrna
p2009
I4462
sV46/160
p2010
I3281
sVpeanut
p2011
I2766
sVyoung
p2012
I1994
sV7p15.1
p2013
I2789
sVintensive
p2014
I5121
sVeffectors
p2015
I4504
sVmyoblast
p2016
I4079
sVatlas
p2017
I352
sVfatal
p2018
I1843
sVcanavan
p2019
I185
sVindicating
p2020
I472
sValternation
p2021
I3903
sVhypomethylating
p2022
I4863
sVassay
p2023
I546
sVp5cr1
p2024
I2376
sVcyclooxygenase
p2025
I1926
sVphenotypes
p2026
I3694
sVdevelopmentally
p2027
I2295
sVmanipulated
p2028
I4522
sVmixing
p2029
I4827
sVncrnas
p2030
I4086
sVbms-754807
p2031
I2901
sVautosomal
p2032
I3768
sVtrm
p2033
I3777
sVharbor
p2034
I3531
sVshock
p2035
I974
sVfewer
p2036
I3022
sVgibberellin
p2037
I2968
sVo1
p2038
I4169
sVobesity
p2039
I2483
sVdimer
p2040
I2065
sVaveraged
p2041
I5035
sV134,528
p2042
I207
sVantigen
p2043
I251
sVcrop
p2044
I2767
sVprogenitors
p2045
I2177
sVrecruitment
p2046
I3228
sVinsertion
p2047
I4457
sVwheat
p2048
I5005
sVdynamics
p2049
I3658
sVelisa
p2050
I312
sVpar-1
p2051
I3929
sVbcl-2-family
p2052
I2245
sVapparatus
p2053
I3527
sVassisted
p2054
I1435
sV3p
p2055
I2531
sVexpressed
p2056
I192
sVhereditary
p2057
I1689
sVfulvestrant
p2058
I1578
sVexpresses
p2059
I593
sVd1
p2060
I4400
sVexercise
p2061
I2458
sV3d
p2062
I1262
sVbody
p2063
I1410
sVproliferation
p2064
I995
sVled
p2065
I2128
sVfertilization
p2066
I2029
sVrespectively
p2067
I345
sVgathered
p2068
I116
sVtapetal
p2069
I2783
sVatpases
p2070
I1974
sVlet
p2071
I701
sVsink
p2072
I5439
sVpyrroline-5-carboxylate
p2073
I5055
sVothers
p2074
I4074
sVoxidative
p2075
I1141
sVmp131
p2076
I4591
sVciz1
p2077
I3606
sVdeduced
p2078
I3904
sVcaspase-1
p2079
I3846
sVgreat
p2080
I2498
sVinvolved
p2081
I1233
sV31
p2082
I2718
sV30
p2083
I2721
sV36
p2084
I4592
sV34
p2085
I2496
sVmir-182
p2086
I2681
sVsurvey
p2087
I1786
sVinsulin
p2088
I2209
sVmakes
p2089
I3293
sVpleistocene
p2090
I3663
sVinvolves
p2091
I3623
sVcomposed
p2092
I4115
sVnamed
p2093
I2743
sVkinase
p2094
I55
sVdecrease
p2095
I2140
sVoligomerization
p2096
I3564
sVtools
p2097
I4571
sVcausal
p2098
I4088
sVconfidence
p2099
I4675
sVkeratin
p2100
I432
sVnasopharyngeal
p2101
I1751
sVpten
p2102
I1865
sVnext
p2103
I677
sVsurrogates
p2104
I784
sVhematogenous
p2105
I4559
sVaminoacylate
p2106
I2763
sVcomparison
p2107
I3155
sVtrait
p2108
I4425
sVattenuates
p2109
I847
sVmet-5a
p2110
I2833
sVoccurred
p2111
I4976
sVpfs
p2112
I3269
sVcarrying
p2113
I1595
sVnormalized
p2114
I3881
sVmicrovessels
p2115
I4101
sViii
p2116
I1696
sVresection
p2117
I624
sVaccount
p2118
I3859
sVanimals
p2119
I2811
sVevolution
p2120
I4338
sVlin28
p2121
I5173
sVf
I218
sVthis
p2122
I147
sVchallenge
p2123
I2595
sVhexanucleotide
p2124
I3241
sVerythroid
p2125
I1707
sVneuropeptide
p2126
I3938
sVgfap)-positive
p2127
I2610
sVweaker
p2128
I3033
sVe.g.
p2129
I2678
sVdo
p2130
I3828
sVprocess
p2131
I150
sVpelvic
p2132
I3452
sVproportions
p2133
I4137
sVloci
p2134
I1372
sVhigh
p2135
I49
sVeffectively
p2136
I3502
sVbones
p2137
I5128
sVinterneurons
p2138
I4794
sVnative
p2139
I3104
sVvaried
p2140
I1057
sVdestroying
p2141
I5421
sVholds
p2142
I3223
sVregions
p2143
I2318
sVlamp
p2144
I4201
sVanimal
p2145
I3863
sVmissegregation
p2146
I4284
sVestablishment
p2147
I3014
sVprofile
p2148
I1685
sVproapoptosis
p2149
I4858
sVeqtls
p2150
I2649
sVcd34
p2151
I1889
sVleukemia
p2152
I59
sVcollection
p2153
I3137
sVleukemic
p2154
I4068
sVpigs
p2155
I300
sVdemonstrating
p2156
I5336
sVmarrow
p2157
I658
sVyielded
p2158
I3229
sVprostate
p2159
I248
sVnps
p2160
I241
sVnpr
p2161
I5443
sVtomato
p2162
I2778
sVprimers
p2163
I1900
sVtethering
p2164
I2160
sVoverexpression
p2165
I708
sVbind
p2166
I247
sVlines
p2167
I1294
sVmicrobial
p2168
I2927
sVredundant
p2169
I3584
sVelement
p2170
I4109
sVsorafenib
p2171
I5111
sVallow
p2172
I3832
sVnanocarriers
p2173
I3522
sVsubsequently
p2174
I2424
sVvolunteers
p2175
I5150
sVevolutionary
p2176
I3664
sVsyndecan
p2177
I1184
sVaopp
p2178
I1198
sVmove
p2179
I2547
sVgram
p2180
I4472
sVpreclinical
p2181
I75
sVproduced
p2182
I4206
sVmuts
p2183
I5352
sVdirects
p2184
I805
sVglyrs
p2185
I5409
sVgonadotropin
p2186
I3519
sVcatabolism
p2187
I1400
sVsilkworm
p2188
I2309
sVdecay
p2189
I1221
sVchosen
p2190
I2589
sVprogeny
p2191
I602
sVupk1a
p2192
I5019
sVtsa
p2193
I4855
sVlp
p2194
I4647
sVextraembryonic
p2195
I866
sVa96
p2196
I400
sVsuppressor
p2197
I800
sV<
I1355
sV2012
p2198
I5344
sVjunction
p2199
I4820
sVdelocalization
p2200
I4486
sVtsss
p2201
I5293
sVdisrupted
p2202
I1212
sVserrs
p2203
I2306
sVpd-1/pd
p2204
I5381
sVday
p2205
I3425
sVsynaptic
p2206
I1909
sVhallmarks
p2207
I2074
sVrab7
p2208
I160
sVl.
p2209
I5010
sVifi27
p2210
I2343
sVrectal
p2211
I4819
sVidentified
p2212
I718
sVcorrelative
p2213
I78
sVl1
p2214
I5382
sVaccompanied
p2215
I843
sVsubset
p2216
I417
sVmets
p2217
I1145
sVactivate
p2218
I5025
sVpleurisy
p2219
I2720
sVprogrammed
p2220
I5379
sVdeficiency
p2221
I1988
sVfibronectin
p2222
I3477
sVfrequency
p2223
I2100
sVbax
p2224
I4585
sVblocks
p2225
I372
sVautoimmunity
p2226
I5348
sVmediates
p2227
I3790
sVpkc-1
p2228
I4795
sV'
I4984
sVculture
p2229
I3421
sVrep
p2230
I3830
sVrepress
p2231
I3528
sVmediated
p2232
I384
sVasymmetries
p2233
I4961
sVmotifs
p2234
I2614
sVadaptive
p2235
I497
sVred
p2236
I1790
sVarchitecture
p2237
I3598
sVinteractions
p2238
I1329
sVankg
p2239
I4155
sVmyogenesis
p2240
I918
sVclarify
p2241
I603
sVapproaches
p2242
I1166
sVnpc
p2243
I2908
sVregulatory
p2244
I1730
sVvdbp
p2245
I4627
sV-deficient
p2246
I2335
sVinteraction
p2247
I839
sVcould
p2248
I338
sVconfocal
p2249
I3676
sVerg-28
p2250
I3058
sVlength
p2251
I2103
sVallied
p2252
I2339
sVsup16
p2253
I1207
sVrepeats
p2254
I1125
sVfacilitate
p2255
I41
sVstimulate
p2256
I4483
sVarterial
p2257
I4372
sVmeiosis
p2258
I3174
sVrpb2
p2259
I5065
sVs9b
p2260
I3466
sVthird
p2261
I4670
sVcollagen
p2262
I3475
sVnegr1
p2263
I1554
sVinfinium
p2264
I429
sVreached
p2265
I2565
sV45%
p2266
I4650
sVtwo-
p2267
I5132
sVurodynamic
p2268
I4923
sVsystem
p2269
I66
sVintermediate
p2270
I3453
sVbasilar
p2271
I4996
sVefficiently
p2272
I2737
sVperipheral
p2273
I2315
sVterpenoid
p2274
I4740
sVadaptor
p2275
I1287
sV45s
p2276
I3590
sVzygotes
p2277
I3351
sVenvironmental
p2278
I1723
sVdnab
p2279
I1114
sVdetection
p2280
I1897
sVcolleagues
p2281
I5413
sVfrontotemporal
p2282
I2169
sVreacted
p2283
I5151
sVo157
p2284
I983
sVassays
p2285
I1254
sVnegatively
p2286
I635
sVundamaged
p2287
I4719
sVtorrent
p2288
I3640
sVresult
p2289
I2670
sVcytoplasm
p2290
I4857
sVhave
p2291
I425
sVhomeodomain
p2292
I1031
sVoscrd1
p2293
I402
sVdementia
p2294
I3246
sVapparently
p2295
I3249
sVoverexpressing
p2296
I874
sVbacterium
p2297
I1739
sVstudying
p2298
I1074
sVsccst6-specific
p2299
I4736
sVmechanism
p2300
I1382
sVmif
p2301
I3964
sV322
p2302
I4040
sV320
p2303
I3891
sV321
p2304
I716
sVck1
p2305
I2018
sVkaplan
p2306
I5090
sVplasmacytoid
p2307
I2959
sVmir
p2308
I1170
sVserine
p2309
I3467
sVaccuracy
p2310
I342
sVimmunity
p2311
I3750
sVco-1
p2312
I5282
sVmultimeric
p2313
I5328
sV-atpase
p2314
I2933
sVpetals
p2315
I3541
sVeight
p2316
I3611
sVtranscript
p2317
I423
sVaddiction
p2318
I2320
sVa3243
p2319
I4566
sVdisease
p2320
I186
sVmethyltransferase
p2321
I1576
sVcircrnas
p2322
I894
sVcd28
p2323
I4905
sVcharacterisation
p2324
I2850
sVcd26
p2325
I2950
sVvisualized
p2326
I773
sVfoxo3a
p2327
I4856
sVcalgranulins
p2328
I4224
sVcyclase
p2329
I3670
sVprincipal
p2330
I4903
sVknowledge
p2331
I2439
sVillumina
p2332
I1816
sVspliceosome
p2333
I1404
sVplga
p2334
I680
sVcontrols
p2335
I1034
sVterminal
p2336
I2211
sVentities
p2337
I245
sVmolecules
p2338
I532
sVm2-associated
p2339
I4499
sVregularly
p2340
I4052
sVbiogenesis
p2341
I2980
sVpeptide
p2342
I1149
sVcooperation
p2343
I4503
sVexceptional
p2344
I4264
sVlobe
p2345
I5158
sVbiosynthetic
p2346
I1335
sVpathophysiology
p2347
I4090
sVfamilial
p2348
I1990
sVtiming
p2349
I4133
sVpyrad
p2350
I4838
sVfollowing
p2351
I2412
sVdeterminants
p2352
I3212
sVdensities
p2353
I2922
sVedaravone
p2354
I4005
sVh
I719
sVgbm
p2355
I2278
sVmodsla
p2356
I3933
sVcomprising
p2357
I1624
sVaec
p2358
I444
sVgbs
p2359
I1371
sV1a/1b
p2360
I2470
sVfixed
p2361
I4380
sVenhancer
p2362
I154
sVenhances
p2363
I5178
sVexists
p2364
I3322
sVexerted
p2365
I1579
sVcorrelations
p2366
I626
sVmkk3/6
p2367
I4241
sVmgst3
p2368
I2467
sVintensity
p2369
I5342
sVmulticopy
p2370
I2561
sVenhanced
p2371
I103
sVddrgk1
p2372
I1665
sVqtl
p2373
I2653
sVfacilitates
p2374
I2849
sVphases
p2375
I4292
sVexploited
p2376
I2635
sVinteracting
p2377
I2107
sVnuclear
p2378
I509
sVshelterin
p2379
I5075
sVcarcinomas
p2380
I2714
sV1.08-
p2381
I5395
sVmembrane
p2382
I250
sVebola
p2383
I946
sVprogress
p2384
I5391
sVcolombian
p2385
I4135
sValveolar
p2386
I476
sVleukodystrophy
p2387
I5315
sVdeliver
p2388
I3781
sVmyocytes
p2389
I3107
sVbiosynthesis
p2390
I2880
sVpathomechanism
p2391
I2399
sVoligodeoxynucleotide
p2392
I4463
sVendo
p2393
I2861
sVretinol
p2394
I4077
sVketo
p2395
I607
sVfreely
p2396
I5354
sVneurobiologically
p2397
I4683
sVrabv
p2398
I3307
sVprokaryotic
p2399
I5103
sVdrug
p2400
I221
sVtransplantation
p2401
I5357
sVsexes
p2402
I3888
sVccr7
p2403
I4662
sVpufa
p2404
I4228
sVotherwise
p2405
I567
sVu87
p2406
I2279
sVadjusted
p2407
I4752
sVrelevant
p2408
I3518
sVco
p2409
I908
sVcm
p2410
I451
sVconclude
p2411
I2472
sVcc
p2412
I2047
sVinvasive
p2413
I1785
sVca
p2414
I1005
sVcd
p2415
I742
sVtypify
p2416
I2819
sVataxia
p2417
I5275
sVcq
p2418
I5258
sVct
p2419
I2896
sVphoxim
p2420
I3752
sVcopies
p2421
I4139
sVhepatoma
p2422
I2693
sVgenetic
p2423
I1143
sVck2-dependent
p2424
I1037
sVproposal
p2425
I1642
sV>
I3797
sVphylogenetic
p2426
I4839
sVosteogenesis
p2427
I4413
sVadipokine
p2428
I2479
sVrvo
p2429
I4012
sVclimate
p2430
I3660
sVcol5a1
p2431
I2345
sVhypothesised
p2432
I3734
sVc3
p2433
I3161
sVc2
p2434
I4304
sVan
p2435
I216
sVsumoylation
p2436
I2699
sVmulti
p2437
I1589
sVhepatocellular
p2438
I393
sVlaser
p2439
I1436
sVdipeptidyl
p2440
I3471
sVhistological
p2441
I5289
sVat1r
p2442
I5394
sVexamine
p2443
I3667
sVpromoter
p2444
I2101
sVrbp
p2445
I4323
sVagar
p2446
I4328
sVpromoted
p2447
I1220
sVpacbio
p2448
I2703
sVrbe
p2449
I702
sVsirna
p2450
I2014
sVamacrine
p2451
I3023
sVhelper
p2452
I3525
sValmost
p2453
I1216
sVdelaying
p2454
I3609
sVvl
p2455
I3957
sVsite
p2456
I1211
sVvs
p2457
I1690
sVpartner
p2458
I3227
sVsitu
p2459
I713
sVcpss
p2460
I3264
sVcerna
p2461
I1542
sVcohort
p2462
I1068
sValk5
p2463
I2912
sVfabp
p2464
I2482
sVfoxo
p2465
I4801
sV)
I16
sVrs2251375
p2466
I5249
sVadministration
p2467
I3496
sVcoronary
p2468
I3331
sVhighlighted
p2469
I4199
sVinfarction
p2470
I3763
sVmrp3
p2471
I1282
sVmrp4
p2472
I1283
sVconflicting
p2473
I1610
sVpractice
p2474
I4573
sVupon
p2475
I734
sVion
p2476
I3639
sVrip1
p2477
I1682
sVpaving
p2478
I4782
sVascorbic
p2479
I3067
sVmcp-2
p2480
I3709
sVmosaic
p2481
I4467
sV35%
p2482
I4868
sVofa
p2483
I4217
sVneural
p2484
I2294
sVshotgun
p2485
I4614
sVbmp-2
p2486
I3321
sVthought
p2487
I1943
sVpatterns
p2488
I1420
sVsets
p2489
I580
sVposition
p2490
I4528
sVmuscle
p2491
I1423
sVcofilin-1
p2492
I2682
sVfetal
p2493
I1872
sVbmp7
p2494
I5018
sVless
p2495
I3026
sVproximity
p2496
I4362
sVclinic
p2497
I3250
sVunderlying
p2498
I1780
sVstreptokinase
p2499
I2199
sVlocalize
p2500
I3745
sVoutbred
p2501
I217
sVhiv)/hepatitis
p2502
I5404
sVrubber
p2503
I3980
sVluciferase
p2504
I1253
sVadp
p2505
I2242
sVectopic
p2506
I1697
sVdpep1
p2507
I3809
sVarrest
p2508
I2125
sVadd
p2509
I3356
sVadherence
p2510
I4451
sVchic.
p2511
I2863
sVincreased
p2512
I165
sVimpaired
p2513
I2745
sVetv6
p2514
I1755
sVicim
p2515
I5033
sVendoderm
p2516
I867
sVincreases
p2517
I1350
sVfive
p2518
I2340
sVtick
p2519
I4141
sVnfb
p2520
I5308
sVlike
p2521
I1107
sVsuccess
p2522
I3231
sVparasite
p2523
I4501
sVmir-9
p2524
I1701
sVslit2
p2525
I2683
sVwrky
p2526
I1695
sVmhv
p2527
I2434
sVbecome
p2528
I1072
sVneutrophils
p2529
I361
sVreplacement
p2530
I188
sVupec
p2531
I3582
sVdrug-
p2532
I3782
sVclassical
p2533
I1385
sVgermline
p2534
I2487
sVunderwent
p2535
I622
sVshuttling
p2536
I3226
sVhair
p2537
I4269
sVproper
p2538
I1025
sVrecognition
p2539
I2620
sVnoncoding
p2540
I1530
sVtmv
p2541
I4468
sVdc3000
p2542
I3633
sV-protein
p2543
I3485
sVmeier
p2544
I5091
sVdoes
p2545
I194
sVcd13
p2546
I4883
sVrs2067051
p2547
I5248
sV255
p2548
I1877
sVbiology
p2549
I3594
sVlipid
p2550
I2524
sVlet-7a-1~let-7d
p2551
I2284
sVmacrophages
p2552
I2597
sVcellulose
p2553
I4681
sVpressure
p2554
I437
sVhost
p2555
I642
sVnp
p2556
I3755
sVsimplex
p2557
I3841
sValthough
p2558
I1017
sVgermination
p2559
I2882
sVdcs
p2560
I660
sVvs.
p2561
I2503
sVpanel
p2562
I782
sVabout
p2563
I3407
sVpacap
p2564
I3672
sVmicroneedles
p2565
I3520
sVseeds
p2566
I2884
sVlap2-alpha
p2567
I1609
sVsoftware
p2568
I4447
sVfunctional
p2569
I418
sVdataset
p2570
I1488
sVassess
p2571
I2486
sVchronic
p2572
I1643
sVgli1
p2573
I5307
sVlung
p2574
I655
sVbeen
p2575
I18
sVfemale
p2576
I2801
sVproteolysis
p2577
I2702
sV.
I29
sVlarvae
p2578
I1851
sVadolescent
p2579
I5003
sVpairing
p2580
I4160
sVimmunotherapy
p2581
I5385
sVspots
p2582
I2775
sVmitigation
p2583
I4347
sVproliferating
p2584
I4722
sVvenezuelan
p2585
I4387
sVspecimens
p2586
I3157
sVnaturally
p2587
I170
sVfunction
p2588
I375
sVbuilding
p2589
I4165
sVglia
p2590
I4431
sVsponges
p2591
I2082
sVlymphopoiesis
p2592
I1893
sVprogenitor
p2593
I1762
sVbut
p2594
I830
sVdelivery
p2595
I519
sVknockdown
p2596
I1219
sVlowered
p2597
I449
sVharony
p2598
I1933
sVediting
p2599
I3346
sVpartially
p2600
I1446
sVcount
p2601
I424
sVfragmentation
p2602
I5114
sVmicroarchitecture
p2603
I2373
sVevident
p2604
I2036
sVminichromosome
p2605
I2416
sVvariations
p2606
I1272
sVmischarging
p2607
I4317
sVmeta
p2608
I3761
sVdistribution
p2609
I1814
sVminutes
p2610
I776
sVxbp1
p2611
I3483
sVglycophosphatidylinositol
p2612
I484
sVpova
p2613
I3524
sVcytarabine
p2614
I1507
sVrecognize
p2615
I2585
sVmeasure
p2616
I5286
sVpie
p2617
I965
sVepec
p2618
I982
sV82
p2619
I2319
sVepex
p2620
I504
sVepithelial
p2621
I477
sVour
p2622
I234
sVhematological
p2623
I3869
sVglutamate
p2624
I3996
sVnuclease
p2625
I4053
sVcompared
p2626
I69
sVefficacy
p2627
I258
sV48
p2628
I1353
sVvariety
p2629
I950
sV46
p2630
I724
sV44
p2631
I3140
sVhpv
p2632
I113
sVduplications
p2633
I4120
sVmechanochemical
p2634
I2367
sVinhibited
p2635
I2591
sVmcf
p2636
I3733
sVpredominant
p2637
I5340
sVconcerning
p2638
I2905
sVtransfection
p2639
I2593
sVrepeat
p2640
I1214
sVneuroblastoma
p2641
I4290
sVvariation
p2642
I1144
sVpolyposis
p2643
I802
sVneuropilin
p2644
I3538
sVpi3
p2645
I2625
sV0.83-fold
p2646
I5399
sVexposure
p2647
I379
sVbreaks
p2648
I733
sVpreosteoblast
p2649
I3935
sVlactose
p2650
I1725
sVgapdh
p2651
I5064
sVderegulated
p2652
I4737
sVsearched
p2653
I4159
sVinterferon-/
p2654
I3865
sV4b
p2655
I2688
sVlimited
p2656
I3230
sValleles
p2657
I3549
sVmagnetic
p2658
I542
sVbmsc
p2659
I450
sVacetylserotonin
p2660
I3373
sVintegrity
p2661
I4505
sVassembled
p2662
I1297
sVcytokines
p2663
I4235
sVrelationships
p2664
I1574
sVoocyte
p2665
I3207
sVfeeding
p2666
I3049
sVphysiological
p2667
I1654
sVoverexpress
p2668
I3913
sVpth
p2669
I2700
sVsmad1/5/8
p2670
I1496
sVgata3
p2671
I3369
sVunder
p2672
I2415
sVmessenger
p2673
I2826
sVdivergent
p2674
I1266
sVsummarizes
p2675
I3823
sVlure
p2676
I5324
sVrisk
p2677
I1748
sVhpv(+
p2678
I413
sVaurora
p2679
I3198
sVborealin-2
p2680
I1876
sVpathfinding
p2681
I2636
sVreplication
p2682
I43
sVnodule
p2683
I4214
sVevery
p2684
I2627
sVupstream
p2685
I3596
sVviral
p2686
I554
sVperoxidation
p2687
I1641
sVcirculation
p2688
I645
sVadeno
p2689
I3856
sVpooled
p2690
I2990
sVprogression
p2691
I751
sVsupports
p2692
I3004
sVcmd
p2693
I1629
sVtampere
p2694
I4707
sVdownregulating
p2695
I1183
sVtnf-
p2696
I3737
sVlsamp
p2697
I1558
sV\u000a\u000a\u000a 
p2698
I2706
sVrvvi
p2699
I4602
sVconsistent
p2700
I2346
sVdirect
p2701
I715
sVcsp1
p2702
I5183
sV~93%
p2703
I2370
sVsurrounding
p2704
I1430
sVinfiltration
p2705
I528
sVlymphoblastic
p2706
I58
sVestimated
p2707
I1735
sVcatalyses
p2708
I3987
sVestablished
p2709
I1078
sVfiltration
p2710
I4445
sVorganisms
p2711
I2921
sVmpec
p2712
I274
sV+
I1890
sVselected
p2713
I2835
sVnear
p2714
I4756
sVparapneumonic
p2715
I2722
sVmpet
p2716
I1482
sVintrahepatic
p2717
I1991
sVreconstruction
p2718
I1264
sVtoll
p2719
I1106
sVpentachlorophenol
p2720
I4260
sVfrizzled
p2721
I2885
sVconsisting
p2722
I1958
sVegr-1
p2723
I2690
sVsimultaneously
p2724
I5137
sVresponsiveness
p2725
I3092
sVkruppel
p2726
I2355
sVresidual
p2727
I695
sVionization
p2728
I1438
sVprotection
p2729
I172
sVethanol
p2730
I3620
sVparaffin
p2731
I2758
sVrepresented
p2732
I2957
sVobtained
p2733
I887
sVtransudate
p2734
I2723
sVapical
p2735
I5170
sVproperty
p2736
I4786
sVstudy
p2737
I203
sVty
p2738
I2564
sVregulators
p2739
I2161
sVakt
p2740
I1954
sVcharacterizing
p2741
I4848
sVstressed
p2742
I4095
sVchanges
p2743
I1395
sVdiameter
p2744
I3395
sVvp1
p2745
I1112
sVmodulates
p2746
I4482
sVp63
p2747
I2517
sVhighly
p2748
I436
sVmodulated
p2749
I961
sVprotein-1
p2750
I2409
sVp65
p2751
I5426
sVtotal
p2752
I1082
sVinterest
p2753
I2848
sVscaffolding
p2754
I435
sVwould
p2755
I3960
sVisoform
p2756
I3160
sVpqtl
p2757
I5214
sVmediate
p2758
I2509
sVprogram
p2759
I4080
sVm1
p2760
I1548
sVredox
p2761
I5088
sVm2
p2762
I373
sVassessment
p2763
I4541
sVannotations
p2764
I3587
sVflury
p2765
I4526
sVnkl
p2766
I1887
sVbiomechanical
p2767
I5131
sVtoolkit
p2768
I1593
sVnfatc3
p2769
I3144
sVexcellent
p2770
I4621
sVirf9
p2771
I4913
sVconditioned
p2772
I3931
sVblocking
p2773
I4513
sVharnessing
p2774
I4981
sVabundance
p2775
I1406
sVmg
p2776
I5329
sVu251
p2777
I2280
sV3untranslated
p2778
I2875
sVmc
p2779
I2283
sVplayer
p2780
I5105
sVml
p2781
I4251
sVwork
p2782
I235
sVphosphorylated
p2783
I2010
sVmammalian
p2784
I440
sVmt
p2785
I1782
sV0.250
p2786
I4618
sVtnf
p2787
I3572
sVms
p2788
I1445
sVtnm
p2789
I5343
sVerk
p2790
I4107
sVtelomerase
p2791
I4548
sVindicated
p2792
I143
sVmpg
p2793
I3444
sVpreserving
p2794
I2372
sVindia
p2795
I5257
sV-dependent
p2796
I3986
sVvalidated
p2797
I326
sVuplift
p2798
I3655
sVuaf
p2799
I4764
sV-reactive
p2800
I3056
sVupregulated
p2801
I164
sVend
p2802
I140
sVrecovery
p2803
I3260
sVcarriers
p2804
I3899
sVprovide
p2805
I869
sVniemann
p2806
I5225
sVvery
p2807
I1806
sVlesions
p2808
I3553
sVnad(p
p2809
I5061
sVtoxin
p2810
I3114
sVenv
p2811
I3439
sVhbcatc
p2812
I3877
sVtoxic
p2813
I4711
sVhbcatm
p2814
I3871
sVwidespread
p2815
I2221
sVclassifying
p2816
I2081
sVfever
p2817
I4144
sVtransforming
p2818
I2349
sValbumin
p2819
I10
sVcontaining
p2820
I1048
sVcox-2
p2821
I4768
sVpolymerase
p2822
I632
sVfat
p2823
I4407
sVarcl
p2824
I2366
sVthreonine
p2825
I267
sVparallel
p2826
I574
sVd371y
p2827
I3831
sVoncomine
p2828
I4216
sVguanosine
p2829
I4861
sVcomplexity
p2830
I704
sVigg.
p2831
I2991
sVgreen
p2832
I3674
sVdecreasing
p2833
I3482
sVorder
p2834
I2058
sVtriggering
p2835
I518
sVhedgehog
p2836
I1235
sVcommunicability
p2837
I5102
sVneuroprotective
p2838
I3098
sVover
p2839
I774
sVsickle
p2840
I364
sVaxotomized
p2841
I4694
sVrs492994
p2842
I5250
sVstaining
p2843
I924
sVreplicating
p2844
I2220
sVinterleukin-2
p2845
I3705
sVpriming
p2846
I3411
sVcll
p2847
I5076
sV40%
p2848
I2359
sVh5nx
p2849
I3218
sV37c
p2850
I2385
sVencapsulated
p2851
I239
sVmir-491
p2852
I4596
sVmcm7
p2853
I2417
sVproduction
p2854
I816
sVcompensatory
p2855
I3052
sVcondition
p2856
I1476
sVvanillin
p2857
I2581
sVprecipitate
p2858
I4205
sVdiffered
p2859
I3386
sVunrecognized
p2860
I4403
sVversus
p2861
I1705
sVthen
p2862
I303
sVthem
p2863
I1331
sVpgm
p2864
I3641
sVaffected
p2865
I949
sVdiseases
p2866
I2204
sVfragment
p2867
I1071
sVdihomo--linolenic
p2868
I1919
sVneurological
p2869
I4075
sVbreak
p2870
I797
sVrnf8
p2871
I780
sVconjugating
p2872
I2644
sVjvw-1009
p2873
I3097
sVrj119
p2874
I4454
sVoxygen
p2875
I98
sV17p15.3-p15.1
p2876
I2787
sVl
I1628
sV79.4%
p2877
I347
sVstimulus
p2878
I2360
sVfilling
p2879
I2662
sVcatabolic
p2880
I5334
sVmrna
p2881
I353
sVeach
p2882
I280
sVacylcarnitine
p2883
I4762
sVapplicable
p2884
I4572
sVihc
p2885
I711
sVselectin
p2886
I378
sVovercame
p2887
I4014
sVnetwork
p2888
I1485
sVp)-erk
p2889
I3602
sVclade
p2890
I2109
sVvessels
p2891
I3396
sVrunx2
p2892
I2943
sVday-
p2893
I3944
sVadenylate
p2894
I3669
sVnewly
p2895
I888
sVbarrier
p2896
I1210
sVinos
p2897
I4806
sVnts
p2898
I4975
sVfree
p2899
I2077
sVstandard
p2900
I288
sVnine-
p2901
I2876
sVnonhomologous
p2902
I139
sVntm
p2903
I1552
sVskeletal
p2904
I1422
sVdetecting
p2905
I3032
sVfret
p2906
I3514
sVpfam
p2907
I1305
sVincorporates
p2908
I3042
sVequine
p2909
I4388
sVcreated
p2910
I2430
sVnucleosomal
p2911
I4487
sVunknown
p2912
I953
sVonto
p2913
I3039
sVpreoperative
p2914
I3152
sValready
p2915
I895
sVpunctate
p2916
I926
sVtrkb
p2917
I4106
sVtrka
p2918
I2599
sVproteomics
p2919
I1706
sVcoding
p2920
I269
sVprimary
p2921
I442
sVvascularization
p2922
I4322
sVnhp
p2923
I967
sVanother
p2924
I2788
sVimplicated
p2925
I835
sVmechanistically
p2926
I3481
sVelectronic
p2927
I3780
sVdysfunction
p2928
I95
sVradiobiological
p2929
I783
sVimmunoassay
p2930
I4947
sV0.03
p2931
I4751
sVapproximately
p2932
I1295
sV0.05
p2933
I3290
sVrates
p2934
I5130
sVobservations
p2935
I1060
sVpercentage
p2936
I3419
sVdamaging
p2937
I3306
sVglucose
p2938
I2523
sVcav-1
p2939
I3787
sVenhancing
p2940
I2156
sVtool
p2941
I275
sVthoracic
p2942
I4705
sVserve
p2943
I322
sVwestern
p2944
I928
sVinjected
p2945
I4693
sVcolitis
p2946
I2742
sVpyramidal
p2947
I5001
sVtarget
p2948
I748
sVroles
p2949
I914
sVforensic
p2950
I2799
sVkts
p2951
I3497
sVbinds
p2952
I3498
sVprecocious
p2953
I3626
sVclasses
p2954
I3816
sVmodulators
p2955
I4411
sVplasmid
p2956
I667
sViron
p2957
I4342
sVperspective
p2958
I2813
sVraf
p2959
I4798
sVrad
p2960
I3142
sVfashion
p2961
I3500
sVraw
p2962
I2928
sVrat
p2963
I1288
sVras
p2964
I3446
sVku80
p2965
I4161
sVbdnf
p2966
I4105
sVregulate
p2967
I1177
sVcontents
p2968
I3995
sVforced
p2969
I2281
sVfunctioning
p2970
I2021
sVrelapse
p2971
I4852
sVpleural
p2972
I1180
sVconvenient
p2973
I5323
sVlatter
p2974
I3952
sV-
I4
sVisolated
p2975
I363
sV92.5%
p2976
I348
sVpredominantly
p2977
I1599
sVsubjects
p2978
I2668
sVphago
p2979
I4003
sVretinoblastoma
p2980
I1799
sVisolates
p2981
I4173
sVaspirates
p2982
I3836
sVra1067
p2983
I3923
sVbst
p2984
I3398
sVglands
p2985
I1193
sVcomplexes
p2986
I856
sVoptimized
p2987
I736
sVabc
p2988
I1771
sVcarcinoma
p2989
I394
sVphase
p2990
I566
sVassessed
p2991
I426
sVpapillomavirus
p2992
I1741
sVpotency
p2993
I1580
sVcalculated
p2994
I4069
sVdevastating
p2995
I5277
sVflow
p2996
I3415
sVscavenging
p2997
I1776
sVchemotaxis
p2998
I3593
sVaccounted
p2999
I4979
sVtens
p3000
I4126
sVdystonia
p3001
I4743
sVquantifying
p3002
I3303
sVsilencing
p3003
I2153
sVreductions
p3004
I3843
sVlewis
p3005
I654
sVrandom
p3006
I2744
sVpkc
p3007
I4184
sVpka
p3008
I2127
sVdefects
p3009
I4089
sVpkg
p3010
I5444
sVcarotid
p3011
I4702
sVblotting
p3012
I3666
sVlb6h
p3013
I1261
sVlatent
p3014
I2400
sV3utr
p3015
I1222
sVelucidated
p3016
I4918
sValdo
p3017
I606
sVdnmt
p3018
I1577
sVscreening
p3019
I2500
sValdh
p3020
I1775
sVhre
p3021
I3243
sVdesorption
p3022
I1437
sVmixture
p3023
I3349
sVtracers
p3024
I3895
sVmir-221-binding
p3025
I1237
sVdd
p3026
I1389
sVde
p3027
I1472
sVdb
p3028
I3479
sVfluid
p3029
I2709
sVdegradation
p3030
I652
sVphd2
p3031
I4344
sVdespite
p3032
I1650
sVreport
p3033
I799
sVbonferroni
p3034
I4758
sVdr
p3035
I2733
sVpeptidase
p3036
I3465
sVbeads
p3037
I543
sVmir-489
p3038
I4924
sVthrombo
p3039
I4902
sVmethod
p3040
I1787
sVemt
p3041
I2695
sVemp
p3042
I1710
sVstemi
p3043
I3764
sVfreshwater
p3044
I1848
sVswept
p3045
I5207
sVdimerization
p3046
I3861
sVhpv)-associated
p3047
I1657
sVobserved
p3048
I168
sVdepends
p3049
I176
sVcytoplasmic
p3050
I833
sVovalbumin
p3051
I663
sVcattle
p3052
I2948
sVsporadic
p3053
I1691
sVt790
p3054
I3272
sVcofactor
p3055
I4723
sVcapacity
p3056
I1592
sVpaternal
p3057
I4785
sVnadph
p3058
I853
sVunable
p3059
I5123
sVfinger
p3060
I1984
sVglucopyranose
p3061
I1572
sVglutamine
p3062
I3997
sVptgds
p3063
I4636
sVcaves
p3064
I1795
sVapproach
p3065
I206
sV363
p3066
I3977
sVdiscovery
p3067
I2634
sVwe
p3068
I73
sVdlcn
p3069
I2133
sVterms
p3070
I585
sVpositron
p3071
I2891
sVvisualization
p3072
I5262
sVoxidation
p3073
I1009
sVpackaged
p3074
I4665
sVhowever
p3075
I1206
sVwt
p3076
I2003
sVflowering
p3077
I4809
sVoxidase
p3078
I854
sVabolished
p3079
I1447
sVlinkage
p3080
I3982
sVimprove
p3081
I1959
sVlgr5
p3082
I4690
sVreceived
p3083
I4934
sVphospho
p3084
I2162
sVile
p3085
I4319
sVrhythms
p3086
I3943
sVcov
p3087
I2433
sVcox
p3088
I4941
sVventricular
p3089
I3106
sVselective
p3090
I3624
sVbraf
p3091
I4970
sVcoi
p3092
I2079
sVezh2
p3093
I2188
sVsupplementation
p3094
I4229
sVbehaviors
p3095
I4696
sVire1a
p3096
I4049
sVomega-3
p3097
I4232
sVhad
p3098
I445
sVcodon
p3099
I1386
sVmutations
p3100
I1311
sVrubisco
p3101
I5046
sVviruses
p3102
I1740
sVapplicability
p3103
I2797
sVmidzone
p3104
I3170
sVmb30
p3105
I3635
sVstrong
p3106
I1061
sVrotenone
p3107
I2514
sVadamts2
p3108
I2344
sVratio=6.86
p3109
I4677
sVbelongs
p3110
I3731
sV8-hydroxy
p3111
I4860
sVexpected
p3112
I2002
sVflexible
p3113
I2858
sVcdc2
p3114
I4584
sV0.1%
p3115
I4826
sVfamilies
p3116
I3431
sVdrugs
p3117
I1568
sVire1.
p3118
I1672
sVchk1
p3119
I2011
sVrep68/78
p3120
I3852
sVmethylation27
p3121
I430
sVapplied
p3122
I157
sVcytotoxic
p3123
I5377
sVinhibit
p3124
I3177
sVaiy
p3125
I4793
sVreciprocal
p3126
I3312
sVplasma
p3127
I320
sVheartland
p3128
I4146
sVais
p3129
I4152
sVn
I2028
sVaim
p3130
I202
sVholoprotein
p3131
I4060
sVsca-1
p3132
I5442
sVleaves
p3133
I3998
sVendpoints
p3134
I4540
sVprocedure
p3135
I290
sV-particles
p3136
I768
sVmir-664b-5p
p3137
I3800
sVallows
p3138
I4316
sVundetectable
p3139
I4834
sVsting
p3140
I3746
sVprion
p3141
I479
sVppicza
p3142
I4355
sVtissue
p3143
I898
sVtumorigenesis
p3144
I2085
sVpathology
p3145
I1651
sVinteracts
p3146
I1717
sVpercutaneous
p3147
I3765
sVdescent
p3148
I5196
sVperform
p3149
I2798
sVsuggest
p3150
I32
sVrecurrent
p3151
I4925
sVikaros
p3152
I4841
sVcomplex
p3153
I945
sVphenotype
p3154
I741
sVadvances
p3155
I2117
sVseveral
p3156
I27
sVrna
p3157
I410
sVindependent
p3158
I1247
sVsatellite
p3159
I4117
sVnumerical
p3160
I1615
sVlc3
p3161
I925
sVcounterparts
p3162
I72
sVhand
p3163
I3020
sVppci
p3164
I3767
sVcycle
p3165
I565
sVglp-1
p3166
I3874
sVddavp
p3167
I3341
sVfemoral
p3168
I4703
sV0.00001
p3169
I3722
sVthr
p3170
I4901
sVcompartments
p3171
I5162
sVcampy
p3172
I4331
sVgreatest
p3173
I861
sVfunction(s
p3174
I2512
sVthe
p3175
I2
sVassembling
p3176
I3909
sVcisplatin
p3177
I1676
sVbirth
p3178
I5083
sVproposed
p3179
I3112
sVil-12
p3180
I2740
sVproposes
p3181
I3825
sVmig
p3182
I3720
sVtransmembrane
p3183
I253
sVmodulate
p3184
I1291
sVfunctionally
p3185
I1719
sVcaveolin-1
p3186
I3786
sVthyroid
p3187
I2556
sVadding
p3188
I3801
sVmonitored
p3189
I3511
sVgata-3-mediated
p3190
I3370
sVmcf-7
p3191
I2902
sV5p
p3192
I1257
sVevidences
p3193
I2138
sVspread
p3194
I817
sVtransformed
p3195
I3418
sVevidenced
p3196
I4450
sVoccurring
p3197
I5233
sV5a
p3198
I4808
sV5c
p3199
I2384
sVmcf-7-r
p3200
I4393
sVegfr
p3201
I3318
sVarid1a
p3202
I3914
sVck2
p3203
I1022
sVchitin
p3204
I2864
sVfusion
p3205
I1011
sVrns
p3206
I3551
sVadvanced
p3207
I2476
sVmesothelioma
p3208
I1181
sV54
p3209
I4603
sVimmunosorbant
p3210
I5213
sV-derived
p3211
I1158
sV50
p3212
I2757
sV53
p3213
I2711
sVadiponectin
p3214
I1870
sVspecific
p3215
I249
sVinformative
p3216
I5037
sVmosquito
p3217
I5079
sVhepatic
p3218
I1820
sVfluoride
p3219
I2914
sVfungal
p3220
I1902
sVrils
p3221
I5008
sV51
p3222
I3138
sVsuccessfully
p3223
I2572
sVanxa5
p3224
I4314
sVsponge
p3225
I1533
sVallohsct
p3226
I5356
sVindirect
p3227
I2474
sV52
p3228
I2803
sVfingerprinting
p3229
I1433
sVcns
p3230
I4335
sVcnp
p3231
I4754
sVpul21a
p3232
I595
sV/
I9
sVics
p3233
I5141
sVcortical
p3234
I4364
sVcni
p3235
I3445
sVcord
p3236
I4958
sVcore
p3237
I2976
sVhsa
p3238
I3180
sVmhcii
p3239
I2953
sVelucidate
p3240
I1539
sVcxcr4
p3241
I3313
sVcarbonylation
p3242
I3430
sVtstrs
p3243
I3409
sVgermplasm
p3244
I3136
sVgenotoxic
p3245
I3299
sVpost
p3246
I2986
sVherpes
p3247
I3840
sVcarcinogenesis
p3248
I5228
sVfenofibrate
p3249
I2363
sVmir-103a-3p
p3250
I5020
sVgalloyl
p3251
I1570
sVplus
p3252
I3805
sVobx
p3253
I2765
sVefforts
p3254
I3005
sV50500
p3255
I367
sVdigestion
p3256
I4076
sVartemisinin
p3257
I4739
sVpresence
p3258
I1789
sVhaplotype
p3259
I4749
sVosteocalcin
p3260
I2942
sVbound
p3261
I3324
sVtwo
p3262
I540
sVrendering
p3263
I3213
sVbalanced
p3264
I1562
sVpuncta
p3265
I2449
sVmalignancies
p3266
I2981
sVvc0139
p3267
I1342
sVdehydrogenase
p3268
I1774
sVexisted
p3269
I3879
sVsegment
p3270
I3393
sVindispensable
p3271
I3167
sVtruncated
p3272
I2855
sVcausative
p3273
I1841
sVclass
p3274
I3815
sVmutated
p3275
I262
sVclinical
p3276
I979
sV8)
p3277
I3490
sVway
p3278
I3783
sVwas
p3279
I156
sVmetabolism
p3280
I1337
sVsynthesis
p3281
I469
sVlowest
p3282
I2823
sVhead
p3283
I1658
sVmedium
p3284
I3932
sVsteers
p3285
I4821
sVepsilon
p3286
I3253
sVdifferences
p3287
I1132
sVencodes
p3288
I1343
sVheat
p3289
I973
sVmagnitude
p3290
I3392
sV2.10-
p3291
I5396
sVremoved
p3292
I2369
sVtrue
p3293
I1258
sVabsent
p3294
I4162
sVss469415590
p3295
I1242
sV0.004
p3296
I3001
sVreproductive
p3297
I91
sVversions
p3298
I1259
sVla
p3299
I1598
sVvivo
p3300
I2388
sVdifferent
p3301
I1468
sVmth
p3302
I2406
sVphosphate
p3303
I4991
sVcancers
p3304
I28
sVadenosine
p3305
I2824
sVmtb
p3306
I3568
sVmtc
p3307
I1686
sV90%
p3308
I3798
sVifn-
p3309
I3715
sVinclusive
p3310
I5031
sVpyrosequencing
p3311
I4815
sVmuscular
p3312
I1626
sVevidence
p3313
I870
sVhpaxm
p3314
I4470
sVconserved
p3315
I1021
sVnnv
p3316
I1840
sVcreatinine
p3317
I2489
sVconstructed
p3318
I1541
sVmrnas
p3319
I837
sVnk
p3320
I1001
sVnm
p3321
I368
sVno
p3322
I2386
sVna
p3323
I2931
sVwhereas
p3324
I2477
sVsubstances
p3325
I2587
sVnd
p3326
I2326
sVegfrcrea
p3327
I2490
sVtil
p3328
I408
sVtim
p3329
I3949
sVtio
p3330
I3754
sVheterozygous
p3331
I3384
sVnr
p3332
I3585
sVnt
p3333
I2792
sVnode
p3334
I2998
sVphosphatidylethanolamine
p3335
I2043
sVcpkc
p3336
I4726
sVnucleocapsids
p3337
I4666
sVil-6
p3338
I3926
sVdatabases
p3339
I1300
sVil-1
p3340
I4236
sVil-2
p3341
I3706
sVpstrx
p3342
I3417
sVmicrorna-7
p3343
I2286
sVpropelling
p3344
I2546
sVmc3t3-e1
p3345
I3936
sVreassuringly
p3346
I911
sVhpv(
p3347
I415
sVhippocampal
p3348
I1289
sVebov
p3349
I947
sVinterval
p3350
I4629
sVmodules
p3351
I910
sVtogether
p3352
I753
sVuncovered
p3353
I2982
sVserious
p3354
I951
sVmsln
p3355
I1292
sViglon
p3356
I1561
sVconcept
p3357
I2571
sVneurodegeneration
p3358
I3099
sVremarkable
p3359
I4179
sVglobal
p3360
I427
sVfocus
p3361
I1474
sVleads
p3362
I493
sVtripartite
p3363
I2708
sVselection
p3364
I3133
sVremarkably
p3365
I5341
sVbicebp
p3366
I2837
sVcontributing
p3367
I2987
sVinverse
p3368
I4788
sVgraph
p3369
I5098
sVenvironment
p3370
I3958
sVpost-
p3371
I2697
sVpromoting
p3372
I2250
sVautophagosome
p3373
I3085
sVintercellular
p3374
I1711
sVmta-1
p3375
I4954
sVdivision
p3376
I3194
sVmethyl
p3377
I1313
sVadvantage
p3378
I4369
sVorthogonal
p3379
I1583
sVivig
p3380
I2993
sVaml1-eto
p3381
I4063
sVseemingly
p3382
I3536
sVresponders
p3383
I4334
sVcirrhotic
p3384
I1952
sVrespiratory
p3385
I92
sVlevel
p3386
I97
sValtering
p3387
I1604
sVmonooxygenase
p3388
I5206
sVbh18
p3389
I1466
sVhomeostatic
p3390
I3119
sV8-oxo-7,8-dihydro-2-deoxyguanosine
p3391
I3554
sVnsp15-ha
p3392
I2445
sVgut
p3393
I4181
sVaccumulation
p3394
I640
sVbhlh
p3395
I4555
sVupper
p3396
I4669
sVpms
p3397
I1915
sVrepetitive
p3398
I3588
sVpore
p3399
I2143
sVdiscover
p3400
I3236
sVpedf
p3401
I3176
sVdried
p3402
I2963
sVbacteria
p3403
I1347
sVsubstitute
p3404
I4882
sVspectral
p3405
I2889
sVappear
p3406
I5242
sVscaffold
p3407
I4153
sVshares
p3408
I5171
sV0.82-
p3409
I5398
sVphosphatase
p3410
I2941
sVsilking
p3411
I3759
sV-sarcoglycan
p3412
I4917
sV529
p3413
I4950
sVsupporting
p3414
I3163
sVbarcode
p3415
I4273
sVelevating
p3416
I96
sVg6pd
p3417
I3131
sValkaline
p3418
I2940
sVap-2
p3419
I1285
sVgenes
p3420
I535
sVmultidrug
p3421
I1281
sVline-1
p3422
I3089
sVpolyprotein
p3423
I811
sVgroups
p3424
I541
sVkpni
p3425
I1634
sVappears
p3426
I4865
sVchange
p3427
I403
sVcycle-
p3428
I5292
sVseq/
p3429
I420
sVthirty
p3430
I775
sVsyncytial
p3431
I4315
sVprecursor
p3432
I841
sVprostaglandin
p3433
I4633
sVmir-125b
p3434
I3314
sVusually
p3435
I481
sVresonance
p3436
I3513
sVinvasiveness
p3437
I4771
sVmimicked
p3438
I3182
sVpancreatitis
p3439
I2622
sVregardless
p3440
I3345
sVos
p3441
I1779
sVoligodendrocytes
p3442
I197
sVinducing
p3443
I2425
sVupf1-bound
p3444
I5160
sVmarked
p3445
I2604
sVtranslational
p3446
I2698
sVmarker
p3447
I1016
sVdeselecting
p3448
I4243
sVprotein-10
p3449
I3713
sVtnbs
p3450
I3507
sVframeshift
p3451
I5154
sVcamkii
p3452
I1007
sVlive
p3453
I2754
sVmsi
p3454
I5187
sVcriteria
p3455
I904
sVtnbc
p3456
I1186
sVmsc
p3457
I2871
sVischemia
p3458
I3969
sVischemic
p3459
I3335
sVufmylated
p3460
I4047
sVoutputs
p3461
I3117
sVenvelope
p3462
I3438
sVsymptomatic
p3463
I4539
sVh2
p3464
I4634
sVtyrrs
p3465
I2308
sVcases
p3466
I1309
sVinsights
p3467
I1754
sVpre.
p3468
I852
sVcas
p3469
I1585
sVcar
p3470
I14
sVnfkb
p3471
I5026
sVibd
p3472
I2661
sVmodified
p3473
I1938
sVfoci
p3474
I697
sVcan
p3475
I646
sVsas-0132
p3476
I3096
sVtrans
p3477
I1503
sVcag
p3478
I2796
sVcaf
p3479
I2252
sVstimulating
p3480
I2656
sVmesothelin
p3481
I1173
sVheart
p3482
I1486
sVhmgb1
p3483
I2492
sVv2r
p3484
I3339
sVstroke
p3485
I4563
sVmzasmt9
p3486
I3379
sVperformed
p3487
I77
sVcardio
p3488
I2484
sVserum
p3489
I636
sVproductive
p3490
I2089
sVmb14
p3491
I3634
sVgemcitabine
p3492
I1276
sVmb11
p3493
I1633
sV1
I610
sVvital
p3494
I4320
sVcardinal
p3495
I4542
sVfourth
p3496
I2111
sVcoiled
p3497
I2268
sVproduct
p3498
I1525
sVdampened
p3499
I931
sVquantified
p3500
I4480
sVuse
p3501
I1365
sVsouthern
p3502
I3919
sV0.71
p3503
I4873
sV0.70
p3504
I4813
sV0.75
p3505
I4814
sVannotation
p3506
I1079
sVoshap3
p3507
I4035
sVpurification
p3508
I1463
sVpax6
p3509
I3011
sVsamd3
p3510
I2944
sVtypical
p3511
I4878
sVexclusive
p3512
I4496
sVtagged
p3513
I779
sVbrca1-mutated
p3514
I3799
sVindeed
p3515
I2282
sVmainly
p3516
I396
sVbrain
p3517
I1931
sVmtfp1
p3518
I2460
sVnitrogen
p3519
I2027
sVcoli
p3520
I803
sVcold
p3521
I2073
sVsp1-mediated
p3522
I2515
sVblocked
p3523
I4414
sVtra-1
p3524
I4886
sVretrovirally
p3525
I4887
sVforms
p3526
I3366
sVplatform
p3527
I3642
sVwindow
p3528
I3608
sVoffers
p3529
I1537
sVnon
p3530
I308
sVrapamycin
p3531
I155
sVfootpad
p3532
I441
sVunveiling
p3533
I4569
sVtrna
p3534
I2304
sVfetoprotein
p3535
I638
sVmisacylation
p3536
I5246
sVintroduce
p3537
I1417
sVnox
p3538
I855
sVg985s
p3539
I5299
sVhalf
p3540
I3383
sVnot
p3541
I195
sVmetabolite
p3542
I2580
sVcentromeres
p3543
I4113
sVpsme1
p3544
I5182
sV1,2,6-tri
p3545
I1569
sVdiscuss
p3546
I2205
sVnor
p3547
I5186
sVlineage
p3548
I2955
sVsusceptibility
p3549
I2654
sVterm
p3550
I978
sVendotoxemia
p3551
I4231
sVcd133
p3552
I5303
sVunigenes
p3553
I1084
sVinjury
p3554
I1836
sVentirely
p3555
I4190
sVmesenchymal
p3556
I1499
sV4-hne
p3557
I1187
sVdomain
p3558
I834
sVweighted
p3559
I5097
sVsignificantly
p3560
I371
sVsimplicity
p3561
I3079
sVndrg
p3562
I4933
sVea
p3563
I4755
sVsilkworms
p3564
I3751
sVw100
p3565
I4744
sVyear
p3566
I4130
sVubiquitous
p3567
I4916
sVer
p3568
I474
sVshown
p3569
I19
sVmultifunctional
p3570
I743
sVinfarct
p3571
I2975
sVfactors
p3572
I1749
sVfurthermore
p3573
I2538
sVinadequacy
p3574
I4515
sVplasmids
p3575
I3037
sVincrease
p3576
I873
sVcategorised
p3577
I1306
sVrational
p3578
I4416
sVshows
p3579
I3159
sVinevitably
p3580
I4967
sVdefenses
p3581
I3748
sVlmp
p3582
I3088
sVpathogenic
p3583
I3622
sVdiagnostic
p3584
I323
sVshh
p3585
I3625
sVe8
p3586
I3296
sVmarine
p3587
I1847
sVcard
p3588
I3563
sVe2
p3589
I2645
sVrearrangements
p3590
I4222
sVmethylation
p3591
I387
sVamyloid
p3592
I1655
sVmir-100
p3593
I2834
sV100%
p3594
I1118
sVtransition
p3595
I5387
sVgranule
p3596
I3570
sVpsma
p3597
I252
sVphospho)proteomic
p3598
I575
sVplace
p3599
I3053
sVchildhood
p3600
I5278
sVufmylation
p3601
I1674
sVblood
p3602
I538
sVorigin
p3603
I954
sVsurviving
p3604
I3397
sVstriking
p3605
I4485
sVhif-1
p3606
I4345
sVreintroduction
p3607
I1119
sVdirectly
p3608
I825
sVyb-1
p3609
I2071
sVarray
p3610
I2333
sVsize
p3611
I693
sVsheep
p3612
I2809
sVgiven
p3613
I2194
sVlmd
p3614
I4396
sV179-amino
p3615
I3729
sVplastid
p3616
I3644
sVtest
p3617
I226
sVfibrinogen
p3618
I2201
sVsdcbp
p3619
I1185
sVstimulation
p3620
I4092
sVcooling
p3621
I3791
sVplastids
p3622
I4738
sVwhite
p3623
I1094
sVframe
p3624
I3728
sVcopd
p3625
I3158
sVthat
p3626
I33
sVasymmetric
p3627
I3193
sVbrains
p3628
I3183
sVcostimulation
p3629
I3812
sVmicrobeam
p3630
I771
sVtamr
p3631
I2423
sVslo-1
p3632
I3060
sVheterologous
p3633
I2573
sVcopy
p3634
I1215
sVthan
p3635
I181
sVdisequilibrium
p3636
I4812
sVpopulation
p3637
I220
sValanine96
p3638
I3276
sVwide
p3639
I213
sVmicrodomain
p3640
I5431
sVendoplasmic
p3641
I488
sVsurvivals
p3642
I2729
sVrequire
p3643
I196
sVoligonucleotides
p3644
I2846
sVr
I1354
sVmagnesium
p3645
I4203
sVsera
p3646
I539
sVoutcome
p3647
I1703
sVpre
p3648
I3488
sVchlorophyll
p3649
I3277
sVremained
p3650
I3266
sVpro
p3651
I533
sVendopeptidase
p3652
I3472
sVchloronema
p3653
I5169
sVprh
p3654
I1028
sVprp
p3655
I480
sVabnormalities
p3656
I2175
sVheterozygotes
p3657
I3689
sVrhpedf
p3658
I5244
sVmap2
p3659
I4999
sVform
p3660
I1458
sVamplicon
p3661
I1550
sVsustained
p3662
I739
sVck1.
p3663
I2015
sVbegin
p3664
I2428
sVmultiple
p3665
I1138
sV4-pba
p3666
I521
sVgenotypic
p3667
I1427
sVpmaci
p3668
I4237
sVupregulating
p3669
I3743
sVapoe
p3670
I4632
sVimportantly
p3671
I1373
sV]
I1097
sVprobes
p3672
I2404
sVlatex
p3673
I4452
sVinterleukin-6-dependent
p3674
I4432
sVrefeeding
p3675
I3046
sVrenal
p3676
I523
sVposttranslational
p3677
I3988
sVconsidered
p3678
I4517
sVlater
p3679
I1875
sVimplications
p3680
I4359
sVpp1
p3681
I4846
sVgdna
p3682
I2925
sVgfp+
p3683
I5424
sVcortex
p3684
I1557
sVpattern
p3685
I796
sVduplication
p3686
I2062
sVtypically
p3687
I2559
sVciliogenesis
p3688
I5427
sVnucleoplasmic
p3689
I1608
sVtki
p3690
I2900
sVdiscovered
p3691
I1004
sVencoded
p3692
I989
sVlymphostatin
p3693
I986
sVoverexpressed
p3694
I255
sVtestis
p3695
I1883
sVratio
p3696
I11
sVherc2
p3697
I3120
sVstained
p3698
I4995
sVproportion
p3699
I63
sVonly
p3700
I2361
sVenriched
p3701
I1483
sVssx
p3702
I1013
sVviewpoint
p3703
I1538
sVarachidonic
p3704
I1923
sVperitoneal
p3705
I1823
sVtrnas
p3706
I3817
sVkinesin
p3707
I3165
sVssc
p3708
I3473
sVreveal
p3709
I2382
sVregarding
p3710
I4360
sVglutathione
p3711
I2465
sVp2y1
p3712
I2142
sV1.8625.26
p3713
I4678
sV-differentiated
p3714
I5294
sVnaked
p3715
I1517
sVpredicted
p3716
I3979
sVmapped
p3717
I4811
sVpituitary
p3718
I3668
sV365-kda
p3719
I990
sVubiquitinated
p3720
I4727
sVprocessive
p3721
I2860
sVphysically
p3722
I1718
sVanchored
p3723
I482
sVnamely
p3724
I2394
sVactively
p3725
I2217
sVp53-dependent
p3726
I5074
sVtff3-mediated
p3727
I4595
sVlnc
p3728
I2149
sVminmg
p3729
I3382
sVdetect
p3730
I229
sVinhibitory
p3731
I2192
sVfarmers
p3732
I2771
sVways
p3733
I5229
sVsubsequent
p3734
I108
sVreview
p3735
I2114
sVabscisic
p3736
I2185
sVcirculating
p3737
I1761
sVnts2
p3738
I4977
sVinhibitors
p3739
I755
sVsnps
p3740
I208
sV3
I766
sVbetween
p3741
I605
sVherbal
p3742
I286
sV3-mercaptopyruvate
p3743
I2462
sV32%
p3744
I1201
sV-tubulin
p3745
I1908
sV5.96e-10
p3746
I2658
sVorthologue
p3747
I2226
sVcarboplatin
p3748
I3803
sVcaveolae
p3749
I3788
sVgammaherpesvirus
p3750
I5337
sV-synuclein
p3751
I2494
sVanalyzed
p3752
I625
sVrapidly
p3753
I2684
sVreaction
p3754
I498
sVgwg
p3755
I1868
sVregion
p3756
I1359
sVtermed
p3757
I4894
sVdnmts
p3758
I3234
sVenabling
p3759
I3575
sVsegmental
p3760
I4119
sVcomet
p3761
I2038
sVbackcrossing
p3762
I4428
sVharbouring
p3763
I129
sVcharacterization
p3764
I2334
sVcolor
p3765
I4207
sVoverview
p3766
I2119
sVpou
p3767
I1047
sVcolony
p3768
I5410
sVperiod
p3769
I3821
sVpoly
p3770
I2241
sVrepairable
p3771
I705
sV60
p3772
I975
sVcolon
p3773
I897
sVlearning
p3774
I1932
sV68
p3775
I4698
sVmoreover
p3776
I503
sVpostnatal
p3777
I4643
sVamino
p3778
I1878
sVsymptoms
p3779
I1972
sVakr1b10
p3780
I613
sVneurogenesis
p3781
I2973
sV50%
p3782
I3273
sVinformed
p3783
I4684
sVmarkedly
p3784
I4072
sVimmunodeficiency
p3785
I808
sVih
p3786
I2353
sVyeasts
p3787
I2540
sVkinases
p3788
I89
sVcas9
p3789
I1414
sVbigelovin
p3790
I2731
sV6b
p3791
I2106
sVisomerase
p3792
I4635
sVmethylome
p3793
I2118
sV48/80-induced
p3794
I4239
sVrectifying
p3795
I2148
sVcoherently
p3796
I1563
sVstems
p3797
I5274
sVprotocols
p3798
I3047
sVstat2
p3799
I4912
sVcase
p3800
I4972
sVgata-2
p3801
I3362
sVgata-3
p3802
I3363
sVtubulin
p3803
I5015
sVkinase-
p3804
I2301
sVsynthetase
p3805
I2305
sVpremature
p3806
I3064
sVrefractory
p3807
I4604
sVsuperoxide
p3808
I3069
sVrs1892901
p3809
I2612
sVtaking
p3810
I1368
sVformalin
p3811
I4379
sVcobalamin[c
p3812
I5190
sV-2,6
p3813
I3215
sVdlg5
p3814
I3447
sVfetuses
p3815
I4960
sVcoupled
p3816
I1174
sVangiotensinogen
p3817
I5392
sVr102x
p3818
I4745
sVcanceled
p3819
I1239
sVsterol
p3820
I2554
sVconverts
p3821
I1918
sVattributed
p3822
I4853
sVmcgregor
p3823
I5412
sVtgfb1i1
p3824
I4022
sVd3d5
p3825
I4274
sVubiquitin
p3826
I458
sVbsm
p3827
I3540
sVdevelop
p3828
I4198
sVundernutrition
p3829
I4642
sVmedia
p3830
I1804
sVmicroarray
p3831
I421
sVphysical
p3832
I4609
sVlita
p3833
I4706
sVvlp)-cells
p3834
I1855
sVstatus
p3835
I2790
sVinvestigated
p3836
I669
sVbiocompatible
p3837
I678
sVsynthetases
p3838
I2828
sVg286a
p3839
I264
sVdriver
p3840
I1756
sVdrives
p3841
I4192
sVdriven
p3842
I4373
sVpersons
p3843
I2820
sVguillain
p3844
I5085
sVconsensus
p3845
I5222
sVexstrophy
p3846
I3990
sVantibodies
p3847
I1155
sVinactivating
p3848
I4283
sVplasminogen
p3849
I3924
sVcytosolic
p3850
I2513
sVisl1
p3851
I4024
sVccm
p3852
I5052
sVsevere
p3853
I1623
sVwithout
p3854
I1822
sVcci
p3855
I4624
sVcch
p3856
I3686
sVcomponents
p3857
I813
sVrelied
p3858
I225
sVtermination
p3859
I3532
sVmodel
p3860
I184
sVlaboratories
p3861
I3779
sVbodies
p3862
I3188
sVwhen
p3863
I151
sVne
p3864
I4651
sVcommunities
p3865
I1815
sVinflammatory
p3866
I534
sVribosomal
p3867
I1044
sVdifferentiation
p3868
I306
sVbehavioural
p3869
I1620
sVspeed
p3870
I3080
sVhomeostasis
p3871
I475
sVdeath
p3872
I933
sVangiotensin
p3873
I335
sVdopaminergic
p3874
I2542
sVseems
p3875
I3050
sVexcept
p3876
I2945
sVconfirmed
p3877
I3154
sVexon
p3878
I3489
sVthrombotic
p3879
I3101
sVassociation
p3880
I214
sVsamples
p3881
I1543
sVimmunosorbent
p3882
I545
sVcohesin
p3883
I2055
sVstemness
p3884
I3916
sVdisrupt
p3885
I1929
sVreal
p3886
I2411
sVaml
p3887
I1512
sVamo
p3888
I3851
sV139
p3889
I2328
sVconferring
p3890
I5211
sVamd
p3891
I4010
sVearly
p3892
I614
sV0.58
p3893
I4872
sVcuprizone
p3894
I5363
sVusing
p3895
I307
sVaccepted
p3896
I2660
sVsox-2
p3897
I5011
sVacute
p3898
I57
sVphosphomimetic
p3899
I4013
sVparticle
p3900
I1854
sVdendou
p3901
I4686
sVreduces
p3902
I376
sVwbc
p3903
I1096
sVdilution
p3904
I4376
sVqtls
p3905
I5039
sVreduced
p3906
I1555
sVpasmc
p3907
I3150
sV0.04
p3908
I360
sVexposed
p3909
I3849
sVrms
p3910
I919
sVaza
p3911
I3093
sVpseudoexon
p3912
I3696
sVsubtypes
p3913
I1136
sVtreatments
p3914
I3898
sVsanger
p3915
I4831
sVheterochromatin
p3916
I4164
sVwarranting
p3917
I4663
sVprovided
p3918
I4620
sVsalicylic
p3919
I2578
sVmicro
p3920
I4367
sVrecorded
p3921
I282
sVhepatitis
p3922
I620
sVdepletion
p3923
I1664
sVacridine
p3924
I922
sVprovides
p3925
I276
sVnecessitating
p3926
I1461
sVcontent
p3927
I1129
sVcd11b
p3928
I2954
sVassembly
p3929
I807
sVequivalent
p3930
I4988
sVmorpho
p3931
I1263
sVsedimentation
p3932
I1099
sVnmd
p3933
I3535
sVdicer
p3934
I2979
sVassemble
p3935
I1635
sVontology
p3936
I1307
sVsrb
p3937
I5135
sVon
p3938
I177
sVcentral
p3939
I64
sVenzymatic
p3940
I2379
sVastrocytes
p3941
I2611
sVof
p3942
I51
sVoe
p3943
I3631
sVcodependence
p3944
I2327
sVoa
p3945
I4791
sVthousands
p3946
I4127
sVchop
p3947
I447
sVconcentrations
p3948
I1471
sVov
p3949
I1747
sVreferred
p3950
I1838
sVantibody
p3951
I178
sVor
p3952
I500
sVaortic
p3953
I4701
sVprotease
p3954
I3468
sVcommunication
p3955
I1930
sVpb1121
p3956
I4423
sVhomodimer
p3957
I4915
sVspinal
p3958
I4957
sVfrster
p3959
I3512
sV3mpst
p3960
I2464
sVdetermine
p3961
I2380
sVspeculated
p3962
I3316
sVabrogate
p3963
I1509
sVlastly
p3964
I4378
sVintervention
p3965
I3766
sV86.7%
p3966
I346
sVarea
p3967
I4531
sVremoving
p3968
I4244
sVstrictly
p3969
I4881
sVthere
p3970
I1618
sVcultured
p3971
I1849
sVstart
p3972
I1377
sVdetectable
p3973
I5284
sVlow
p3974
I70
sVcultures
p3975
I670
sVgfp
p3976
I778
sVcolocalized
p3977
I2450
sVd816v
p3978
I3618
sVregard
p3979
I1687
sVjun
p3980
I2210
sVposterior
p3981
I3757
sVerk1/2
p3982
I4295
sVlymph
p3983
I1826
sVpromote
p3984
I2302
sVnrf2
p3985
I1998
sVutilizing
p3986
I2134
sVlonger
p3987
I3423
sVdatasets
p3988
I5231
sVapplying
p3989
I3961
sVembedded
p3990
I4381
sVhiv)-1
p3991
I809
sVare-
p3992
I3967
sVtgf/smad3
p3993
I2354
sVintegrating
p3994
I573
sVfaime
p3995
I422
sVdefine
p3996
I4494
sVinoculation
p3997
I4590
sVstrongly
p3998
I915
sVillnesses
p3999
I952
sVunrelated
p4000
I4554
sVcontributors
p4001
I2352
sVcbe
p4002
I3991
sVfusions
p4003
I5124
sVtransporters
p4004
I1772
sVdescribe
p4005
I3035
sVmetastasis
p4006
I1821
sV1200
p4007
I5038
sVsulfurtransferase
p4008
I2463
sVcbm
p4009
I2857
sV60%
p4010
I4851
sVcbp
p4011
I3804
sVarises
p4012
I2734
sVhelicase
p4013
I2260
sVcorresponding
p4014
I2650
sVgradients
p4015
I125
sVrnai
p4016
I3526
sVnhej
p4017
I142
sVmir-30c
p4018
I4962
sVautocrine
p4019
I4435
sVconcomitant
p4020
I2013
sVigg
p4021
I2994
sVvalid
p4022
I4780
sV5
I2532
sVmir-564
p4023
I5108
sVctcf
p4024
I1728
sVpoor
p4025
I1702
sVpolar
p4026
I3187
sVr388p
p4027
I1596
sV60s
p4028
I1907
sVseparate
p4029
I2840
sVeaec
p4030
I3581
sVplasmacytomas
p4031
I4879
sVnucleus
p4032
I1494
sVcoverage
p4033
I2926
sVincluded
p4034
I912
sVproteomic
p4035
I1428
sVangiogenesis
p4036
I3338
sVpool
p4037
I4195
sVcytotoxicity
p4038
I2157
sVcondensation
p4039
I3168
sVinsertions
p4040
I4220
sVcontrolled
p4041
I4279
sVunstably
p4042
I5053
sVodds
p4043
I4673
sVmitochondria
p4044
I110
sVcurve
p4045
I4533
sVdisorganization
p4046
I4484
sVsignalling
p4047
I838
sVmigrated
p4048
I5371
sVall
p4049
I1160
sVsurrounded
p4050
I4118
sValk
p4051
I4291
sVchinese
p4052
I4589
sVcarpel
p4053
I3543
sVlack
p4054
I2619
sVptc
p4055
I3533
sVculturing
p4056
I2401
sVmonth
p4057
I1995
sV4-fold
p4058
I1399
sVbiosensor
p4059
I3515
sVcovariates
p4060
I4753
sVals
p4061
I3245
sValp
p4062
I3934
sVsynthetic
p4063
I932
sVnestin
p4064
I3443
sVsubjected
p4065
I2017
sVequivalence
p4066
I2031
sVopportunities
p4067
I2632
sVremoval
p4068
I406
sVmatrix
p4069
I1434
sVbiliary
p4070
I2623
sVnodes
p4071
I1827
sVcytokinesis
p4072
I1026
sVcdna
p4073
I4523
sV7-like
p4074
I4611
sVactivities
p4075
I592
sVbelonging
p4076
I1518
sVroc
p4077
I4532
sVworse
p4078
I2225
sVfar
p4079
I4551
sVapoptosis
p4080
I48
sVfap
p4081
I3463
sVmpm
p4082
I1182
sVinduce
p4083
I851
sVheme
p4084
I4034
sVfak
p4085
I1062
sVrnase
p4086
I2977
sVtreating
p4087
I757
sVdisp3/ptchd2
p4088
I2553
sVanti-iib3
p4089
I4350
sVdeficient
p4090
I1559
sV2.3.4.4
p4091
I3217
sVwilt
p4092
I2779
sV-6
p4093
I1922
sVanal
p4094
I111
sVdecidualization
p4095
I4170
sVemploying
p4096
I2090
sVrats
p4097
I1195
sVten
p4098
I4175
sVaberrantly
p4099
I2231
sVdimensional
p4100
I5133
sVaspartoacylase
p4101
I193
sVmetaphase
p4102
I3190
sVrate
p4103
I1100
sVenhancement
p4104
I4773
sVpromotes
p4105
I499
sV1203
p4106
I5036
sVabundant
p4107
I3959
sVcues
p4108
I1724
sVsub
p4109
I5069
sVadvantageous
p4110
I3051
sVmsh2
p4111
I2753
sVovarian
p4112
I1867
sVcrush
p4113
I3457
sVadiposity
p4114
I1874
sVversion
p4115
I2856
sVsup
p4116
I1121
sVastrocytic
p4117
I5143
sVang
p4118
I5393
sVgametophyte
p4119
I3437
sVdioxygenase
p4120
I2878
sVcaspase
p4121
I788
sVbehaviour
p4122
I1612
sVh46a
p4123
I4896
sVrelaxation
p4124
I5030
sVmmr
p4125
I2752
sVextraordinary
p4126
I3078
sVlosses
p4127
I1846
sVweaning
p4128
I1726
sVprogranulin
p4129
I2150
sV~~[[1
p4130
I13
sVamount
p4131
I1979
sVpulmonary
p4132
I3148
sVtimp-1/2
p4133
I4583
sVhccl
p4134
I4189
sVlysates
p4135
I1810
sVreprogramming
p4136
I507
sVfamily
p4137
I609
sVmediator
p4138
I2096
sVrequiring
p4139
I4490
sVcysteines
p4140
I4356
sVscreens
p4141
I4969
sVhaemoglobin
p4142
I2918
sVanalyzing
p4143
I2475
sVaberrant
p4144
I2299
sVconventional
p4145
I1093
sVcd163
p4146
I1715
sVcontains
p4147
I2435
sValgae
p4148
I5048
sV97.5%
p4149
I2358
sV12-week
p4150
I4656
sVmirna
p4151
I1251
sVtaken
p4152
I2397
sVgrafts
p4153
I5370
sVminor
p4154
I4732
sVlowering
p4155
I726
sVffpe
p4156
I4382
sVcompromising
p4157
I3610
sVhif2.
p4158
I510
sVsurprisingly
p4159
I2180
sVtransferases
p4160
I1383
sVlipoprotein
p4161
I1808
sVknown
p4162
I917
sVproducing
p4163
I1637
sVmirs
p4164
I4985
sVqpcr
p4165
I1349
sVendocytosis
p4166
I651
sVrs217727
p4167
I5247
sVnine
p4168
I1895
sVv
I383
sVltbi
p4169
I3704
sVosbt1
p4170
I3739
sVf1
p4171
I4645
sVchallenging
p4172
I2924
sVosteosarcoma
p4173
I1778
sVf9
p4174
I845
sVradiotherapy
p4175
I5419
sVprotective
p4176
I3744
sVlacks
p4177
I5283
sVspecies
p4178
I99
sVstring
p4179
I1325
sVtransduction
p4180
I4579
sVinfluenced
p4181
I1765
sVgoal
p4182
I2748
sVrather
p4183
I180
sVpermissive
p4184
I569
sVregression
p4185
I5092
sVactivator
p4186
I3962
sVorogenic
p4187
I3652
sVhif
p4188
I4348
sVlb8e
p4189
I1260
sVsequentially
p4190
I2641
sVfr
p4191
I5062
sVcytokine
p4192
I999
sVtried
p4193
I2426
sVprognostic
p4194
I24
sVnitrative
p4195
I3552
sVderived
p4196
I643
sVreflect
p4197
I1614
sVfd
p4198
I2907
sVfg
p4199
I4248
sVinvasion
p4200
I1853
sVconcentrating
p4201
I5051
sVa
I22
sVconstitutively
p4202
I3911
sVshort
p4203
I2091
sVchiefly
p4204
I793
sVenzymes
p4205
I2829
sVmicroinjection
p4206
I3348
sVbiomarker
p4207
I1830
sVheight
p4208
I5040
sVdiets
p4209
I4653
sVcadm1
p4210
I2951
sVdispersing
p4211
I3940
sVnad(p)h
p4212
I5060
sVturnover
p4213
I2915
sVpcna
p4214
I3427
sVhelp
p4215
I3309
sVaided
p4216
I2633
sVpyelonephritis
p4217
I3579
sVdeveloped
p4218
I236
sVfingolimod
p4219
I3493
sV1.9%
p4220
I723
sVurine
p4221
I4949
sVdisabled
p4222
I4042
sVheld
p4223
I2068
sVhela
p4224
I5071
sVpilus
p4225
I3580
sVkinetic
p4226
I798
sVmam
p4227
I2159
sVif1
p4228
I3330
sVadverse
p4229
I3265
sVsusceptible
p4230
I3901
sVcholestasis
p4231
I1992
sVcutis
p4232
I3770
sVinterleukin-1
p4233
I3844
sVabsence
p4234
I4306
sVupf1
p4235
I5155
sVsystems
p4236
I1586
sVinterleukin-6
p4237
I4434
sVmefs
p4238
I2042
sVdiscriminate
p4239
I5022
sVmight
p4240
I1376
sValter
p4241
I2613
sVimmunolabeling
p4242
I2600
sVprenatal
p4243
I3619
sVaccumulate
p4244
I4059
sVmre11-rad50-nbs1
p4245
I5104
sVmyocardiocytes
p4246
I4096
sVdownregulation
p4247
I1450
sVtlr2
p4248
I4097
sVreplicatively
p4249
I5266
sVfully
p4250
I568
sVenlarged
p4251
I2667
sVsb431542
p4252
I2910
sVinhibits
p4253
I993
sVifn
p4254
I3749
sVcharacterized
p4255
I1322
sVroxatidine
p4256
I4234
sVpermeation
p4257
I3523
sVweight
p4258
I1948
sVp
I377
sVgeneration
p4259
I890
sVhyperdormancy
p4260
I2966
sVloops
p4261
I4448
sV8-isoprostanes
p4262
I4859
sVevent
p4263
I4870
sVcortices
p4264
I3478
sVdiscrete
p4265
I2447
sVsynaptosomal
p4266
I5161
sVsince
p4267
I1973
sVinduces
p4268
I491
sV7/446
p4269
I4833
sVviability
p4270
I2939
sVpromoters
p4271
I2289
sVhumanht-12
p4272
I4697
sVsafety
p4273
I222
sVinactivated
p4274
I3261
sV7
I310
sVmyocardium
p4275
I4102
sVinduced
p4276
I100
sVremodeling
p4277
I2872
sV-subunit
p4278
I5433
sValarmin
p4279
I936
sVcausally
p4280
I5081
sVifi6
p4281
I2342
sV2.3.4
p4282
I3210
sVribose
p4283
I2243
sVpoly(i
p4284
I962
sVlesser
p4285
I997
sV-2,3
p4286
I3211
sVbase
p4287
I684
sValzheimer
p4288
I1652
sVasd
p4289
I1321
sVearliest
p4290
I4537
sVgenerate
p4291
I1587
sVmultiwalled
p4292
I4255
sVrevolutionary
p4293
I4051
sVbring
p4294
I4502
sVcell(s
p4295
I3868
sVcd83
p4296
I1526
sVdiffuses
p4297
I5353
sVleading
p4298
I230
sVconsequence
p4299
I2122
sVtransduce
p4300
I5358
sVarchitectures
p4301
I5194
sV1128
p4302
I5195
sVgra7-i
p4303
I3557
sVunencapsulated
p4304
I2997
sVencoding
p4305
I272
sVradical
p4306
I4006
sVhsv-1
p4307
I3842
sVgpa
p4308
I2919
sVindustrially
p4309
I5311
sVcarbapenem
p4310
I4456
sVconstruct
p4311
I1416
sVremodelers
p4312
I4492
sVcheckpoint
p4313
I1448
sVolaparib
p4314
I3802
sVgpi
p4315
I485
sVsubnetworks
p4316
I4777
sV3-step
p4317
I3036
sVinteract
p4318
I826
sVprediabetes
p4319
I2786
sVregulation
p4320
I2182
sVidentity
p4321
I4489
sVimperfect
p4322
I3776
sVcentromeric
p4323
I4491
sVbowel
p4324
I3971
sVretinal
p4325
I2637
sVimprinted
p4326
I4747
sVbasal
p4327
I3344
sVnci
p4328
I3342
sVprototypic
p4329
I2432
sVsignaling
p4330
I531
sVauthors
p4331
I1225
sVtranslation
p4332
I729
sVhelpervirus
p4333
I3858
sVrelieves
p4334
I2685
sValbeit
p4335
I3458
sV-catenin
p4336
I2534
sVseryl
p4337
I2303
sVdouble
p4338
I731
sVtnfsf14
p4339
I3718
sVbim-5utr
p4340
I1224
sVaims
p4341
I4223
sVepac
p4342
I3516
sVcysteine
p4343
I3692
sVmir-10a-5p
p4344
I5021
sVstratifying
p4345
I3008
sVtie-2
p4346
I319
sVdtt
p4347
I3066
sVc2c12
p4348
I1497
sVexert
p4349
I3853
sVglobulin
p4350
I1947
sVil-27
p4351
I3595
sVip-10
p4352
I3714
sVlentivirus
p4353
I4963
sVglioblastoma
p4354
I2277
sVlittermates
p4355
I2004
sVlncrnas
p4356
I2983
sVpard
p4357
I4713
sVdepleted
p4358
I1602
sVconcentration
p4359
I2937
sVnull
p4360
I2097
sVorgans
p4361
I3886
sVchemokine
p4362
I4073
sVrobustly
p4363
I4775
sVmonophosphate
p4364
I3508
sVmultilocus
p4365
I3124
sVunprocessed
p4366
I2962
sVlim
p4367
I3012
sVlin
p4368
I2956
sVcave
p4369
I1792
sVlabour
p4370
I5120
sVaggravating
p4371
I2544
sVdonor
p4372
I4427
sVproline
p4373
I1030
sV7%
p4374
I3248
sVtowards
p4375
I123
sVthreatening
p4376
I4899
sVmeasures
p4377
I4082
sVreach
p4378
I4309
sV76
p4379
I5254
sVsmbl
p4380
I4479
sV72
p4381
I4921
sVrho
p4382
I2267
sVcomparisons
p4383
I3876
sValpha
p4384
I637
sVisoleucyl
p4385
I2760
sVapproved
p4386
I3826
sVlrba
p4387
I5347
sVvalue
p4388
I3311
sVmineral
p4389
I4213
sVsystematically
p4390
I2665
sVclear
p4391
I4191
sVtraditional
p4392
I1361
sVbl21
p4393
I4877
sVoptical
p4394
I1631
sVamphibian
p4395
I1794
sVr2r3-myb
p4396
I3773
sVp53-binding
p4397
I4157
sVnotch
p4398
I4186
sVzebrafish
p4399
I1975
sVcav1
p4400
I5430
sVbrg1-deficient
p4401
I2172
sVphenomenon
p4402
I2178
sVrtc
p4403
I2454
sVprotoporphyrin
p4404
I5330
sVcdk
p4405
I2258
sVlactam
p4406
I5191
sVpostsynaptic
p4407
I5004
sVheterodimer
p4408
I2066
sVcompletion
p4409
I3175
sVcurrent
p4410
I2558
sVparameters
p4411
I4442
sVognnv
p4412
I1859
sVoct4/sox2/epcam
p4413
I3918
sVincidence
p4414
I3298
sVsurveyed
p4415
I5134
sVstat3-hif2
p4416
I514
sVhyphal
p4417
I4799
sVhis
p4418
I4876
sVdominant
p4419
I5176
sVhiv
p4420
I840
sVproteasome
p4421
I1041
sVconnections
p4422
I1971
sVtrees
p4423
I1369
sVcd4
p4424
I3057
sVcapsule
p4425
I182
sV3/7
p4426
I789
sVcompeting
p4427
I1534
sVcombinations
p4428
I5016
sVcritically
p4429
I4085
sVbrrf2
p4430
I5339
sVcd8
p4431
I3328
sVcombined
p4432
I762
sVgels
p4433
I3577
sVmesenchyme
p4434
I3993
sVbiovar
p4435
I3637
sVtransgenic
p4436
I2808
sVie2
p4437
I1565
sValteration
p4438
I2336
sVsurvivin
p4439
I1803
sVinvestigate
p4440
I1832
sVactivity
p4441
I1039
sVx
I1312
sVmir-21
p4442
I1256
sVarq
p4443
I369
sValanine
p4444
I265
sVzhx1
p4445
I5093
sVaround
p4446
I1493
sVexcitability
p4447
I2141
sVachieves
p4448
I737
sVara
p4449
I4294
sVschizophrenia
p4450
I3673
sVdefense
p4451
I3567
sV2-fold
p4452
I4439
sVare
p4453
I772
sVmediators
p4454
I2904
sVclose
p4455
I1126
sVprecursors
p4456
I3116
sVglp-1r
p4457
I3875
sVpvn
p4458
I5400
sVvisualize
p4459
I1328
sVannexin
p4460
I4312
sVefficacious
p4461
I5440
sVano5
p4462
I3701
sVtcga
p4463
I351
sVdegrading
p4464
I3530
sVplatelet
p4465
I1246
sVvarious
p4466
I938
sVdemyelinated
p4467
I5365
sVprobably
p4468
I45
sVnumerous
p4469
I1529
sVprofiling
p4470
I1817
sVrecently
p4471
I1408
sVstatistically
p4472
I3289
sVmissing
p4473
I3021
sVaar
p4474
I5185
sVulcerative
p4475
I5198
sVpoorer
p4476
I5094
sVspray
p4477
I2773
sVdisturbance
p4478
I487
sVleukocyte
p4479
I3820
sVtet2wt
p4480
I3267
sVboth
p4481
I940
sVc
I3
sVsensitive
p4482
I3027
sVcontext
p4483
I582
sVexperimental
p4484
I2398
sVregulates
p4485
I82
sVsepsis
p4486
I4441
sVlet-7
p4487
I2276
sVharbour
p4488
I4138
sVunfolded
p4489
I494
sVtgf
p4490
I2350
sVcrispr
p4491
I1584
sVvessel
p4492
I3390
sV[
I1095
sVdecline
p4493
I3206
sVoshap3h.
p4494
I4037
sVpv
p4495
I1700
sVscented
p4496
I5298
sVpx
p4497
I4000
sVvarieties
p4498
I2393
sVppcsp1
p4499
I5167
sVstrategy
p4500
I572
sVpb
p4501
I4729
sVwhom
p4502
I3878
sVreduction
p4503
I1124
sVmcl-1
p4504
I2247
sVsirnas
p4505
I4769
sVmaintenance
p4506
I2052
sVcollected
p4507
I1805
sVpk
p4508
I1677
sVpo
p4509
I2870
sVimportant
p4510
I1002
sVganglion
p4511
I2638
sVtg2
p4512
I3985
sVgenerating
p4513
I3697
sVflight
p4514
I1440
sVtransferring
p4515
I4424
sVmodelling
p4516
I3647
sVelse
p4517
I3406
sVdetermination
p4518
I4781
sVliver
p4519
I623
sVmonokine
p4520
I3719
sV1,299,556
p4521
I884
sVplants
p4522
I1588
sVp0
p4523
I1046
sVp1
p4524
I3111
sVllcs
p4525
I656
sVevaluated
p4526
I257
sVhealthy
p4527
I4030
sVwhile
p4528
I844
sV1759
p4529
I1088
sVbehavior
p4530
I2750
sVbscs
p4531
I144
sVpacs-2
p4532
I2167
sVtranscripts
p4533
I1298
sVguide
p4534
I3350
sVciliary
p4535
I1231
sVmicropatterns
p4536
I1489
sVidentical
p4537
I1217
sVvectors
p4538
I2777
sVsmcs
p4539
I2348
sVherein
p4540
I4509
sVgoldengate
p4541
I2332
sVreads
p4542
I886
sVneurons
p4543
I1290
sVhbc
p4544
I3412
sVdistinguishable
p4545
I2255
sVcavernous
p4546
I3455
sVchloroplasts
p4547
I3371
sVbaseline
p4548
I1244
sVlengths
p4549
I3394
sVmonomeric
p4550
I4710
sVbelong
p4551
I4552
sVintrinsic
p4552
I3317
sVcytometry
p4553
I3416
sVssodn
p4554
I4464
sVsybr
p4555
I4208
sVstimulated
p4556
I1000
sVineffective
p4557
I3103
sVcolorectal
p4558
I758
sVmodification
p4559
I1675
sVcomposition
p4560
I1230
sVhigher
p4561
I62
sV890
p4562
I3494
sVused
p4563
I683
sVfatty
p4564
I2481
sVoptic
p4565
I3629
sVfyn
p4566
I3258
sVcmyc
p4567
I1802
sVuses
p4568
I3893
sVrobust
p4569
I1591
sVdesmoplasia
p4570
I2251
sVlower
p4571
I1946
sVabnormality
p4572
I386
sVgst
p4573
I2468
sVdatabase
p4574
I1303
sVorthologous
p4575
I5271
sVspindles
p4576
I3191
sVanalysis
p4577
I127
sVtemperature
p4578
I2383
sVstarved
p4579
I1345
sVgsh
p4580
I3429
sVaptamer
p4581
I4196
sVcarboxylating
p4582
I5045
sVcultivars
p4583
I3139
sVcvb3
p4584
I1164
sVcholangiocarcinoma
p4585
I1753
sVreviewed
p4586
I3333
sVeffector
p4587
I1566
sVsmc5/6
p4588
I2057
sVquestions
p4589
I2429
sVmres
p4590
I2874
sVextracted
p4591
I896
sVcostimulatory
p4592
I4904
sVanaphylactic
p4593
I4240
sVimpairs
p4594
I2387
sVtransformation
p4595
I2747
sVmicrorna
p4596
I1532
sVlacking
p4597
I1384
sVevaluate
p4598
I1131
sVshowing
p4599
I4716
sVresults
p4600
I31
sVaggregation
p4601
I2545
sVsubmandibular
p4602
I1192
sVfinding
p4603
I3003
sVincompletely
p4604
I1477
sVmodifications
p4605
I1727
sVaav2
p4606
I3829
sVsequesters
p4607
I5351
sVpolymers
p4608
I679
sVinterestingly
p4609
I875
sVmanifest
p4610
I4066
sVros
p4611
I787
sVimmunization
p4612
I3102
sVunstable
p4613
I2234
sVbyproduct
p4614
I1924
sValternatively
p4615
I2596
sVrearrangement
p4616
I3308
sVessential
p4617
I2060
sVperinuclear
p4618
I2448
sVhk-2
p4619
I3848
sVsome
p4620
I2652
sVunderstood
p4621
I1478
sVeconomic
p4622
I1845
sVcxcl10
p4623
I2341
sVdigestive
p4624
I4817
sVdelivered
p4625
I769
sVreconstituted
p4626
I821
sVresected
p4627
I3156
sVcornellgbs
p4628
I205
sVlobar
p4629
I2170
sVccl19/cxcl12
p4630
I124
sVcosmids
p4631
I3038
sVfragments
p4632
I1429
sVmitotic
p4633
I2022
sVminimal
p4634
I4397
sVhrtv
p4635
I4147
sVprocessing
p4636
I1403
sVstem
p4637
I1500
sVpfn1
p4638
I3506
sVstep
p4639
I5322
sVneurovisceral
p4640
I5227
sVmb66
p4641
I3636
sV28s
p4642
I2078
sVvaccine
p4643
I1162
sVhousekeeping
p4644
I5056
sVglaucoma
p4645
I4011
sVsimulation
p4646
I5411
sVhinge
p4647
I2069
sVrange
p4648
I3654
sV1523%
p4649
I1296
sVtherapeutic
p4650
I200
sVgamma
p4651
I3711
sVmoss
p4652
I5166
sVcas9-mediated
p4653
I1976
sV70
p4654
I56
sVeffectiveness
p4655
I792
sVmutagenic
p4656
I3304
sVcdk1
p4657
I1798
sVperturbing
p4658
I2543
sVmitosis
p4659
I3164
sVrapid
p4660
I1394
sVglycyl
p4661
I5408
sVisoleucine
p4662
I2764
sVoxidized
p4663
I4617
sVinnate
p4664
I941
sVrenewal
p4665
I4067
sVmeasured
p4666
I537
sVlong
p4667
I977
sVppar
p4668
I2364
sVnbl1
p4669
I1880
sVanalyze
p4670
I1813
sVsections
p4671
I2756
sVpotassium
p4672
I2025
sVmemory
p4673
I305
sVkda
p4674
I2469
sVrs3197999
p4675
I2657
sVproperly
p4676
I3627
sVsegregation
p4677
I2063
sVwnt
p4678
I530
sVinjection
p4679
I4459
sV-h2ax
p4680
I696
sV116
p4681
I3922
sVbiotinylated
p4682
I2830
sVsimilar
p4683
I1165
sVcalled
p4684
I2588
sVmicroarrays
p4685
I5269
sVassociated
p4686
I54
sVadults
p4687
I5087
sVraxml
p4688
I1364
sVn=10
p4689
I414
sVadsrrs
p4690
I1432
sVmecp2
p4691
I2274
sVn=13
p4692
I416
sVaccessibility
p4693
I3974
sVquantification
p4694
I1092
sVreservoirs
p4695
I5139
sVtomography
p4696
I2893
sVmyogenic
p4697
I913
sVnaa
p4698
I5317
sVnad
p4699
I1334
sVgrouper
p4700
I1858
sVamounts
p4701
I4084
sVoncoprotein
p4702
I2291
sVapplication
p4703
I204
sV1.57%
p4704
I4832
sVtransport
p4705
I1402
sVgra
p4706
I3571
sVabsentia
p4707
I453
sVmock
p4708
I5127
sVusers
p4709
I277
sVtata
p4710
I1050
sVbackbone
p4711
I3208
sVglomerular
p4712
I4444
sVatg4b
p4713
I2689
sVgenerated
p4714
I209
sVstructure
p4715
I1547
sVesr
p4716
I1101
sVindependently
p4717
I325
sVcorrelated
p4718
I358
sVe
I3945
sVfluorescence
p4719
I3377
sVdnase2
p4720
I1716
sVrequired
p4721
I1024
sVsva
p4722
I5416
sVdepth
p4723
I2583
sVbcscs
p4724
I1766
sVcorrelates
p4725
I3090
sVjoining
p4726
I141
sVsvr
p4727
I1250
sVgogat
p4728
I3994
sVloc_os01g17170
p4729
I271
sVvldl
p4730
I1809
sVgq
p4731
I4429
sVgp
p4732
I1777
sVresistance
p4733
I752
sVgg
p4734
I3288
sVosteoprotegrin
p4735
I321
sVgc
p4736
I1818
sVmarkers
p4737
I324
sVga
p4738
I2969
sVgo
p4739
I829
sVgm
p4740
I158
sVnematodes
p4741
I4787
sVcontributions
p4742
I4568
sVammonia
p4743
I4326
sVcardiomyocyte
p4744
I3604
sVhspcs
p4745
I1892
sVstably
p4746
I4392
sVeukaryote
p4747
I4354
sVenc
p4748
I4114
sVarid
p4749
I3973
sVuninformative
p4750
I3359
sVradiological
p4751
I2887
sVstable
p4752
I1055
sVsuite
p4753
I3237
sVinclude
p4754
I4582
sVmutation
p4755
I130
sVoverlaps
p4756
I2646
sVsurfactant
p4757
I470
sVhomoeostasis
p4758
I490
sVg2
p4759
I564
sVg1
p4760
I597
sVg0
p4761
I5070
sVdelta-5-desaturase
p4762
I1917
sVengineered
p4763
I653
sVpdac
p4764
I2136
sVelectron
p4765
I5192
sVsorting
p4766
I2166
sVunderscore
p4767
I4402
sVartery
p4768
I3149
sVpolymeric
p4769
I237
sVmodulator
p4770
I1018
sVgender
p4771
I4982
sVdinaric
p4772
I1796
sVrootstock
p4773
I3376
sVepstein
p4774
I1742
sVfoldx
p4775
I2374
sVsmaller
p4776
I3040
sVrdna
p4777
I883
sVfold
p4778
I1692
sVdysregulated
p4779
I2132
sVgrowing
p4780
I1409
sVcoated
p4781
I4932
sVacid
p4782
I1470
sVplays
p4783
I1020
sVscaffolded
p4784
I2064
sVlipofuscin
p4785
I2176
sVnetworks
p4786
I909
sV-enhancer
p4787
I3010
sVevoked
p4788
I4230
sVexperiment
p4789
I2590
sVbiofilter
p4790
I4325
sV;
I332
sVmultivariate
p4791
I1240
sVdegree
p4792
I3808
sVcommercial
p4793
I4460
sVmyosin
p4794
I2271
sVdesired
p4795
I1418
sVexplore
p4796
I1284
sVfocused
p4797
I770
sVbetamethasone
p4798
I4990
sVseparation
p4799
I3169
sVpi3k
p4800
I5434
sVmodifier
p4801
I1693
sVtelangiectasia
p4802
I5276
sVjcpyv
p4803
I1516
sVsuggests
p4804
I2377
sVpreferentially
p4805
I145
sVproducts
p4806
I1460
sVorangutan
p4807
I4987
sVgene
p4808
I187
sVspatio
p4809
I794
sVelsilimomab
p4810
I4511
sVexaminations
p4811
I5290
sVstabilization
p4812
I673
sVaitl
p4813
I3813
sVapp
p4814
I824
sVscaled
p4815
I5202
sVaddressed
p4816
I676
sVapi
p4817
I4330
sVmotor
p4818
I1227
sVmuc5b
p4819
I5422
sVapply
p4820
I570
sVmanipulate
p4821
I3077
sVbiophysical
p4822
I3235
sVfrom
p4823
I210
sVremains
p4824
I4800
sV1]]~~
p4825
I15
sVexamination
p4826
I3232
sVvehicle
p4827
I5126
sVmeans
p4828
I517
sVstage
p4829
I2784
sVantioxidants
p4830
I846
sVhistorically
p4831
I224
sVhyphae
p4832
I5326
sVpsoriasis
p4833
I4597
sVgpr155
p4834
I3460
sVbecomes
p4835
I4187
sVmismatch
p4836
I2751
sVinfection
p4837
I35
sVcooperate
p4838
I3408
sV~~[[2
p4839
I6
sVvirulence
p4840
I2196
sVbioactivity
p4841
I4469
sVhomeobox
p4842
I1033
sVimmunodominant
p4843
I3082
sVstabilizes
p4844
I4048
sVspkst
p4845
I3432
sVinhibitor
p4846
I763
sVproof
p4847
I2570
sVcontrol
p4848
I1205
sVtau
p4849
I1453
sVinducibly
p4850
I3912
sVire1
p4851
I1673
sVtag
p4852
I2442
sVtaa
p4853
I662
sVtac
p4854
I4546
sVsought
p4855
I5118
sVserial
p4856
I4375
sVrapd
p4857
I4337
sVsip
p4858
I3125
sVsyndrome
p4859
I93
sVlocates
p4860
I397
sVoptimised
p4861
I4837
sVconversely
p4862
I1043
sVsix
p4863
I2408
sVgenomes
p4864
I1783
sVeprobe
p4865
I4824
sVprognosis
p4866
I629
sVcarrier
p4867
I3732
sVatpase
p4868
I2537
sVfilament
p4869
I3454
sVtuberculous
p4870
I2719
sVh2ax
p4871
I2414
sVmaternal
p4872
I4641
sVsnorna
p4873
I4615
sVcondensin
p4874
I2056
sVdsbs
p4875
I3291
sVlight
p4876
I3028
sVinterspaced
p4877
I3073
sVits2
p4878
I4277
sVits1
p4879
I4275
sVhepatocarcinoma
p4880
I2292
sVehec
p4881
I984
sVadcs
p4882
I4828
sVunsolved
p4883
I3834
sVphagocytosis
p4884
I2996
sVallergen
p4885
I2594
sVkbm
p4886
I2725
sVcd3
p4887
I526
sVffame
p4888
I4233
sV130
p4889
I3681
sVincluding
p4890
I468
sVduring
p4891
I1351
sVjnk
p4892
I4009
sVconverting
p4893
I336
sVkbp
p4894
I2726
sVstrikingly
p4895
I3259
sVlongitudinal
p4896
I4784
sVw32r
p4897
I2228
sVtemporal
p4898
I795
sVcscs
p4899
I2506
sVtransferase
p4900
I2466
sVorange
p4901
I923
sVclusters
p4902
I1265
sVimbalance
p4903
I1317
sVsetting
p4904
I2190
sVhermaphrodites
p4905
I3548
sVfrontal
p4906
I1556
sVcomprehensively
p4907
I2086
sVmaterial
p4908
I287
sVmolecule
p4909
I1712
sVcaspases
p4910
I2732
sVmicrocephaly
p4911
I5084
sVbarcoding
p4912
I284
sV2]]~~
p4913
I8
sVmaternally
p4914
I4746
sVhemagglutinin
p4915
I2440
sV/calmodulin
p4916
I1006
sVhyperphosphorylated
p4917
I3486
sVmirnas::mrna
p4918
I2851
sVmode
p4919
I2867
sVpromise
p4920
I3224
sVcytogenetic
p4921
I3357
sVmyelin
p4922
I5375
sVreassortants
p4923
I3221
sVmet
p4924
I3274
sVrelated
p4925
I1770
sV8%
p4926
I4648
sV88
p4927
I3574
sVinterplay
p4928
I1140
sVhlh
p4929
I4018
sVseparating
p4930
I1421
sV83
p4931
I118
sVpreconditioning
p4932
I3336
sV84
p4933
I5197
sVout
p4934
I3866
sVipth
p4935
I4438
sVt2aa
p4936
I4715
sVcrc
p4937
I1274
sVcerebral
p4938
I1834
sVperforms
p4939
I5175
sVimpart
p4940
I4419
sVinduction
p4941
I1505
sVintegrated
p4942
I1104
sVimmunohistochemistry
p4943
I710
sVrecent
p4944
I2116
sVecm
p4945
I2253
sVwithdrawal
p4946
I4880
sVw32r.
p4947
I2230
sVcompletely
p4948
I3643
sVancestry
p4949
I4136
sV148
p4950
I1985
sVpluripotent
p4951
I5172
sVpancreatic
p4952
I1278
sVobs
p4953
I1137
sVg
I828
sVdiminished
p4954
I2016
sVtimes
p4955
I3424
sVcounterpart
p4956
I1663
sVproduce
p4957
I4898
sVprospective
p4958
I4664
sVcmml
p4959
I3262
sVpowerful
p4960
I3076
sVcardiac
p4961
I3108
sVbeadchip
p4962
I431
sVbarr
p4963
I1743
sV-/-
p4964
I4391
sVquality
p4965
I2965
sVendemic
p4966
I3134
sVtherapeutics
p4967
I2207
sVdata
p4968
I293
sVtheir
p4969
I146
sV53bp1
p4970
I4158
sVigf-1r
p4971
I2898
sVchemotherapy
p4972
I1962
sV53bp1-depleted
p4973
I4163
sVpathogen
p4974
I2222
sVprone
p4975
I149
sVrsk
p4976
I4895
sVreversed
p4977
I2357
sVfoliar
p4978
I2774
sVsuitability
p4979
I4278
sVmotility
p4980
I3504
sVsynergistic
p4981
I1511
sVctnt
p4982
I3110
sVmorbidity
p4983
I2548
sVreverses
p4984
I2265
sVcirrhosis
p4985
I1944
sVoutline
p4986
I2115
sVcongenital
p4987
I1625
sVpursuing
p4988
I4682
sVdistinguishes
p4989
I3613
sVinfectious
p4990
I818
sVlimiting
p4991
I1333
sVpatients
p4992
I80
sVrcc
p4993
I2007
sVcalcitonin
p4994
I4045
sVdistinguished
p4995
I3703
sVbet
p4996
I4992
sVzo-1
p4997
I2035
sVexhibit
p4998
I1767
sV14.3%
p4999
I725
sV2.2
p5000
I4249
sVneed
p5001
I4015
sVlinked
p5002
I544
sVsk
p5003
I5281
sV2.0
p5004
I3908
sVuoroquinolone
p5005
I735
sVquartile
p5006
I2822
sVable
p5007
I246
sVpolarization
p5008
I4497
sVwhich
p5009
I448
sV=
I359
sVvegetation
p5010
I3659
sVp450
p5011
I5205
sVcombat
p5012
I749
sVimmunolocalization
p5013
I3461
sVwho
p5014
I3030
sVtechniques
p5015
I5285
sVthrombocytopenia
p5016
I4145
sVoverlapping
p5017
I4836
sVeukaryotes
p5018
I2067
sVinhibitor-b
p5019
I2300
sVmen2b
p5020
I3695
sVmen2a
p5021
I3693
sVfuture
p5022
I1965
sVnucleotide
p5023
I4219
sVaflp
p5024
I3645
sVvolume
p5025
I1951
sVevolutionarily
p5026
I832
sVconsequences
p5027
I4718
sVspleen
p5028
I1949
sVoverrepresented
p5029
I3185
sVatypical
p5030
I2814
sVdenv
p5031
I4399
sVtff3
p5032
I3735
sVconstruction
p5033
I2568
sVcoinfected
p5034
I5405
sVdiagnostics
p5035
I4825
sVmccda
p5036
I4327
sVdeletion
p5037
I4039
sVemerging
p5038
I747
sVeif2-chop
p5039
I1669
sVfactor-b
p5040
I5350
sVtaxonomic
p5041
I2083
sVchicken
p5042
I219
sVpartners
p5043
I4550
sVhighest
p5044
I2821
sVbased
p5045
I328
sV(
I12
sVreceptors
p5046
I1358
sVgra7
p5047
I3559
sVreactive
p5048
I5
sVrast
p5049
I2705
sVtrfs
p5050
I3818
sVcandidates
p5051
I857
sVchitinase
p5052
I2862
sVngs
p5053
I891
sVemployed
p5054
I1167
sVstudded
p5055
I5148
sVhe
p5056
I4649
sVlocal
p5057
I1065
sVachieve
p5058
I198
sVboris
p5059
I3399
sVintranasal
p5060
I3326
sVslows
p5061
I728
sVmgf
p5062
I2946
sV4/group
p5063
I3890
sVdisplayed
p5064
I3186
sVoverall
p5065
I341
sVabiotic
p5066
I3434
sVjoint
p5067
I5335
sVmade
p5068
I5355
sVp47phox
p5069
I2739
sVcheckpoints
p5070
I2023
sVmyopathy
p5071
I4560
sV128
p5072
I3184
sVyears
p5073
I955
sVprocedures
p5074
I4194
sVprocesses
p5075
I2607
sVdps
p5076
I1344
sVkrppel
p5077
I4166
sVtobacco
p5078
I4466
sVdpp
p5079
I1152
sVconditions
p5080
I3550
sVdifferential
p5081
I1391
sVexperiments
p5082
I1252
sVprocessed
p5083
I3837
sVcontain
p5084
I1784
sVcleavage
p5085
I1040
sVphleboviruses
p5086
I4143
sVspotted
p5087
I1857
sVpredictive
p5088
I3268
sVrequirement
p5089
I4266
sVj
I5304
sVcomputed
p5090
I2894
sVpkcs
p5091
I134
sVacquired
p5092
I171
sVsmooth
p5093
I2347
sVhumans
p5094
I981
sVmodule
p5095
I1484
sVebv
p5096
I1744
sVp21
p5097
I4733
sVmildew
p5098
I1699
sVantiapoptosis
p5099
I4588
sVcreating
p5100
I3910
sVdlb
p5101
I3872
sVreperfusion
p5102
I3970
sVphospholipase
p5103
I3252
sVdlm
p5104
I2048
sVstate
p5105
I598
sVidentification
p5106
I285
sVcorrectly
p5107
I339
sVquartiles
p5108
I4671
sVcrude
p5109
I281
sVneither
p5110
I5184
sVvariability
p5111
I3292
sVcomparable
p5112
I3029
sVattention
p5113
I1513
sVability
p5114
I1508
sVg2/m
p5115
I2124
sVimportance
p5116
I512
sVstreptococci
p5117
I2198
sVcoelomocytes
p5118
I4254
sVefficiency
p5119
I1117
sVhypothesis
p5120
I2816
sVkey
p5121
I135
sVsynthase
p5122
I3329
sVneuropathologies
p5123
I2818
sVhits
p5124
I2664
sVweeks
p5125
I4623
sVstat3
p5126
I508
sVsediments
p5127
I4580
sVstat1
p5128
I4911
sVhiv-1
p5129
I4027
sVstrains
p5130
I985
sVgpcr
p5131
I3510
sVmanifestations
p5132
I980
sVgrain
p5133
I5041
sVuniprot
p5134
I1302
sVendmt
p5135
I3178
sVsequenced
p5136
I1904
sVunclear
p5137
I3492
sVneoplastic
p5138
I2746
sVbearing
p5139
I438
sVwall
p5140
I3436
sVantioxidant
p5141
I3965
sVenvironments
p5142
I4475
sVpackaging
p5143
I2436
sVdemyelinating
p5144
I3983
sVprotein1
p5145
I2108
sVsequences
p5146
I2563
sVzinc
p5147
I1983
sVcrystalline
p5148
I2868
sVkca3.1
p5149
I2238
sVi.e.
p5150
I1301
sVfe(ii
p5151
I3065
sVaddition
p5152
I1236
sVdiscrimination
p5153
I4443
sVcenp
p5154
I3201
sVmir-501
p5155
I3181
sVyap
p5156
I3603
sVh82
p5157
I3343
sVslowly
p5158
I2219
sVpdf
p5159
I3941
sVqualify
p5160
I2869
sVmonoclonal
p5161
I4510
sVdeterminant
p5162
I4488
sVcontribute
p5163
I1955
sVdiversity
p5164
I1545
sVoxidants
p5165
I4606
sVsufficient
p5166
I850
sVreleasing
p5167
I3024
sVmcao
p5168
I1360
sVuseable
p5169
I4357
sVchemoresistance
p5170
I1956
sVexogenous
p5171
I1139
sVimproved
p5172
I2938
sVpresent
p5173
I1008
sVnovel
p5174
I513
sVunlike
p5175
I2842
sVcontexts
p5176
I1720
sVwill
p5177
I1963
sVsynergistically
p5178
I4936
sVwild
p5179
I1127
sVphenotypic
p5180
I5034
sVlocated
p5181
I2970
sVmutant
p5182
I1208
sVmotif
p5183
I560
sVthus
p5184
I1811
sVsurface
p5185
I2195
sVpip
p5186
I4730
sVdraining
p5187
I4779
sVexamined
p5188
I74
sVproperties
p5189
I746
sVepitopes
p5190
I3084
sVdual
p5191
I2888
sVmetformin
p5192
I2206
sVkca3.1-gene
p5193
I2909
sVfto)-dependent
p5194
I4408
sVautoantibodies
p5195
I971
sVcapture
p5196
I2847
sV/l
p5197
I2947
sV/k
p5198
I2932
sV9/446
p5199
I4830
sVparotid
p5200
I1204
sVifnar
p5201
I3867
sVradiation
p5202
I764
sVcross
p5203
I1480
sVantiviral
p5204
I5253
sVmember
p5205
I611
sVpropensity
p5206
I1456
sVoligomeric
p5207
I4709
sVgeographical
p5208
I2988
sVfide
p5209
I4891
sVdifficult
p5210
I2216
sVpeptides
p5211
I4058
sVclinicopathological
p5212
I627
sVsmad4
p5213
I1864
sVeffect
p5214
I920
sVsmad3
p5215
I2351
sVctcf&boris
p5216
I3400
sVfrequently
p5217
I2527
sVphenotypically
p5218
I4329
sVpolymorphism
p5219
I2675
sVi
I1835
sVil-21
p5220
I302
sVwell
p5221
I976
sVadhesion
p5222
I1491
sVcrizotinib
p5223
I4293
sVundertaken
p5224
I4418
sVsensing
p5225
I2555
sVnanog
p5226
I3917
sVaccurate
p5227
I2061
sVobtain
p5228
I688
sV5-azacitidine
p5229
I4864
sVdose
p5230
I2033
sVfibrin
p5231
I2200
sVsources
p5232
I2989
sVbatteries
p5233
I227
sVdistant
p5234
I1825
sVsialic
p5235
I3216
sVpurified
p5236
I991
sV41
p5237
I5215
sVtcc
p5238
I2759
sVdipeptidase
p5239
I1151
sVrecapitulated
p5240
I3690
sVnow
p5241
I3814
sVdensity
p5242
I1807
sVmicrotubule
p5243
I4998
sVgolgi
p5244
I4994
sVsig2r
p5245
I3094
sVgutk
p5246
I3501
sVextends
p5247
I3607
sVnanoparticles
p5248
I240
sVlymphopenia
p5249
I930
sVmurine
p5250
I2237
sVsonic
p5251
I1234
sVlr34
p5252
I3905
sVputative
p5253
I273
sVser807/811-retinoblastoma
p5254
I2418
sVkeissler
p5255
I5063
sVknow
p5256
I4132
sVfacial
p5257
I5301
sVsequencing
p5258
I576
sVnamd
p5259
I4349
sVvariants
p5260
I1757
sVdomains
p5261
I2070
sVloss
p5262
I1310
sVnecessary
p5263
I3013
sVexploiting
p5264
I2560
sVnrxn3
p5265
I5017
sVrepresses
p5266
I1666
sVhosts
p5267
I2923
sVagents
p5268
I1736
sVrepressed
p5269
I3915
sVpage
p5270
I3576
sVglycoprotein
p5271
I380
sVbecause
p5272
I2736
sVsequence
p5273
I270
sVforkhead
p5274
I4168
sV1/programmed
p5275
I5380
sV115
p5276
I2795
sVplatforms
p5277
I4931
sV117
p5278
I2325
sVgrowth
p5279
I1873
sVexport
p5280
I3353
sV110
p5281
I619
sVleaf
p5282
I2391
sVpinpoint
p5283
I5232
sVlead
p5284
I1910
sVoverlap
p5285
I4639
sVmanipulations
p5286
I3937
sVul53
p5287
I4661
sVinflammation
p5288
I1054
sVdemonstrated
p5289
I823
sVlimitations
p5290
I5259
sVatherosclerotic
p5291
I4699
sVreductase
p5292
I608
sVrock
p5293
I2270
sVanalysed
p5294
I927
sVexpansion
p5295
I3242
sVpqtls
p5296
I2647
sVp38
p5297
I2212
sVtumorous
p5298
I3682
sVtig-3
p5299
I5264
sVfluorescent
p5300
I2574
sVanalyses
p5301
I1363
sV28.8%
p5302
I3280
sVrare
p5303
I1431
sVembryos
p5304
I1027
sVanchorage
p5305
I1605
sVrs10732516
p5306
I5252
sVrecognized
p5307
I1982
sVcompatible
p5308
I3839
sV8-oxodg
p5309
I3555
sVmyeloid
p5310
I3573
sVbeige
p5311
I5346
sV160
p5312
I4247
sVrecognizes
p5313
I1154
sVaminoacyl
p5314
I2762
sVautophagic
p5315
I152
sVautophagosomal
p5316
I4310
sVactinomycin
p5317
I1521
sVpreviously
p5318
I1622
sVe3
p5319
I457
sVh4
p5320
I1680
sVdue
p5321
I674
sVreceptor
p5322
I650
sVbrush
p5323
I4268
sVradioresistance
p5324
I3742
sVadditions
p5325
I2026
sVutility
p5326
I3906
sVtumorigenic
p5327
I2256
sVtransthyretin
p5328
I4637
sVadditional
p5329
I551
sVsynthesized
p5330
I682
sVgrapevine
p5331
I3135
sVtransfer
p5332
I700
sVpolyomavirus
p5333
I1514
sVaars
p5334
I3756
sVvad
p5335
I3873
sVnoticed
p5336
I1763
sVpa
p5337
I4986
sVinner
p5338
I1606
sVbreeding
p5339
I4980
sVcarcinogenic
p5340
I1737
sVrecruited
p5341
I4151
sVurothelial
p5342
I2526
sVkegg
p5343
I1086
sVpet28a
p5344
I4875
sVn-3
p5345
I4227
sVtriggered
p5346
I1495
sVrelevance
p5347
I2088
sVdirecting
p5348
I4495
sVhp
p5349
I3679
sVgbms
p5350
I3617
sVsubjective
p5351
I5122
sVhierarchical
p5352
I5117
sVha
p5353
I2441
sVhd
p5354
I3896
sVtruncation
p5355
I1459
sVchallenges
p5356
I4056
sVgranzyme
p5357
I3721
sVoocytes
p5358
I3172
sVwhether
p5359
I1611
sVcells
p5360
I60
sVinstructing
p5361
I4197
sVhdgecs
p5362
I3900
sVglioblastomas
p5363
I3616
sVdemonstrate
p5364
I169
sVspectrometry
p5365
I1442
sVdisplay
p5366
I3546
sVcatch
p5367
I1171
sVuniversal
p5368
I4272
sVtissues
p5369
I618
sVcorrection
p5370
I5437
sVtb
p5371
I4844
sVtwist
p5372
I2696
sV1-pyrroline-5-carboxylate
p5373
I5058
sVet
p5374
I1935
sVribonucleic
p5375
I3352
sVmacroarray
p5376
I2407
sVmyc
p5377
I1063
sVmyb
p5378
I3203
sVplaques
p5379
I4700
sVchromosome
p5380
I2059
sVimmobilize
p5381
I5147
sVfunctions
p5382
I907
sVcaspase-3
p5383
I5113
sVimproving
p5384
I4297
sVtreatment
p5385
I366
sVother
p5386
I831
sVparathyroid
p5387
I2701
sVsimvastatin
p5388
I2421
sVconclusion
p5389
I2420
sVpalindromic
p5390
I3074
sVultimately
p5391
I2618
sVinsults
p5392
I3792
sVpathways
p5393
I1081
sVadditionally
p5394
I3578
sVhomolog
p5395
I454
sVmacrophage
p5396
I527
sVcoupling
p5397
I3128
sVdescribed
p5398
I1014
sVnecrosis
p5399
I1839
sVpersistent
p5400
I3601
sVportion
p5401
I1064
sVdiagnosis
p5402
I2121
sVvalidation
p5403
I2836
sVindirectly
p5404
I5420
sVrepresentative
p5405
I4070
stRp5406
sbsS'dropout'
p5407
F0.25
sS'max_len'
p5408
I100
s.